
build/bootloader.elf:     file format elf32-littleriscv


Disassembly of section .text.startup:

80000000 <_start>:
    .section ".startup.entry","ax",@progbits

    ## Entry point
_start:
    ## reset mstatus
    csrw  mstatus, zero
80000000:	30001073          	csrw	mstatus,zero
    ## reset PMURTC->RTC_HISTORY
    lui     s1,0x38011
80000004:	380114b7          	lui	s1,0x38011
    sw      zero,8(s1) 
80000008:	0004a423          	sw	zero,8(s1) # 38011008 <STACK_SIZE+0x38010808>
    init_regs_const 16, 31, 0
#endif // !__riscv_32e
#endif // PLF_INIT_REGS

    ## setup gp
    load_addrword_abs gp, __global_pointer$
8000000c:	400001b7          	lui	gp,0x40000
80000010:	78018193          	addi	gp,gp,1920 # 40000780 <__global_pointer$>
    ## setup MTVEC
    load_addrword_abs t0, trap_entry
80000014:	800002b7          	lui	t0,0x80000
80000018:	1c028293          	addi	t0,t0,448 # 800001c0 <__data_source_start+0xfffff540>
    csrw  mtvec, t0
8000001c:	30529073          	csrw	mtvec,t0
    ## setup MIE, MIP


    csrw  mie, zero
80000020:	30401073          	csrw	mie,zero
    csrw  mip, zero
80000024:	34401073          	csrw	mip,zero
    load_const_int32 t1, __TEXT_INIT_SIZE__
    cache_flush t0, t1
#endif // PLF_CACHE_CFG

    ## init FPU (if supported)
    csrr  a0, misa
80000028:	30102573          	csrr	a0,misa
    andi  a0, a0, (1 << ('F' - 'A')) | (1 << ('D' - 'A'))
8000002c:	02857513          	andi	a0,a0,40
    beqz  a0, 1f
80000030:	00050863          	beqz	a0,80000040 <_start+0x40>
    li    a0, (1 << 13) // mstatus.FS = 1 (initial)
80000034:	00002537          	lui	a0,0x2
    csrs  mstatus, a0
80000038:	30052073          	csrs	mstatus,a0
    csrw  fcsr, zero
8000003c:	00301073          	fscsr	zero
#else
#define slave_hart_start _hart_halt
#endif // PLF_SMP_SUPPORT

    ## park/prep SMP slaves
    csrr  a0, mhartid
80000040:	f1402573          	csrr	a0,mhartid
#if PLF_SMP_MASTER_HARTID > 0
    li    t0, PLF_SMP_MASTER_HARTID
    bne   a0, t0, slave_hart_start
#endif // PLF_SMP_MASTER_HARTID > 0
#else // PLF_SMP_MASTER_HARTID
    bnez  a0, slave_hart_start
80000044:	04051463          	bnez	a0,8000008c <_hart_halt>
#endif // PLF_SMP_MASTER_HARTID

    ## init HART#0 sp, tp
    load_addrword_abs sp, __TLS0_BASE__
80000048:	40040137          	lui	sp,0x40040
8000004c:	00010113          	mv	sp,sp
    mv    tp, sp
80000050:	00010213          	mv	tp,sp
    csrw  mscratch, sp
80000054:	34011073          	csrw	mscratch,sp
    // reserve trap stack space
    li    t0, PLF_TRAP_STACK
    sub   sp, sp, t0
#endif // PLF_TRAP_STACK
    ## platform init
    load_addrword t0, plf_init
80000058:	800002b7          	lui	t0,0x80000
8000005c:	0be28293          	addi	t0,t0,190 # 800000be <__data_source_start+0xfffff43e>
    jalr  t0
80000060:	000280e7          	jalr	t0
    ## jal  plf_init
    ## application-specific initialization hook
    load_addrword t0, app_init
80000064:	800002b7          	lui	t0,0x80000
80000068:	0a428293          	addi	t0,t0,164 # 800000a4 <__data_source_start+0xfffff424>
    jalr  t0
8000006c:	000280e7          	jalr	t0
    ## jal  app_init
    ## main() args
    li    a0, 0
80000070:	00000513          	li	a0,0
    li    a1, 0
80000074:	00000593          	li	a1,0
#if PLF_SMP_NON_COHERENT
    clflush t1
#endif // PLF_SMP_NON_COHERENT
#endif // PLF_SMP_SUPPORT
    ## start main
    load_addrword t0, main
80000078:	800002b7          	lui	t0,0x80000
8000007c:	54628293          	addi	t0,t0,1350 # 80000546 <__data_source_start+0xfffff8c6>
    load_addrword ra, exit
80000080:	800000b7          	lui	ra,0x80000
80000084:	09c08093          	addi	ra,ra,156 # 8000009c <__data_source_start+0xfffff41c>
    jr    t0
80000088:	00028067          	jr	t0

8000008c <_hart_halt>:
1:  wfi
    j     1b
#endif // PLF_SMP_SUPPORT
#else // PLF_HTIF_BASE
    ## disable interrupts
    csrci mstatus, 0xf
8000008c:	3007f073          	csrci	mstatus,15
    csrw  mie, zero
80000090:	30401073          	csrw	mie,zero
1:  wfi
80000094:	10500073          	wfi
    j     1b
80000098:	ffdff06f          	j	80000094 <_hart_halt+0x8>

8000009c <exit>:
#endif // PLF_HTIF_BASE

exit:
    nop
8000009c:	00000013          	nop

800000a0 <abort>:
abort:
    j     _hart_halt
800000a0:	fedff06f          	j	8000008c <_hart_halt>

800000a4 <app_init>:
    jr    t0
#endif // PLF_SMP_SUPPORT

    ## stubs
app_init:
    ret
800000a4:	00008067          	ret
	...

800000b0 <plf_init_noreloc>:
extern void plf_init_relocate(void) __attribute__((weak));

extern char __bss_start[], __bss_end[];

void __init plf_init_noreloc(void)
{
800000b0:	1141                	addi	sp,sp,-16 # 4003fff0 <__STACK_START__+0x7f0>
800000b2:	c622                	sw	s0,12(sp)
800000b4:	0800                	addi	s0,sp,16
    // do nothing
}
800000b6:	0001                	nop
800000b8:	4432                	lw	s0,12(sp)
800000ba:	0141                	addi	sp,sp,16
800000bc:	8082                	ret

800000be <plf_init_generic>:

void __init plf_init_generic(void)
{
800000be:	1101                	addi	sp,sp,-32
800000c0:	ce06                	sw	ra,28(sp)
800000c2:	cc22                	sw	s0,24(sp)
800000c4:	1000                	addi	s0,sp,32
    // init BSS
    memset(__bss_start, 0, (size_t)(__bss_end - __bss_start));
800000c6:	88018713          	addi	a4,gp,-1920 # 40000000 <__BSS_END__>
800000ca:	88018793          	addi	a5,gp,-1920 # 40000000 <__BSS_END__>
800000ce:	40f707b3          	sub	a5,a4,a5
800000d2:	863e                	mv	a2,a5
800000d4:	4581                	li	a1,0
800000d6:	88018513          	addi	a0,gp,-1920 # 40000000 <__BSS_END__>
800000da:	397000ef          	jal	ra,80000c70 <memset>

    memcpy((void*)&__data_target_start,
           (const void*)&__data_source_start,
           (&__data_target_end - &__data_target_start));
800000de:	88018713          	addi	a4,gp,-1920 # 40000000 <__BSS_END__>
800000e2:	88018793          	addi	a5,gp,-1920 # 40000000 <__BSS_END__>
800000e6:	40f707b3          	sub	a5,a4,a5
    memcpy((void*)&__data_target_start,
800000ea:	863e                	mv	a2,a5
800000ec:	800017b7          	lui	a5,0x80001
800000f0:	c8078593          	addi	a1,a5,-896 # 80000c80 <__data_source_start+0x0>
800000f4:	88018513          	addi	a0,gp,-1920 # 40000000 <__BSS_END__>
800000f8:	363000ef          	jal	ra,80000c5a <memcpy>

    memcpy((void*)&__sdata_target_start,
              (const void*)&__sdata_source_start,
              (&__sdata_target_end - &__sdata_target_start));
800000fc:	88018713          	addi	a4,gp,-1920 # 40000000 <__BSS_END__>
80000100:	88018793          	addi	a5,gp,-1920 # 40000000 <__BSS_END__>
80000104:	40f707b3          	sub	a5,a4,a5
    memcpy((void*)&__sdata_target_start,
80000108:	863e                	mv	a2,a5
8000010a:	800017b7          	lui	a5,0x80001
8000010e:	c8078593          	addi	a1,a5,-896 # 80000c80 <__data_source_start+0x0>
80000112:	88018513          	addi	a0,gp,-1920 # 40000000 <__BSS_END__>
80000116:	345000ef          	jal	ra,80000c5a <memcpy>

    memcpy((void*)&__init_array_target_start,
              (const void*)&__init_array_source_start,
              (&__init_array_target_end - &__init_array_target_start));
8000011a:	88018713          	addi	a4,gp,-1920 # 40000000 <__BSS_END__>
8000011e:	88018793          	addi	a5,gp,-1920 # 40000000 <__BSS_END__>
80000122:	40f707b3          	sub	a5,a4,a5
    memcpy((void*)&__init_array_target_start,
80000126:	863e                	mv	a2,a5
80000128:	800017b7          	lui	a5,0x80001
8000012c:	c8078593          	addi	a1,a5,-896 # 80000c80 <__data_source_start+0x0>
80000130:	88018513          	addi	a0,gp,-1920 # 40000000 <__BSS_END__>
80000134:	327000ef          	jal	ra,80000c5a <memcpy>

    memcpy((void*)&__fini_array_target_start,
              (const void*)&__fini_array_source_start,
              (&__fini_array_target_end - &__fini_array_target_start));
80000138:	88018713          	addi	a4,gp,-1920 # 40000000 <__BSS_END__>
8000013c:	88018793          	addi	a5,gp,-1920 # 40000000 <__BSS_END__>
80000140:	40f707b3          	sub	a5,a4,a5
    memcpy((void*)&__fini_array_target_start,
80000144:	863e                	mv	a2,a5
80000146:	800017b7          	lui	a5,0x80001
8000014a:	c8078593          	addi	a1,a5,-896 # 80000c80 <__data_source_start+0x0>
8000014e:	88018513          	addi	a0,gp,-1920 # 40000000 <__BSS_END__>
80000152:	309000ef          	jal	ra,80000c5a <memcpy>

    // init functions for cpp
    for (uint32_t i = 0; i < ((uint32_t) (&__init_array_target_end - &__init_array_target_start)) >> 2; i++)
80000156:	fe042623          	sw	zero,-20(s0)
8000015a:	a839                	j	80000178 <plf_init_generic+0xba>
    	((void (*)())((uint32_t*)&__init_array_target_start)[i])();
8000015c:	fec42783          	lw	a5,-20(s0)
80000160:	00279713          	slli	a4,a5,0x2
80000164:	88018793          	addi	a5,gp,-1920 # 40000000 <__BSS_END__>
80000168:	97ba                	add	a5,a5,a4
8000016a:	439c                	lw	a5,0(a5)
8000016c:	9782                	jalr	a5
    for (uint32_t i = 0; i < ((uint32_t) (&__init_array_target_end - &__init_array_target_start)) >> 2; i++)
8000016e:	fec42783          	lw	a5,-20(s0)
80000172:	0785                	addi	a5,a5,1
80000174:	fef42623          	sw	a5,-20(s0)
80000178:	88018713          	addi	a4,gp,-1920 # 40000000 <__BSS_END__>
8000017c:	88018793          	addi	a5,gp,-1920 # 40000000 <__BSS_END__>
80000180:	40f707b3          	sub	a5,a4,a5
80000184:	8389                	srli	a5,a5,0x2
80000186:	fec42703          	lw	a4,-20(s0)
8000018a:	fcf769e3          	bltu	a4,a5,8000015c <plf_init_generic+0x9e>
}
8000018e:	0001                	nop
80000190:	0001                	nop
80000192:	40f2                	lw	ra,28(sp)
80000194:	4462                	lw	s0,24(sp)
80000196:	6105                	addi	sp,sp,32
80000198:	8082                	ret
8000019a:	0000                	unimp
8000019c:	0000                	unimp
	...

Disassembly of section .text.crt:

800001c0 <trap_entry>:
    .section ".text.crt.trap_entry","ax",@progbits
    .align 6
    .type trap_entry, @function
trap_entry:
    ## save context
    context_save
800001c0:	fe512e23          	sw	t0,-4(sp)
800001c4:	00010293          	mv	t0,sp
800001c8:	f8010113          	addi	sp,sp,-128
800001cc:	ff017113          	andi	sp,sp,-16
800001d0:	00112223          	sw	ra,4(sp)
800001d4:	00512423          	sw	t0,8(sp)
800001d8:	ffc2a283          	lw	t0,-4(t0)
800001dc:	00312623          	sw	gp,12(sp)
800001e0:	00412823          	sw	tp,16(sp)
800001e4:	00512a23          	sw	t0,20(sp)
800001e8:	00612c23          	sw	t1,24(sp)
800001ec:	00712e23          	sw	t2,28(sp)
800001f0:	02812023          	sw	s0,32(sp)
800001f4:	02912223          	sw	s1,36(sp)
800001f8:	02a12423          	sw	a0,40(sp)
800001fc:	02b12623          	sw	a1,44(sp)
80000200:	02c12823          	sw	a2,48(sp)
80000204:	02d12a23          	sw	a3,52(sp)
80000208:	02e12c23          	sw	a4,56(sp)
8000020c:	02f12e23          	sw	a5,60(sp)
80000210:	05012023          	sw	a6,64(sp)
80000214:	05112223          	sw	a7,68(sp)
80000218:	05212423          	sw	s2,72(sp)
8000021c:	05312623          	sw	s3,76(sp)
80000220:	05412823          	sw	s4,80(sp)
80000224:	05512a23          	sw	s5,84(sp)
80000228:	05612c23          	sw	s6,88(sp)
8000022c:	05712e23          	sw	s7,92(sp)
80000230:	07812023          	sw	s8,96(sp)
80000234:	07912223          	sw	s9,100(sp)
80000238:	07a12423          	sw	s10,104(sp)
8000023c:	07b12623          	sw	s11,108(sp)
80000240:	07c12823          	sw	t3,112(sp)
80000244:	07d12a23          	sw	t4,116(sp)
80000248:	07e12c23          	sw	t5,120(sp)
8000024c:	07f12e23          	sw	t6,124(sp)
80000250:	34002273          	csrr	tp,mscratch
80000254:	34102373          	csrr	t1,mepc
80000258:	00612023          	sw	t1,0(sp)
    ## save mstatus priv stack
    csrr s0, mstatus
8000025c:	30002473          	csrr	s0,mstatus
    ## load trap handler args
    csrr a0, mcause
80000260:	34202573          	csrr	a0,mcause
    csrr a1, mepc
80000264:	341025f3          	csrr	a1,mepc
    mv   a2, sp
80000268:	00010613          	mv	a2,sp

    ## setup gp
    load_addrword_abs gp, __global_pointer$
8000026c:	400001b7          	lui	gp,0x40000
80000270:	78018193          	addi	gp,gp,1920 # 40000780 <__global_pointer$>
    ## call trap handler
    load_addrword t0, trap_handler
80000274:	800002b7          	lui	t0,0x80000
80000278:	08c28293          	addi	t0,t0,140 # 8000008c <__data_source_start+0xfffff40c>
    jalr t0
8000027c:	000280e7          	jalr	t0

    ## restore mstatus priv stack
    csrw mstatus, s0
80000280:	30041073          	csrw	mstatus,s0
    ## restore context
    context_restore
80000284:	00012303          	lw	t1,0(sp)
80000288:	34131073          	csrw	mepc,t1
8000028c:	00c12183          	lw	gp,12(sp)
80000290:	01012203          	lw	tp,16(sp)
80000294:	01412283          	lw	t0,20(sp)
80000298:	01812303          	lw	t1,24(sp)
8000029c:	01c12383          	lw	t2,28(sp)
800002a0:	02012403          	lw	s0,32(sp)
800002a4:	02412483          	lw	s1,36(sp)
800002a8:	02812503          	lw	a0,40(sp)
800002ac:	02c12583          	lw	a1,44(sp)
800002b0:	03012603          	lw	a2,48(sp)
800002b4:	03412683          	lw	a3,52(sp)
800002b8:	03812703          	lw	a4,56(sp)
800002bc:	03c12783          	lw	a5,60(sp)
800002c0:	04012803          	lw	a6,64(sp)
800002c4:	04412883          	lw	a7,68(sp)
800002c8:	04812903          	lw	s2,72(sp)
800002cc:	04c12983          	lw	s3,76(sp)
800002d0:	05012a03          	lw	s4,80(sp)
800002d4:	05412a83          	lw	s5,84(sp)
800002d8:	05812b03          	lw	s6,88(sp)
800002dc:	05c12b83          	lw	s7,92(sp)
800002e0:	06012c03          	lw	s8,96(sp)
800002e4:	06412c83          	lw	s9,100(sp)
800002e8:	06812d03          	lw	s10,104(sp)
800002ec:	06c12d83          	lw	s11,108(sp)
800002f0:	07012e03          	lw	t3,112(sp)
800002f4:	07412e83          	lw	t4,116(sp)
800002f8:	07812f03          	lw	t5,120(sp)
800002fc:	07c12f83          	lw	t6,124(sp)
80000300:	00412083          	lw	ra,4(sp)
80000304:	00812103          	lw	sp,8(sp)
    mret
80000308:	30200073          	mret
	...

Disassembly of section .text:

80000344 <bl_proto_send>:
#include "../include/bl_config.h"
#include "../include/bl_hal.h"
#include <stdint.h>
#include <stdbool.h>

static void bl_proto_send(uint8_t code) {
80000344:	1101                	addi	sp,sp,-32
80000346:	ce06                	sw	ra,28(sp)
80000348:	cc22                	sw	s0,24(sp)
8000034a:	1000                	addi	s0,sp,32
8000034c:	87aa                	mv	a5,a0
8000034e:	fef407a3          	sb	a5,-17(s0)
    bl_hal_uart_putc(code);
80000352:	fef44783          	lbu	a5,-17(s0)
80000356:	853e                	mv	a0,a5
80000358:	2311                	jal	8000085c <bl_hal_uart_putc>
}
8000035a:	0001                	nop
8000035c:	40f2                	lw	ra,28(sp)
8000035e:	4462                	lw	s0,24(sp)
80000360:	6105                	addi	sp,sp,32
80000362:	8082                	ret

80000364 <bl_proto_receive_header>:

static bool bl_proto_receive_header(uint32_t timeout_ms, bl_app_header_t* out_hdr) {
80000364:	1101                	addi	sp,sp,-32
80000366:	ce06                	sw	ra,28(sp)
80000368:	cc22                	sw	s0,24(sp)
8000036a:	1000                	addi	s0,sp,32
8000036c:	fea42623          	sw	a0,-20(s0)
80000370:	feb42423          	sw	a1,-24(s0)
    return bl_hal_uart_get((uint8_t*)out_hdr, (uint32_t)sizeof(*out_hdr), timeout_ms);
80000374:	fec42603          	lw	a2,-20(s0)
80000378:	45a1                	li	a1,8
8000037a:	fe842503          	lw	a0,-24(s0)
8000037e:	2339                	jal	8000088c <bl_hal_uart_get>
80000380:	87aa                	mv	a5,a0
}
80000382:	853e                	mv	a0,a5
80000384:	40f2                	lw	ra,28(sp)
80000386:	4462                	lw	s0,24(sp)
80000388:	6105                	addi	sp,sp,32
8000038a:	8082                	ret

8000038c <bl_flash_program_image>:

static int bl_flash_program_image(const bl_app_header_t* hdr) {
8000038c:	7169                	addi	sp,sp,-304
8000038e:	12112623          	sw	ra,300(sp)
80000392:	12812423          	sw	s0,296(sp)
80000396:	1a00                	addi	s0,sp,304
80000398:	eca42e23          	sw	a0,-292(s0)
    uint32_t left;
    uint32_t wr_addr;
    uint32_t chunk;
    uint32_t image_total;

    image_total = hdr->image_size + (uint32_t)sizeof(bl_app_header_t);
8000039c:	edc42783          	lw	a5,-292(s0)
800003a0:	439c                	lw	a5,0(a5)
800003a2:	07a1                	addi	a5,a5,8
800003a4:	fef42223          	sw	a5,-28(s0)
    if (!bl_hal_flash_erase_range(APP_HEADER_ADDR, image_total)) {
800003a8:	fe442583          	lw	a1,-28(s0)
800003ac:	80002537          	lui	a0,0x80002
800003b0:	2369                	jal	8000093a <bl_hal_flash_erase_range>
800003b2:	87aa                	mv	a5,a0
800003b4:	0017c793          	xori	a5,a5,1
800003b8:	0ff7f793          	zext.b	a5,a5
800003bc:	c399                	beqz	a5,800003c2 <bl_flash_program_image+0x36>
        return (int)BL_PROTO_ERR_WAIT_ERASE_PAGE;
800003be:	47ad                	li	a5,11
800003c0:	a84d                	j	80000472 <bl_flash_program_image+0xe6>
    }

    left = hdr->image_size;
800003c2:	edc42783          	lw	a5,-292(s0)
800003c6:	439c                	lw	a5,0(a5)
800003c8:	fef42623          	sw	a5,-20(s0)
    wr_addr = APP_PAYLOAD_ADDR;
800003cc:	800027b7          	lui	a5,0x80002
800003d0:	07a1                	addi	a5,a5,8 # 80002008 <_tdata_start+0x1388>
800003d2:	fef42423          	sw	a5,-24(s0)
    while (left > 0u) {
800003d6:	a8a5                	j	8000044e <bl_flash_program_image+0xc2>
        chunk = (left > (uint32_t)sizeof(buf)) ? (uint32_t)sizeof(buf) : left;
800003d8:	fec42783          	lw	a5,-20(s0)
800003dc:	10000713          	li	a4,256
800003e0:	00f77463          	bgeu	a4,a5,800003e8 <bl_flash_program_image+0x5c>
800003e4:	10000793          	li	a5,256
800003e8:	fef42023          	sw	a5,-32(s0)
        if (!bl_hal_uart_get(buf, chunk, BL_UPDATE_WAIT_TIMEOUT_MS)) {
800003ec:	ee040793          	addi	a5,s0,-288
800003f0:	1f400613          	li	a2,500
800003f4:	fe042583          	lw	a1,-32(s0)
800003f8:	853e                	mv	a0,a5
800003fa:	2949                	jal	8000088c <bl_hal_uart_get>
800003fc:	87aa                	mv	a5,a0
800003fe:	0017c793          	xori	a5,a5,1
80000402:	0ff7f793          	zext.b	a5,a5
80000406:	c399                	beqz	a5,8000040c <bl_flash_program_image+0x80>
            return (int)BL_PROTO_ERR_RECEIVE;
80000408:	4791                	li	a5,4
8000040a:	a0a5                	j	80000472 <bl_flash_program_image+0xe6>
        }
        if (!bl_hal_flash_write(wr_addr, buf, chunk)) {
8000040c:	ee040793          	addi	a5,s0,-288
80000410:	fe042603          	lw	a2,-32(s0)
80000414:	85be                	mv	a1,a5
80000416:	fe842503          	lw	a0,-24(s0)
8000041a:	234d                	jal	800009bc <bl_hal_flash_write>
8000041c:	87aa                	mv	a5,a0
8000041e:	0017c793          	xori	a5,a5,1
80000422:	0ff7f793          	zext.b	a5,a5
80000426:	c399                	beqz	a5,8000042c <bl_flash_program_image+0xa0>
            return (int)BL_PROTO_ERR_WAIT_WRITE_PAGE;
80000428:	479d                	li	a5,7
8000042a:	a0a1                	j	80000472 <bl_flash_program_image+0xe6>
        }
        wr_addr += chunk;
8000042c:	fe842703          	lw	a4,-24(s0)
80000430:	fe042783          	lw	a5,-32(s0)
80000434:	97ba                	add	a5,a5,a4
80000436:	fef42423          	sw	a5,-24(s0)
        left -= chunk;
8000043a:	fec42703          	lw	a4,-20(s0)
8000043e:	fe042783          	lw	a5,-32(s0)
80000442:	40f707b3          	sub	a5,a4,a5
80000446:	fef42623          	sw	a5,-20(s0)
        bl_proto_send(BL_PROTO_REPLY_ACK);
8000044a:	4509                	li	a0,2
8000044c:	3de5                	jal	80000344 <bl_proto_send>
    while (left > 0u) {
8000044e:	fec42783          	lw	a5,-20(s0)
80000452:	f3d9                	bnez	a5,800003d8 <bl_flash_program_image+0x4c>
    }

    if (!bl_hal_flash_write(APP_HEADER_ADDR, (const uint8_t*)hdr, (uint32_t)sizeof(*hdr))) {
80000454:	4621                	li	a2,8
80000456:	edc42583          	lw	a1,-292(s0)
8000045a:	80002537          	lui	a0,0x80002
8000045e:	2bb9                	jal	800009bc <bl_hal_flash_write>
80000460:	87aa                	mv	a5,a0
80000462:	0017c793          	xori	a5,a5,1
80000466:	0ff7f793          	zext.b	a5,a5
8000046a:	c399                	beqz	a5,80000470 <bl_flash_program_image+0xe4>
        return (int)BL_PROTO_ERR_WAIT_WRITE_PAGE;
8000046c:	479d                	li	a5,7
8000046e:	a011                	j	80000472 <bl_flash_program_image+0xe6>
    }

    return 0;
80000470:	4781                	li	a5,0
}
80000472:	853e                	mv	a0,a5
80000474:	12c12083          	lw	ra,300(sp)
80000478:	12812403          	lw	s0,296(sp)
8000047c:	6155                	addi	sp,sp,304
8000047e:	8082                	ret

80000480 <bl_update_requested>:

static int bl_update_requested(void) {
80000480:	1141                	addi	sp,sp,-16
80000482:	c622                	sw	s0,12(sp)
80000484:	0800                	addi	s0,sp,16
    /* TODO: add button/flag/UART request logic with timeout. */
    return 0;
80000486:	4781                	li	a5,0
}
80000488:	853e                	mv	a0,a5
8000048a:	4432                	lw	s0,12(sp)
8000048c:	0141                	addi	sp,sp,16
8000048e:	8082                	ret

80000490 <bl_receive_and_program>:

static int bl_receive_and_program(void) {
80000490:	1101                	addi	sp,sp,-32
80000492:	ce06                	sw	ra,28(sp)
80000494:	cc22                	sw	s0,24(sp)
80000496:	1000                	addi	s0,sp,32
    bl_app_header_t hdr;
    int rc;

    if (!bl_proto_receive_header(BL_UPDATE_WAIT_TIMEOUT_MS, &hdr)) {
80000498:	fe440793          	addi	a5,s0,-28
8000049c:	85be                	mv	a1,a5
8000049e:	1f400513          	li	a0,500
800004a2:	35c9                	jal	80000364 <bl_proto_receive_header>
800004a4:	87aa                	mv	a5,a0
800004a6:	0017c793          	xori	a5,a5,1
800004aa:	0ff7f793          	zext.b	a5,a5
800004ae:	c399                	beqz	a5,800004b4 <bl_receive_and_program+0x24>
        return (int)BL_PROTO_ERR_RECEIVE;
800004b0:	4791                	li	a5,4
800004b2:	a899                	j	80000508 <bl_receive_and_program+0x78>
    }

    if (!bl_image_header_is_valid(&hdr)) {
800004b4:	fe440793          	addi	a5,s0,-28
800004b8:	853e                	mv	a0,a5
800004ba:	2bd1                	jal	80000a8e <bl_image_header_is_valid>
800004bc:	87aa                	mv	a5,a0
800004be:	0017c793          	xori	a5,a5,1
800004c2:	0ff7f793          	zext.b	a5,a5
800004c6:	c399                	beqz	a5,800004cc <bl_receive_and_program+0x3c>
        return (int)BL_PROTO_ERR_TOO_BIG;
800004c8:	478d                	li	a5,3
800004ca:	a83d                	j	80000508 <bl_receive_and_program+0x78>
    }

    bl_proto_send(BL_PROTO_REPLY_ACK);
800004cc:	4509                	li	a0,2
800004ce:	3d9d                	jal	80000344 <bl_proto_send>

    rc = bl_flash_program_image(&hdr);
800004d0:	fe440793          	addi	a5,s0,-28
800004d4:	853e                	mv	a0,a5
800004d6:	3d5d                	jal	8000038c <bl_flash_program_image>
800004d8:	fea42623          	sw	a0,-20(s0)
    if (rc != 0) {
800004dc:	fec42783          	lw	a5,-20(s0)
800004e0:	c781                	beqz	a5,800004e8 <bl_receive_and_program+0x58>
        return rc;
800004e2:	fec42783          	lw	a5,-20(s0)
800004e6:	a00d                	j	80000508 <bl_receive_and_program+0x78>
    }

    if (!bl_image_is_valid() || bl_image_get_size() != hdr.image_size) {
800004e8:	23c5                	jal	80000ac8 <bl_image_is_valid>
800004ea:	87aa                	mv	a5,a0
800004ec:	0017c793          	xori	a5,a5,1
800004f0:	0ff7f793          	zext.b	a5,a5
800004f4:	e799                	bnez	a5,80000502 <bl_receive_and_program+0x72>
800004f6:	253d                	jal	80000b24 <bl_image_get_size>
800004f8:	872a                	mv	a4,a0
800004fa:	fe442783          	lw	a5,-28(s0)
800004fe:	00f70463          	beq	a4,a5,80000506 <bl_receive_and_program+0x76>
        return (int)BL_PROTO_ERR_CRC32;
80000502:	4799                	li	a5,6
80000504:	a011                	j	80000508 <bl_receive_and_program+0x78>
    }

    return 0;
80000506:	4781                	li	a5,0
}
80000508:	853e                	mv	a0,a5
8000050a:	40f2                	lw	ra,28(sp)
8000050c:	4462                	lw	s0,24(sp)
8000050e:	6105                	addi	sp,sp,32
80000510:	8082                	ret

80000512 <bl_enter_update_mode>:

static void bl_enter_update_mode(void) {
80000512:	1101                	addi	sp,sp,-32
80000514:	ce06                	sw	ra,28(sp)
80000516:	cc22                	sw	s0,24(sp)
80000518:	1000                	addi	s0,sp,32
    int rc;

    for (;;) {
        bl_proto_send(BL_PROTO_REPLY_WAITING);
8000051a:	4505                	li	a0,1
8000051c:	3525                	jal	80000344 <bl_proto_send>
        rc = bl_receive_and_program();
8000051e:	3f8d                	jal	80000490 <bl_receive_and_program>
80000520:	fea42623          	sw	a0,-20(s0)
        if (rc == 0) {
80000524:	fec42783          	lw	a5,-20(s0)
80000528:	eb81                	bnez	a5,80000538 <bl_enter_update_mode+0x26>
            bl_proto_send(BL_PROTO_REPLY_ACK);
8000052a:	4509                	li	a0,2
8000052c:	3d21                	jal	80000344 <bl_proto_send>
            bl_jump_to_app(APP_ENTRY_ADDR);
8000052e:	800027b7          	lui	a5,0x80002
80000532:	00878513          	addi	a0,a5,8 # 80002008 <_tdata_start+0x1388>
80000536:	25e9                	jal	80000c00 <bl_jump_to_app>
        }
        bl_proto_send((uint8_t)rc);
80000538:	fec42783          	lw	a5,-20(s0)
8000053c:	0ff7f793          	zext.b	a5,a5
80000540:	853e                	mv	a0,a5
80000542:	3509                	jal	80000344 <bl_proto_send>
        bl_proto_send(BL_PROTO_REPLY_WAITING);
80000544:	bfd9                	j	8000051a <bl_enter_update_mode+0x8>

80000546 <main>:
    }
}

int main(void) {
80000546:	1141                	addi	sp,sp,-16
80000548:	c606                	sw	ra,12(sp)
8000054a:	c422                	sw	s0,8(sp)
8000054c:	0800                	addi	s0,sp,16
    bl_hal_init();
8000054e:	2c01                	jal	8000075e <bl_hal_init>
    bl_trap_init();
80000550:	2dd1                	jal	80000c24 <bl_trap_init>

    if (bl_update_requested()) {
80000552:	373d                	jal	80000480 <bl_update_requested>
80000554:	87aa                	mv	a5,a0
80000556:	c391                	beqz	a5,8000055a <main+0x14>
        bl_enter_update_mode();
80000558:	3f6d                	jal	80000512 <bl_enter_update_mode>
    }

    if (bl_image_is_valid()) {
8000055a:	23bd                	jal	80000ac8 <bl_image_is_valid>
8000055c:	87aa                	mv	a5,a0
8000055e:	c791                	beqz	a5,8000056a <main+0x24>
        bl_jump_to_app(APP_ENTRY_ADDR);
80000560:	800027b7          	lui	a5,0x80002
80000564:	00878513          	addi	a0,a5,8 # 80002008 <_tdata_start+0x1388>
80000568:	2d61                	jal	80000c00 <bl_jump_to_app>
    }

    bl_enter_update_mode();
8000056a:	3765                	jal	80000512 <bl_enter_update_mode>
    return 0; /* unreachable */
8000056c:	4781                	li	a5,0
}
8000056e:	853e                	mv	a0,a5
80000570:	40b2                	lw	ra,12(sp)
80000572:	4422                	lw	s0,8(sp)
80000574:	0141                	addi	sp,sp,16
80000576:	8082                	ret

80000578 <bl_flash_wait_ready>:
#define BL_UART_CLOCK_HZ               ((uint32_t)50000000u)
#define BL_FLASH_WAIT_ERASE_LOOPS      ((uint32_t)2000000u)
#define BL_FLASH_WAIT_WRITE_LOOPS      ((uint32_t)200000u)
#define BL_UART_TIMEOUT_LOOPS_PER_MS   ((uint32_t)2000u)

static bool bl_flash_wait_ready(uint32_t loops) {
80000578:	1101                	addi	sp,sp,-32
8000057a:	ce22                	sw	s0,28(sp)
8000057c:	1000                	addi	s0,sp,32
8000057e:	fea42623          	sw	a0,-20(s0)
    while (loops > 0u) {
80000582:	a829                	j	8000059c <bl_flash_wait_ready+0x24>
        if ((FLASH->STAT & FLASH_STAT_BUSY_Msk) == 0u) {
80000584:	3000d7b7          	lui	a5,0x3000d
80000588:	47bc                	lw	a5,72(a5)
8000058a:	8b85                	andi	a5,a5,1
8000058c:	e399                	bnez	a5,80000592 <bl_flash_wait_ready+0x1a>
            return true;
8000058e:	4785                	li	a5,1
80000590:	a811                	j	800005a4 <bl_flash_wait_ready+0x2c>
        }
        --loops;
80000592:	fec42783          	lw	a5,-20(s0)
80000596:	17fd                	addi	a5,a5,-1 # 3000cfff <STACK_SIZE+0x3000c7ff>
80000598:	fef42623          	sw	a5,-20(s0)
    while (loops > 0u) {
8000059c:	fec42783          	lw	a5,-20(s0)
800005a0:	f3f5                	bnez	a5,80000584 <bl_flash_wait_ready+0xc>
    }
    return false;
800005a2:	4781                	li	a5,0
}
800005a4:	853e                	mv	a0,a5
800005a6:	4472                	lw	s0,28(sp)
800005a8:	6105                	addi	sp,sp,32
800005aa:	8082                	ret

800005ac <bl_flash_offs>:

static uint32_t bl_flash_offs(uint32_t abs_addr) {
800005ac:	1101                	addi	sp,sp,-32
800005ae:	ce22                	sw	s0,28(sp)
800005b0:	1000                	addi	s0,sp,32
800005b2:	fea42623          	sw	a0,-20(s0)
    return (abs_addr - MEM_FLASH_BASE);
800005b6:	fec42703          	lw	a4,-20(s0)
800005ba:	800007b7          	lui	a5,0x80000
800005be:	97ba                	add	a5,a5,a4
}
800005c0:	853e                	mv	a0,a5
800005c2:	4472                	lw	s0,28(sp)
800005c4:	6105                	addi	sp,sp,32
800005c6:	8082                	ret

800005c8 <bl_flash_erase_page>:

static bool bl_flash_erase_page(uint32_t abs_addr) {
800005c8:	1101                	addi	sp,sp,-32
800005ca:	ce06                	sw	ra,28(sp)
800005cc:	cc22                	sw	s0,24(sp)
800005ce:	ca26                	sw	s1,20(sp)
800005d0:	1000                	addi	s0,sp,32
800005d2:	fea42623          	sw	a0,-20(s0)
    FLASH->ADDR = bl_flash_offs(abs_addr);
800005d6:	3000d4b7          	lui	s1,0x3000d
800005da:	fec42503          	lw	a0,-20(s0)
800005de:	37f9                	jal	800005ac <bl_flash_offs>
800005e0:	87aa                	mv	a5,a0
800005e2:	c09c                	sw	a5,0(s1)
    FLASH->CMD = ((uint32_t)FLASH_CMD_KEY_Access << FLASH_CMD_KEY_Pos) | FLASH_CMD_ERSEC_Msk;
800005e4:	3000d7b7          	lui	a5,0x3000d
800005e8:	c0de0737          	lui	a4,0xc0de0
800005ec:	0711                	addi	a4,a4,4 # c0de0004 <_tdata_start+0x40ddf384>
800005ee:	c3f8                	sw	a4,68(a5)
    return bl_flash_wait_ready(BL_FLASH_WAIT_ERASE_LOOPS);
800005f0:	001e87b7          	lui	a5,0x1e8
800005f4:	48078513          	addi	a0,a5,1152 # 1e8480 <STACK_SIZE+0x1e7c80>
800005f8:	3741                	jal	80000578 <bl_flash_wait_ready>
800005fa:	87aa                	mv	a5,a0
}
800005fc:	853e                	mv	a0,a5
800005fe:	40f2                	lw	ra,28(sp)
80000600:	4462                	lw	s0,24(sp)
80000602:	44d2                	lw	s1,20(sp)
80000604:	6105                	addi	sp,sp,32
80000606:	8082                	ret

80000608 <bl_flash_write16>:

static bool bl_flash_write16(uint32_t abs_addr, const uint8_t* data, uint32_t len) {
80000608:	715d                	addi	sp,sp,-80
8000060a:	c686                	sw	ra,76(sp)
8000060c:	c4a2                	sw	s0,72(sp)
8000060e:	c2a6                	sw	s1,68(sp)
80000610:	0880                	addi	s0,sp,80
80000612:	faa42e23          	sw	a0,-68(s0)
80000616:	fab42c23          	sw	a1,-72(s0)
8000061a:	fac42a23          	sw	a2,-76(s0)
    uint32_t word1;
    uint32_t word2;
    uint32_t word3;
    uint32_t i;

    for (i = 0u; i < 16u; ++i) {
8000061e:	fe042623          	sw	zero,-20(s0)
80000622:	a829                	j	8000063c <bl_flash_write16+0x34>
        tmp[i] = 0xFFu;
80000624:	fec42783          	lw	a5,-20(s0)
80000628:	17c1                	addi	a5,a5,-16
8000062a:	97a2                	add	a5,a5,s0
8000062c:	577d                	li	a4,-1
8000062e:	fce78e23          	sb	a4,-36(a5)
    for (i = 0u; i < 16u; ++i) {
80000632:	fec42783          	lw	a5,-20(s0)
80000636:	0785                	addi	a5,a5,1
80000638:	fef42623          	sw	a5,-20(s0)
8000063c:	fec42703          	lw	a4,-20(s0)
80000640:	47bd                	li	a5,15
80000642:	fee7f1e3          	bgeu	a5,a4,80000624 <bl_flash_write16+0x1c>
    }
    for (i = 0u; i < len; ++i) {
80000646:	fe042623          	sw	zero,-20(s0)
8000064a:	a01d                	j	80000670 <bl_flash_write16+0x68>
        tmp[i] = data[i];
8000064c:	fb842703          	lw	a4,-72(s0)
80000650:	fec42783          	lw	a5,-20(s0)
80000654:	97ba                	add	a5,a5,a4
80000656:	0007c703          	lbu	a4,0(a5)
8000065a:	fec42783          	lw	a5,-20(s0)
8000065e:	17c1                	addi	a5,a5,-16
80000660:	97a2                	add	a5,a5,s0
80000662:	fce78e23          	sb	a4,-36(a5)
    for (i = 0u; i < len; ++i) {
80000666:	fec42783          	lw	a5,-20(s0)
8000066a:	0785                	addi	a5,a5,1
8000066c:	fef42623          	sw	a5,-20(s0)
80000670:	fec42703          	lw	a4,-20(s0)
80000674:	fb442783          	lw	a5,-76(s0)
80000678:	fcf76ae3          	bltu	a4,a5,8000064c <bl_flash_write16+0x44>
    }

    word0 = ((uint32_t)tmp[0]) | ((uint32_t)tmp[1] << 8) | ((uint32_t)tmp[2] << 16) | ((uint32_t)tmp[3] << 24);
8000067c:	fcc44783          	lbu	a5,-52(s0)
80000680:	873e                	mv	a4,a5
80000682:	fcd44783          	lbu	a5,-51(s0)
80000686:	07a2                	slli	a5,a5,0x8
80000688:	8f5d                	or	a4,a4,a5
8000068a:	fce44783          	lbu	a5,-50(s0)
8000068e:	07c2                	slli	a5,a5,0x10
80000690:	8f5d                	or	a4,a4,a5
80000692:	fcf44783          	lbu	a5,-49(s0)
80000696:	07e2                	slli	a5,a5,0x18
80000698:	8fd9                	or	a5,a5,a4
8000069a:	fef42423          	sw	a5,-24(s0)
    word1 = ((uint32_t)tmp[4]) | ((uint32_t)tmp[5] << 8) | ((uint32_t)tmp[6] << 16) | ((uint32_t)tmp[7] << 24);
8000069e:	fd044783          	lbu	a5,-48(s0)
800006a2:	873e                	mv	a4,a5
800006a4:	fd144783          	lbu	a5,-47(s0)
800006a8:	07a2                	slli	a5,a5,0x8
800006aa:	8f5d                	or	a4,a4,a5
800006ac:	fd244783          	lbu	a5,-46(s0)
800006b0:	07c2                	slli	a5,a5,0x10
800006b2:	8f5d                	or	a4,a4,a5
800006b4:	fd344783          	lbu	a5,-45(s0)
800006b8:	07e2                	slli	a5,a5,0x18
800006ba:	8fd9                	or	a5,a5,a4
800006bc:	fef42223          	sw	a5,-28(s0)
    word2 = ((uint32_t)tmp[8]) | ((uint32_t)tmp[9] << 8) | ((uint32_t)tmp[10] << 16) | ((uint32_t)tmp[11] << 24);
800006c0:	fd444783          	lbu	a5,-44(s0)
800006c4:	873e                	mv	a4,a5
800006c6:	fd544783          	lbu	a5,-43(s0)
800006ca:	07a2                	slli	a5,a5,0x8
800006cc:	8f5d                	or	a4,a4,a5
800006ce:	fd644783          	lbu	a5,-42(s0)
800006d2:	07c2                	slli	a5,a5,0x10
800006d4:	8f5d                	or	a4,a4,a5
800006d6:	fd744783          	lbu	a5,-41(s0)
800006da:	07e2                	slli	a5,a5,0x18
800006dc:	8fd9                	or	a5,a5,a4
800006de:	fef42023          	sw	a5,-32(s0)
    word3 = ((uint32_t)tmp[12]) | ((uint32_t)tmp[13] << 8) | ((uint32_t)tmp[14] << 16) | ((uint32_t)tmp[15] << 24);
800006e2:	fd844783          	lbu	a5,-40(s0)
800006e6:	873e                	mv	a4,a5
800006e8:	fd944783          	lbu	a5,-39(s0)
800006ec:	07a2                	slli	a5,a5,0x8
800006ee:	8f5d                	or	a4,a4,a5
800006f0:	fda44783          	lbu	a5,-38(s0)
800006f4:	07c2                	slli	a5,a5,0x10
800006f6:	8f5d                	or	a4,a4,a5
800006f8:	fdb44783          	lbu	a5,-37(s0)
800006fc:	07e2                	slli	a5,a5,0x18
800006fe:	8fd9                	or	a5,a5,a4
80000700:	fcf42e23          	sw	a5,-36(s0)

    FLASH->DATA[0].DATA = word0;
80000704:	3000d7b7          	lui	a5,0x3000d
80000708:	fe842703          	lw	a4,-24(s0)
8000070c:	c3d8                	sw	a4,4(a5)
    FLASH->DATA[1].DATA = word1;
8000070e:	3000d7b7          	lui	a5,0x3000d
80000712:	fe442703          	lw	a4,-28(s0)
80000716:	c798                	sw	a4,8(a5)
    FLASH->DATA[2].DATA = word2;
80000718:	3000d7b7          	lui	a5,0x3000d
8000071c:	fe042703          	lw	a4,-32(s0)
80000720:	c7d8                	sw	a4,12(a5)
    FLASH->DATA[3].DATA = word3;
80000722:	3000d7b7          	lui	a5,0x3000d
80000726:	fdc42703          	lw	a4,-36(s0)
8000072a:	cb98                	sw	a4,16(a5)
    FLASH->ADDR = bl_flash_offs(abs_addr);
8000072c:	3000d4b7          	lui	s1,0x3000d
80000730:	fbc42503          	lw	a0,-68(s0)
80000734:	3da5                	jal	800005ac <bl_flash_offs>
80000736:	87aa                	mv	a5,a0
80000738:	c09c                	sw	a5,0(s1)
    FLASH->CMD = ((uint32_t)FLASH_CMD_KEY_Access << FLASH_CMD_KEY_Pos) | FLASH_CMD_WR_Msk;
8000073a:	3000d7b7          	lui	a5,0x3000d
8000073e:	c0de0737          	lui	a4,0xc0de0
80000742:	0709                	addi	a4,a4,2 # c0de0002 <_tdata_start+0x40ddf382>
80000744:	c3f8                	sw	a4,68(a5)
    return bl_flash_wait_ready(BL_FLASH_WAIT_WRITE_LOOPS);
80000746:	000317b7          	lui	a5,0x31
8000074a:	d4078513          	addi	a0,a5,-704 # 30d40 <STACK_SIZE+0x30540>
8000074e:	352d                	jal	80000578 <bl_flash_wait_ready>
80000750:	87aa                	mv	a5,a0
}
80000752:	853e                	mv	a0,a5
80000754:	40b6                	lw	ra,76(sp)
80000756:	4426                	lw	s0,72(sp)
80000758:	4496                	lw	s1,68(sp)
8000075a:	6161                	addi	sp,sp,80
8000075c:	8082                	ret

8000075e <bl_hal_init>:

void bl_hal_init(void) {
8000075e:	1101                	addi	sp,sp,-32
80000760:	ce22                	sw	s0,28(sp)
80000762:	1000                	addi	s0,sp,32
    uint32_t ibrd;
    uint32_t fbrd;

    /* UART0 pins: PA0 RX, PA1 TX */
    RCU->CGCFGAHB_bit.GPIOAEN = 1;
80000764:	3000e7b7          	lui	a5,0x3000e
80000768:	0007d703          	lhu	a4,0(a5) # 3000e000 <STACK_SIZE+0x3000d800>
8000076c:	10076713          	ori	a4,a4,256
80000770:	00e79023          	sh	a4,0(a5)
    RCU->RSTDISAHB_bit.GPIOAEN = 1;
80000774:	3000e7b7          	lui	a5,0x3000e
80000778:	0107d703          	lhu	a4,16(a5) # 3000e010 <STACK_SIZE+0x3000d810>
8000077c:	10076713          	ori	a4,a4,256
80000780:	00e79823          	sh	a4,16(a5)
    GPIOA->PULLMODE &= ~(GPIO_PULLMODE_PIN0_Msk | GPIO_PULLMODE_PIN1_Msk);
80000784:	280007b7          	lui	a5,0x28000
80000788:	5398                	lw	a4,32(a5)
8000078a:	280007b7          	lui	a5,0x28000
8000078e:	9b71                	andi	a4,a4,-4
80000790:	d398                	sw	a4,32(a5)
    GPIOA->ALTFUNCNUM_bit.PIN0 = 1;
80000792:	280007b7          	lui	a5,0x28000
80000796:	5fd8                	lw	a4,60(a5)
80000798:	9b71                	andi	a4,a4,-4
8000079a:	00176713          	ori	a4,a4,1
8000079e:	dfd8                	sw	a4,60(a5)
    GPIOA->ALTFUNCNUM_bit.PIN1 = 1;
800007a0:	280007b7          	lui	a5,0x28000
800007a4:	5fd8                	lw	a4,60(a5)
800007a6:	9b4d                	andi	a4,a4,-13
800007a8:	00476713          	ori	a4,a4,4
800007ac:	dfd8                	sw	a4,60(a5)
    GPIOA->ALTFUNCSET_bit.PIN0 = 1;
800007ae:	280007b7          	lui	a5,0x28000
800007b2:	0347d703          	lhu	a4,52(a5) # 28000034 <STACK_SIZE+0x27fff834>
800007b6:	00176713          	ori	a4,a4,1
800007ba:	02e79a23          	sh	a4,52(a5)
    GPIOA->ALTFUNCSET_bit.PIN1 = 1;
800007be:	280007b7          	lui	a5,0x28000
800007c2:	0347d703          	lhu	a4,52(a5) # 28000034 <STACK_SIZE+0x27fff834>
800007c6:	00276713          	ori	a4,a4,2
800007ca:	02e79a23          	sh	a4,52(a5)

    RCU->CGCFGAPB_bit.UART0EN = 1;
800007ce:	3000e7b7          	lui	a5,0x3000e
800007d2:	4798                	lw	a4,8(a5)
800007d4:	04076713          	ori	a4,a4,64
800007d8:	c798                	sw	a4,8(a5)
    RCU->RSTDISAPB_bit.UART0EN = 1;
800007da:	3000e7b7          	lui	a5,0x3000e
800007de:	4f98                	lw	a4,24(a5)
800007e0:	04076713          	ori	a4,a4,64
800007e4:	cf98                	sw	a4,24(a5)
    RCU->UARTCLKCFG[0].UARTCLKCFG = RCU_UARTCLKCFG_CLKEN_Msk | (RCU_UARTCLKCFG_CLKSEL_PLL0 << RCU_UARTCLKCFG_CLKSEL_Pos);
800007e6:	3000e7b7          	lui	a5,0x3000e
800007ea:	00020737          	lui	a4,0x20
800007ee:	0705                	addi	a4,a4,1 # 20001 <STACK_SIZE+0x1f801>
800007f0:	dbb8                	sw	a4,112(a5)
    RCU->UARTCLKCFG[0].UARTCLKCFG_bit.RSTDIS = 1;
800007f2:	3000e7b7          	lui	a5,0x3000e
800007f6:	5bb8                	lw	a4,112(a5)
800007f8:	10076713          	ori	a4,a4,256
800007fc:	dbb8                	sw	a4,112(a5)

    ibrd = BL_UART_CLOCK_HZ / (16u * BL_UART_BAUDRATE);
800007fe:	4799                	li	a5,6
80000800:	fef42623          	sw	a5,-20(s0)
    fbrd = ((BL_UART_CLOCK_HZ - (ibrd * 16u * BL_UART_BAUDRATE)) << 6) / (16u * BL_UART_BAUDRATE);
80000804:	fec42703          	lw	a4,-20(s0)
80000808:	007087b7          	lui	a5,0x708
8000080c:	02f707b3          	mul	a5,a4,a5
80000810:	02faf737          	lui	a4,0x2faf
80000814:	08070713          	addi	a4,a4,128 # 2faf080 <STACK_SIZE+0x2fae880>
80000818:	40f707b3          	sub	a5,a4,a5
8000081c:	00679713          	slli	a4,a5,0x6
80000820:	007087b7          	lui	a5,0x708
80000824:	02f757b3          	divu	a5,a4,a5
80000828:	fef42423          	sw	a5,-24(s0)
    UART0->IBRD = ibrd;
8000082c:	300067b7          	lui	a5,0x30006
80000830:	fec42703          	lw	a4,-20(s0)
80000834:	d3d8                	sw	a4,36(a5)
    UART0->FBRD = fbrd;
80000836:	300067b7          	lui	a5,0x30006
8000083a:	fe842703          	lw	a4,-24(s0)
8000083e:	d798                	sw	a4,40(a5)
    UART0->LCRH = UART_LCRH_FEN_Msk | (UART_LCRH_WLEN_8bit << UART_LCRH_WLEN_Pos);
80000840:	300067b7          	lui	a5,0x30006
80000844:	07000713          	li	a4,112
80000848:	d7d8                	sw	a4,44(a5)
    UART0->CR = UART_CR_RXE_Msk | UART_CR_TXE_Msk | UART_CR_UARTEN_Msk;
8000084a:	300067b7          	lui	a5,0x30006
8000084e:	30100713          	li	a4,769
80000852:	db98                	sw	a4,48(a5)
}
80000854:	0001                	nop
80000856:	4472                	lw	s0,28(sp)
80000858:	6105                	addi	sp,sp,32
8000085a:	8082                	ret

8000085c <bl_hal_uart_putc>:

void bl_hal_uart_putc(uint8_t byte) {
8000085c:	1101                	addi	sp,sp,-32
8000085e:	ce22                	sw	s0,28(sp)
80000860:	1000                	addi	s0,sp,32
80000862:	87aa                	mv	a5,a0
80000864:	fef407a3          	sb	a5,-17(s0)
    while (UART0->FR_bit.TXFE == 0u) {
80000868:	0001                	nop
8000086a:	300067b7          	lui	a5,0x30006
8000086e:	4f9c                	lw	a5,24(a5)
80000870:	839d                	srli	a5,a5,0x7
80000872:	8b85                	andi	a5,a5,1
80000874:	0ff7f793          	zext.b	a5,a5
80000878:	dbed                	beqz	a5,8000086a <bl_hal_uart_putc+0xe>
    }
    UART0->DR = byte;
8000087a:	300067b7          	lui	a5,0x30006
8000087e:	fef44703          	lbu	a4,-17(s0)
80000882:	c398                	sw	a4,0(a5)
}
80000884:	0001                	nop
80000886:	4472                	lw	s0,28(sp)
80000888:	6105                	addi	sp,sp,32
8000088a:	8082                	ret

8000088c <bl_hal_uart_get>:

bool bl_hal_uart_get(uint8_t* dst, uint32_t len, uint32_t timeout_ms) {
8000088c:	7179                	addi	sp,sp,-48
8000088e:	d622                	sw	s0,44(sp)
80000890:	1800                	addi	s0,sp,48
80000892:	fca42e23          	sw	a0,-36(s0)
80000896:	fcb42c23          	sw	a1,-40(s0)
8000089a:	fcc42a23          	sw	a2,-44(s0)
    uint32_t loops;
    uint32_t left = len;
8000089e:	fd842783          	lw	a5,-40(s0)
800008a2:	fef42423          	sw	a5,-24(s0)
    uint8_t* wr = dst;
800008a6:	fdc42783          	lw	a5,-36(s0)
800008aa:	fef42223          	sw	a5,-28(s0)

    if (dst == 0) {
800008ae:	fdc42783          	lw	a5,-36(s0)
800008b2:	e399                	bnez	a5,800008b8 <bl_hal_uart_get+0x2c>
        return false;
800008b4:	4781                	li	a5,0
800008b6:	a8b5                	j	80000932 <bl_hal_uart_get+0xa6>
    }

    loops = timeout_ms * BL_UART_TIMEOUT_LOOPS_PER_MS;
800008b8:	fd442703          	lw	a4,-44(s0)
800008bc:	7d000793          	li	a5,2000
800008c0:	02f707b3          	mul	a5,a4,a5
800008c4:	fef42623          	sw	a5,-20(s0)
    while (left > 0u && loops > 0u) {
800008c8:	a889                	j	8000091a <bl_hal_uart_get+0x8e>
        if (UART0->FR_bit.RXFE == 0u) {
800008ca:	300067b7          	lui	a5,0x30006
800008ce:	4f9c                	lw	a5,24(a5)
800008d0:	8391                	srli	a5,a5,0x4
800008d2:	8b85                	andi	a5,a5,1
800008d4:	0ff7f793          	zext.b	a5,a5
800008d8:	ef85                	bnez	a5,80000910 <bl_hal_uart_get+0x84>
            *wr++ = (uint8_t)UART0->DR;
800008da:	300067b7          	lui	a5,0x30006
800008de:	4394                	lw	a3,0(a5)
800008e0:	fe442783          	lw	a5,-28(s0)
800008e4:	00178713          	addi	a4,a5,1 # 30006001 <STACK_SIZE+0x30005801>
800008e8:	fee42223          	sw	a4,-28(s0)
800008ec:	0ff6f713          	zext.b	a4,a3
800008f0:	00e78023          	sb	a4,0(a5)
            --left;
800008f4:	fe842783          	lw	a5,-24(s0)
800008f8:	17fd                	addi	a5,a5,-1
800008fa:	fef42423          	sw	a5,-24(s0)
            loops = timeout_ms * BL_UART_TIMEOUT_LOOPS_PER_MS;
800008fe:	fd442703          	lw	a4,-44(s0)
80000902:	7d000793          	li	a5,2000
80000906:	02f707b3          	mul	a5,a4,a5
8000090a:	fef42623          	sw	a5,-20(s0)
            continue;
8000090e:	a031                	j	8000091a <bl_hal_uart_get+0x8e>
        }
        --loops;
80000910:	fec42783          	lw	a5,-20(s0)
80000914:	17fd                	addi	a5,a5,-1
80000916:	fef42623          	sw	a5,-20(s0)
    while (left > 0u && loops > 0u) {
8000091a:	fe842783          	lw	a5,-24(s0)
8000091e:	c781                	beqz	a5,80000926 <bl_hal_uart_get+0x9a>
80000920:	fec42783          	lw	a5,-20(s0)
80000924:	f3dd                	bnez	a5,800008ca <bl_hal_uart_get+0x3e>
    }
    return (left == 0u);
80000926:	fe842783          	lw	a5,-24(s0)
8000092a:	0017b793          	seqz	a5,a5
8000092e:	0ff7f793          	zext.b	a5,a5
}
80000932:	853e                	mv	a0,a5
80000934:	5432                	lw	s0,44(sp)
80000936:	6145                	addi	sp,sp,48
80000938:	8082                	ret

8000093a <bl_hal_flash_erase_range>:

bool bl_hal_flash_erase_range(uint32_t abs_addr, uint32_t size_bytes) {
8000093a:	7179                	addi	sp,sp,-48
8000093c:	d606                	sw	ra,44(sp)
8000093e:	d422                	sw	s0,40(sp)
80000940:	1800                	addi	s0,sp,48
80000942:	fca42e23          	sw	a0,-36(s0)
80000946:	fcb42c23          	sw	a1,-40(s0)
    uint32_t start;
    uint32_t end;
    uint32_t addr;

    if (size_bytes == 0u) {
8000094a:	fd842783          	lw	a5,-40(s0)
8000094e:	e399                	bnez	a5,80000954 <bl_hal_flash_erase_range+0x1a>
        return true;
80000950:	4785                	li	a5,1
80000952:	a085                	j	800009b2 <bl_hal_flash_erase_range+0x78>
    }

    start = abs_addr & ~(MEM_FLASH_PAGE_SIZE - 1u);
80000954:	fdc42703          	lw	a4,-36(s0)
80000958:	77fd                	lui	a5,0xfffff
8000095a:	8ff9                	and	a5,a5,a4
8000095c:	fef42423          	sw	a5,-24(s0)
    end = (abs_addr + size_bytes + MEM_FLASH_PAGE_SIZE - 1u) & ~(MEM_FLASH_PAGE_SIZE - 1u);
80000960:	fdc42703          	lw	a4,-36(s0)
80000964:	fd842783          	lw	a5,-40(s0)
80000968:	973e                	add	a4,a4,a5
8000096a:	6785                	lui	a5,0x1
8000096c:	17fd                	addi	a5,a5,-1 # fff <STACK_SIZE+0x7ff>
8000096e:	973e                	add	a4,a4,a5
80000970:	77fd                	lui	a5,0xfffff
80000972:	8ff9                	and	a5,a5,a4
80000974:	fef42223          	sw	a5,-28(s0)

    for (addr = start; addr < end; addr += MEM_FLASH_PAGE_SIZE) {
80000978:	fe842783          	lw	a5,-24(s0)
8000097c:	fef42623          	sw	a5,-20(s0)
80000980:	a015                	j	800009a4 <bl_hal_flash_erase_range+0x6a>
        if (!bl_flash_erase_page(addr)) {
80000982:	fec42503          	lw	a0,-20(s0)
80000986:	3189                	jal	800005c8 <bl_flash_erase_page>
80000988:	87aa                	mv	a5,a0
8000098a:	0017c793          	xori	a5,a5,1
8000098e:	0ff7f793          	zext.b	a5,a5
80000992:	c399                	beqz	a5,80000998 <bl_hal_flash_erase_range+0x5e>
            return false;
80000994:	4781                	li	a5,0
80000996:	a831                	j	800009b2 <bl_hal_flash_erase_range+0x78>
    for (addr = start; addr < end; addr += MEM_FLASH_PAGE_SIZE) {
80000998:	fec42703          	lw	a4,-20(s0)
8000099c:	6785                	lui	a5,0x1
8000099e:	97ba                	add	a5,a5,a4
800009a0:	fef42623          	sw	a5,-20(s0)
800009a4:	fec42703          	lw	a4,-20(s0)
800009a8:	fe442783          	lw	a5,-28(s0)
800009ac:	fcf76be3          	bltu	a4,a5,80000982 <bl_hal_flash_erase_range+0x48>
        }
    }
    return true;
800009b0:	4785                	li	a5,1
}
800009b2:	853e                	mv	a0,a5
800009b4:	50b2                	lw	ra,44(sp)
800009b6:	5422                	lw	s0,40(sp)
800009b8:	6145                	addi	sp,sp,48
800009ba:	8082                	ret

800009bc <bl_hal_flash_write>:

bool bl_hal_flash_write(uint32_t abs_addr, const uint8_t* data, uint32_t len) {
800009bc:	7179                	addi	sp,sp,-48
800009be:	d606                	sw	ra,44(sp)
800009c0:	d422                	sw	s0,40(sp)
800009c2:	1800                	addi	s0,sp,48
800009c4:	fca42e23          	sw	a0,-36(s0)
800009c8:	fcb42c23          	sw	a1,-40(s0)
800009cc:	fcc42a23          	sw	a2,-44(s0)
    uint32_t addr = abs_addr;
800009d0:	fdc42783          	lw	a5,-36(s0)
800009d4:	fef42623          	sw	a5,-20(s0)
    const uint8_t* src = data;
800009d8:	fd842783          	lw	a5,-40(s0)
800009dc:	fef42423          	sw	a5,-24(s0)
    uint32_t left = len;
800009e0:	fd442783          	lw	a5,-44(s0)
800009e4:	fef42223          	sw	a5,-28(s0)
    uint32_t chunk;

    if (data == 0) {
800009e8:	fd842783          	lw	a5,-40(s0)
800009ec:	e399                	bnez	a5,800009f2 <bl_hal_flash_write+0x36>
        return false;
800009ee:	4781                	li	a5,0
800009f0:	a0bd                	j	80000a5e <bl_hal_flash_write+0xa2>
    }
    if (len == 0u) {
800009f2:	fd442783          	lw	a5,-44(s0)
800009f6:	e3a5                	bnez	a5,80000a56 <bl_hal_flash_write+0x9a>
        return true;
800009f8:	4785                	li	a5,1
800009fa:	a095                	j	80000a5e <bl_hal_flash_write+0xa2>
    }

    while (left > 0u) {
        chunk = (left >= 16u) ? 16u : left;
800009fc:	fe442783          	lw	a5,-28(s0)
80000a00:	4741                	li	a4,16
80000a02:	00f77363          	bgeu	a4,a5,80000a08 <bl_hal_flash_write+0x4c>
80000a06:	47c1                	li	a5,16
80000a08:	fef42023          	sw	a5,-32(s0)
        if (!bl_flash_write16(addr, src, chunk)) {
80000a0c:	fe042603          	lw	a2,-32(s0)
80000a10:	fe842583          	lw	a1,-24(s0)
80000a14:	fec42503          	lw	a0,-20(s0)
80000a18:	3ec5                	jal	80000608 <bl_flash_write16>
80000a1a:	87aa                	mv	a5,a0
80000a1c:	0017c793          	xori	a5,a5,1
80000a20:	0ff7f793          	zext.b	a5,a5
80000a24:	c399                	beqz	a5,80000a2a <bl_hal_flash_write+0x6e>
            return false;
80000a26:	4781                	li	a5,0
80000a28:	a81d                	j	80000a5e <bl_hal_flash_write+0xa2>
        }
        addr += chunk;
80000a2a:	fec42703          	lw	a4,-20(s0)
80000a2e:	fe042783          	lw	a5,-32(s0)
80000a32:	97ba                	add	a5,a5,a4
80000a34:	fef42623          	sw	a5,-20(s0)
        src += chunk;
80000a38:	fe842703          	lw	a4,-24(s0)
80000a3c:	fe042783          	lw	a5,-32(s0)
80000a40:	97ba                	add	a5,a5,a4
80000a42:	fef42423          	sw	a5,-24(s0)
        left -= chunk;
80000a46:	fe442703          	lw	a4,-28(s0)
80000a4a:	fe042783          	lw	a5,-32(s0)
80000a4e:	40f707b3          	sub	a5,a4,a5
80000a52:	fef42223          	sw	a5,-28(s0)
    while (left > 0u) {
80000a56:	fe442783          	lw	a5,-28(s0)
80000a5a:	f3cd                	bnez	a5,800009fc <bl_hal_flash_write+0x40>
    }
    return true;
80000a5c:	4785                	li	a5,1
}
80000a5e:	853e                	mv	a0,a5
80000a60:	50b2                	lw	ra,44(sp)
80000a62:	5422                	lw	s0,40(sp)
80000a64:	6145                	addi	sp,sp,48
80000a66:	8082                	ret

80000a68 <bl_get_header>:
#include "bl_image.h"
#include "bl_config.h"
#include "bl_crc32.h"

static const bl_app_header_t* bl_get_header(void) {
80000a68:	1141                	addi	sp,sp,-16
80000a6a:	c622                	sw	s0,12(sp)
80000a6c:	0800                	addi	s0,sp,16
    return (const bl_app_header_t*)(uintptr_t)APP_HEADER_ADDR;
80000a6e:	800027b7          	lui	a5,0x80002
}
80000a72:	853e                	mv	a0,a5
80000a74:	4432                	lw	s0,12(sp)
80000a76:	0141                	addi	sp,sp,16
80000a78:	8082                	ret

80000a7a <bl_get_payload>:

static const uint8_t* bl_get_payload(void) {
80000a7a:	1141                	addi	sp,sp,-16
80000a7c:	c622                	sw	s0,12(sp)
80000a7e:	0800                	addi	s0,sp,16
    return (const uint8_t*)(uintptr_t)APP_PAYLOAD_ADDR;
80000a80:	800027b7          	lui	a5,0x80002
80000a84:	07a1                	addi	a5,a5,8 # 80002008 <_tdata_start+0x1388>
}
80000a86:	853e                	mv	a0,a5
80000a88:	4432                	lw	s0,12(sp)
80000a8a:	0141                	addi	sp,sp,16
80000a8c:	8082                	ret

80000a8e <bl_image_header_is_valid>:

bool bl_image_header_is_valid(const bl_app_header_t* hdr) {
80000a8e:	1101                	addi	sp,sp,-32
80000a90:	ce22                	sw	s0,28(sp)
80000a92:	1000                	addi	s0,sp,32
80000a94:	fea42623          	sw	a0,-20(s0)
    if (hdr == 0) {
80000a98:	fec42783          	lw	a5,-20(s0)
80000a9c:	e399                	bnez	a5,80000aa2 <bl_image_header_is_valid+0x14>
        return false;
80000a9e:	4781                	li	a5,0
80000aa0:	a005                	j	80000ac0 <bl_image_header_is_valid+0x32>
    }
    if (hdr->image_size == 0u || hdr->image_size > APP_PAYLOAD_MAX_SIZE_BYTES) {
80000aa2:	fec42783          	lw	a5,-20(s0)
80000aa6:	439c                	lw	a5,0(a5)
80000aa8:	cb89                	beqz	a5,80000aba <bl_image_header_is_valid+0x2c>
80000aaa:	fec42783          	lw	a5,-20(s0)
80000aae:	4398                	lw	a4,0(a5)
80000ab0:	000fe7b7          	lui	a5,0xfe
80000ab4:	17e1                	addi	a5,a5,-8 # fdff8 <STACK_SIZE+0xfd7f8>
80000ab6:	00e7f463          	bgeu	a5,a4,80000abe <bl_image_header_is_valid+0x30>
        return false;
80000aba:	4781                	li	a5,0
80000abc:	a011                	j	80000ac0 <bl_image_header_is_valid+0x32>
    }
    return true;
80000abe:	4785                	li	a5,1
}
80000ac0:	853e                	mv	a0,a5
80000ac2:	4472                	lw	s0,28(sp)
80000ac4:	6105                	addi	sp,sp,32
80000ac6:	8082                	ret

80000ac8 <bl_image_is_valid>:

bool bl_image_is_valid(void) {
80000ac8:	1101                	addi	sp,sp,-32
80000aca:	ce06                	sw	ra,28(sp)
80000acc:	cc22                	sw	s0,24(sp)
80000ace:	1000                	addi	s0,sp,32
    const bl_app_header_t* hdr = bl_get_header();
80000ad0:	3f61                	jal	80000a68 <bl_get_header>
80000ad2:	fea42623          	sw	a0,-20(s0)
    const uint8_t* payload;
    uint32_t calc_crc;

    if (!bl_image_header_is_valid(hdr)) {
80000ad6:	fec42503          	lw	a0,-20(s0)
80000ada:	3f55                	jal	80000a8e <bl_image_header_is_valid>
80000adc:	87aa                	mv	a5,a0
80000ade:	0017c793          	xori	a5,a5,1
80000ae2:	0ff7f793          	zext.b	a5,a5
80000ae6:	c399                	beqz	a5,80000aec <bl_image_is_valid+0x24>
        return false;
80000ae8:	4781                	li	a5,0
80000aea:	a805                	j	80000b1a <bl_image_is_valid+0x52>
    }

    payload = bl_get_payload();
80000aec:	3779                	jal	80000a7a <bl_get_payload>
80000aee:	fea42423          	sw	a0,-24(s0)
    calc_crc = bl_crc32_calc(payload, hdr->image_size);
80000af2:	fec42783          	lw	a5,-20(s0)
80000af6:	439c                	lw	a5,0(a5)
80000af8:	85be                	mv	a1,a5
80000afa:	fe842503          	lw	a0,-24(s0)
80000afe:	2091                	jal	80000b42 <bl_crc32_calc>
80000b00:	fea42223          	sw	a0,-28(s0)
    return (calc_crc == hdr->crc32);
80000b04:	fec42783          	lw	a5,-20(s0)
80000b08:	43dc                	lw	a5,4(a5)
80000b0a:	fe442703          	lw	a4,-28(s0)
80000b0e:	40f707b3          	sub	a5,a4,a5
80000b12:	0017b793          	seqz	a5,a5
80000b16:	0ff7f793          	zext.b	a5,a5
}
80000b1a:	853e                	mv	a0,a5
80000b1c:	40f2                	lw	ra,28(sp)
80000b1e:	4462                	lw	s0,24(sp)
80000b20:	6105                	addi	sp,sp,32
80000b22:	8082                	ret

80000b24 <bl_image_get_size>:

uint32_t bl_image_get_size(void) {
80000b24:	1101                	addi	sp,sp,-32
80000b26:	ce06                	sw	ra,28(sp)
80000b28:	cc22                	sw	s0,24(sp)
80000b2a:	1000                	addi	s0,sp,32
    const bl_app_header_t* hdr = bl_get_header();
80000b2c:	3f35                	jal	80000a68 <bl_get_header>
80000b2e:	fea42623          	sw	a0,-20(s0)
    return hdr->image_size;
80000b32:	fec42783          	lw	a5,-20(s0)
80000b36:	439c                	lw	a5,0(a5)
}
80000b38:	853e                	mv	a0,a5
80000b3a:	40f2                	lw	ra,28(sp)
80000b3c:	4462                	lw	s0,24(sp)
80000b3e:	6105                	addi	sp,sp,32
80000b40:	8082                	ret

80000b42 <bl_crc32_calc>:
#include "bl_crc32.h"

/* CRC-32 (poly 0x04C11DB7), non-reflected, init=0xFFFFFFFF, xorout=0xFFFFFFFF. */
uint32_t bl_crc32_calc(const uint8_t* data, uint32_t len) {
80000b42:	7179                	addi	sp,sp,-48
80000b44:	d622                	sw	s0,44(sp)
80000b46:	1800                	addi	s0,sp,48
80000b48:	fca42e23          	sw	a0,-36(s0)
80000b4c:	fcb42c23          	sw	a1,-40(s0)
    uint32_t crc = 0xFFFFFFFFu;
80000b50:	57fd                	li	a5,-1
80000b52:	fef42623          	sw	a5,-20(s0)
    uint32_t i;
    uint32_t bit;

    if (data == 0) {
80000b56:	fdc42783          	lw	a5,-36(s0)
80000b5a:	e399                	bnez	a5,80000b60 <bl_crc32_calc+0x1e>
        return 0u;
80000b5c:	4781                	li	a5,0
80000b5e:	a051                	j	80000be2 <bl_crc32_calc+0xa0>
    }

    for (i = 0u; i < len; ++i) {
80000b60:	fe042423          	sw	zero,-24(s0)
80000b64:	a0ad                	j	80000bce <bl_crc32_calc+0x8c>
        crc ^= ((uint32_t)data[i] << 24);
80000b66:	fdc42703          	lw	a4,-36(s0)
80000b6a:	fe842783          	lw	a5,-24(s0)
80000b6e:	97ba                	add	a5,a5,a4
80000b70:	0007c783          	lbu	a5,0(a5)
80000b74:	07e2                	slli	a5,a5,0x18
80000b76:	fec42703          	lw	a4,-20(s0)
80000b7a:	8fb9                	xor	a5,a5,a4
80000b7c:	fef42623          	sw	a5,-20(s0)
        for (bit = 0u; bit < 8u; ++bit) {
80000b80:	fe042223          	sw	zero,-28(s0)
80000b84:	a81d                	j	80000bba <bl_crc32_calc+0x78>
            if ((crc & 0x80000000u) != 0u) {
80000b86:	fec42783          	lw	a5,-20(s0)
80000b8a:	0007de63          	bgez	a5,80000ba6 <bl_crc32_calc+0x64>
                crc = (crc << 1) ^ 0x04C11DB7u;
80000b8e:	fec42783          	lw	a5,-20(s0)
80000b92:	00179713          	slli	a4,a5,0x1
80000b96:	04c127b7          	lui	a5,0x4c12
80000b9a:	db778793          	addi	a5,a5,-585 # 4c11db7 <STACK_SIZE+0x4c115b7>
80000b9e:	8fb9                	xor	a5,a5,a4
80000ba0:	fef42623          	sw	a5,-20(s0)
80000ba4:	a031                	j	80000bb0 <bl_crc32_calc+0x6e>
            } else {
                crc <<= 1;
80000ba6:	fec42783          	lw	a5,-20(s0)
80000baa:	0786                	slli	a5,a5,0x1
80000bac:	fef42623          	sw	a5,-20(s0)
        for (bit = 0u; bit < 8u; ++bit) {
80000bb0:	fe442783          	lw	a5,-28(s0)
80000bb4:	0785                	addi	a5,a5,1
80000bb6:	fef42223          	sw	a5,-28(s0)
80000bba:	fe442703          	lw	a4,-28(s0)
80000bbe:	479d                	li	a5,7
80000bc0:	fce7f3e3          	bgeu	a5,a4,80000b86 <bl_crc32_calc+0x44>
    for (i = 0u; i < len; ++i) {
80000bc4:	fe842783          	lw	a5,-24(s0)
80000bc8:	0785                	addi	a5,a5,1
80000bca:	fef42423          	sw	a5,-24(s0)
80000bce:	fe842703          	lw	a4,-24(s0)
80000bd2:	fd842783          	lw	a5,-40(s0)
80000bd6:	f8f768e3          	bltu	a4,a5,80000b66 <bl_crc32_calc+0x24>
            }
        }
    }

    return (crc ^ 0xFFFFFFFFu);
80000bda:	fec42783          	lw	a5,-20(s0)
80000bde:	fff7c793          	not	a5,a5
}
80000be2:	853e                	mv	a0,a5
80000be4:	5432                	lw	s0,44(sp)
80000be6:	6145                	addi	sp,sp,48
80000be8:	8082                	ret

80000bea <bl_disable_interrupts>:
#include "bl_jump.h"
#include <stdint.h>

static void bl_disable_interrupts(void) {
80000bea:	1141                	addi	sp,sp,-16
80000bec:	c622                	sw	s0,12(sp)
80000bee:	0800                	addi	s0,sp,16
    __asm__ volatile ("csrci mstatus, 0x8");
80000bf0:	30047073          	csrci	mstatus,8
    __asm__ volatile ("csrw mie, zero");
80000bf4:	30401073          	csrw	mie,zero
}
80000bf8:	0001                	nop
80000bfa:	4432                	lw	s0,12(sp)
80000bfc:	0141                	addi	sp,sp,16
80000bfe:	8082                	ret

80000c00 <bl_jump_to_app>:

void bl_jump_to_app(uint32_t app_entry) {
80000c00:	7179                	addi	sp,sp,-48
80000c02:	d606                	sw	ra,44(sp)
80000c04:	d422                	sw	s0,40(sp)
80000c06:	1800                	addi	s0,sp,48
80000c08:	fca42e23          	sw	a0,-36(s0)
    void (*app_start)(void) = (void (*)(void))(uintptr_t)app_entry;
80000c0c:	fdc42783          	lw	a5,-36(s0)
80000c10:	fef42623          	sw	a5,-20(s0)

    bl_disable_interrupts();
80000c14:	3fd9                	jal	80000bea <bl_disable_interrupts>
    __asm__ volatile ("fence iorw, iorw");
80000c16:	0ff0000f          	fence
    app_start();
80000c1a:	fec42783          	lw	a5,-20(s0)
80000c1e:	9782                	jalr	a5

    for (;;) {
80000c20:	0001                	nop
80000c22:	bffd                	j	80000c20 <bl_jump_to_app+0x20>

80000c24 <bl_trap_init>:
#include "bl_trap.h"
#include <stdint.h>

void bl_trap_init(void) {
80000c24:	1101                	addi	sp,sp,-32
80000c26:	ce22                	sw	s0,28(sp)
80000c28:	1000                	addi	s0,sp,32
    extern void trap_entry(void);
    uintptr_t trap_addr = (uintptr_t)&trap_entry;
80000c2a:	800007b7          	lui	a5,0x80000
80000c2e:	1c078793          	addi	a5,a5,448 # 800001c0 <_tdata_start+0xfffff540>
80000c32:	fef42623          	sw	a5,-20(s0)
    __asm__ volatile ("csrw mtvec, %0" :: "r"(trap_addr));
80000c36:	fec42783          	lw	a5,-20(s0)
80000c3a:	30579073          	csrw	mtvec,a5
}
80000c3e:	0001                	nop
80000c40:	4472                	lw	s0,28(sp)
80000c42:	6105                	addi	sp,sp,32
80000c44:	8082                	ret

80000c46 <bl_panic_forever>:

void bl_panic_forever(void) {
80000c46:	1141                	addi	sp,sp,-16
80000c48:	c622                	sw	s0,12(sp)
80000c4a:	0800                	addi	s0,sp,16
    __asm__ volatile ("csrci mstatus, 0x8");
80000c4c:	30047073          	csrci	mstatus,8
    __asm__ volatile ("csrw mie, zero");
80000c50:	30401073          	csrw	mie,zero
    for (;;) {
        __asm__ volatile ("wfi");
80000c54:	10500073          	wfi
80000c58:	bff5                	j	80000c54 <bl_panic_forever+0xe>

80000c5a <memcpy>:
80000c5a:	832a                	mv	t1,a0
80000c5c:	ca09                	beqz	a2,80000c6e <memcpy+0x14>
80000c5e:	00058383          	lb	t2,0(a1)
80000c62:	00730023          	sb	t2,0(t1)
80000c66:	167d                	addi	a2,a2,-1
80000c68:	0305                	addi	t1,t1,1
80000c6a:	0585                	addi	a1,a1,1
80000c6c:	fa6d                	bnez	a2,80000c5e <memcpy+0x4>
80000c6e:	8082                	ret

80000c70 <memset>:
80000c70:	832a                	mv	t1,a0
80000c72:	c611                	beqz	a2,80000c7e <memset+0xe>
80000c74:	00b30023          	sb	a1,0(t1)
80000c78:	167d                	addi	a2,a2,-1
80000c7a:	0305                	addi	t1,t1,1
80000c7c:	fe65                	bnez	a2,80000c74 <memset+0x4>
80000c7e:	8082                	ret
