
build/vg015.elf:     file format elf32-littleriscv


Disassembly of section .text.startup:

80000000 <_start>:
    .section ".startup.entry","ax",@progbits

    ## Entry point
_start:
    ## reset mstatus
    csrw  mstatus, zero
80000000:	30001073          	csrw	mstatus,zero
    ## reset PMURTC->RTC_HISTORY
    lui     s1,0x38011
80000004:	380114b7          	lui	s1,0x38011
    sw      zero,8(s1) 
80000008:	0004a423          	sw	zero,8(s1) # 38011008 <STACK_SIZE+0x38010808>
    init_regs_const 16, 31, 0
#endif // !__riscv_32e
#endif // PLF_INIT_REGS

    ## setup gp
    load_addrword_abs gp, __global_pointer$
8000000c:	400001b7          	lui	gp,0x40000
80000010:	78018193          	addi	gp,gp,1920 # 40000780 <__global_pointer$>
    ## setup MTVEC
    load_addrword_abs t0, trap_entry
80000014:	800002b7          	lui	t0,0x80000
80000018:	1c028293          	addi	t0,t0,448 # 800001c0 <__data_source_start+0xffff8878>
    csrw  mtvec, t0
8000001c:	30529073          	csrw	mtvec,t0
    ## setup MIE, MIP


    csrw  mie, zero
80000020:	30401073          	csrw	mie,zero
    csrw  mip, zero
80000024:	34401073          	csrw	mip,zero
    load_const_int32 t1, __TEXT_INIT_SIZE__
    cache_flush t0, t1
#endif // PLF_CACHE_CFG

    ## init FPU (if supported)
    csrr  a0, misa
80000028:	30102573          	csrr	a0,misa
    andi  a0, a0, (1 << ('F' - 'A')) | (1 << ('D' - 'A'))
8000002c:	02857513          	andi	a0,a0,40
    beqz  a0, 1f
80000030:	00050863          	beqz	a0,80000040 <_start+0x40>
    li    a0, (1 << 13) // mstatus.FS = 1 (initial)
80000034:	00002537          	lui	a0,0x2
    csrs  mstatus, a0
80000038:	30052073          	csrs	mstatus,a0
    csrw  fcsr, zero
8000003c:	00301073          	fscsr	zero
#else
#define slave_hart_start _hart_halt
#endif // PLF_SMP_SUPPORT

    ## park/prep SMP slaves
    csrr  a0, mhartid
80000040:	f1402573          	csrr	a0,mhartid
#if PLF_SMP_MASTER_HARTID > 0
    li    t0, PLF_SMP_MASTER_HARTID
    bne   a0, t0, slave_hart_start
#endif // PLF_SMP_MASTER_HARTID > 0
#else // PLF_SMP_MASTER_HARTID
    bnez  a0, slave_hart_start
80000044:	04051463          	bnez	a0,8000008c <_hart_halt>
#endif // PLF_SMP_MASTER_HARTID

    ## init HART#0 sp, tp
    load_addrword_abs sp, __TLS0_BASE__
80000048:	40040137          	lui	sp,0x40040
8000004c:	00010113          	mv	sp,sp
    mv    tp, sp
80000050:	00010213          	mv	tp,sp
    csrw  mscratch, sp
80000054:	34011073          	csrw	mscratch,sp
    // reserve trap stack space
    li    t0, PLF_TRAP_STACK
    sub   sp, sp, t0
#endif // PLF_TRAP_STACK
    ## platform init
    load_addrword t0, plf_init
80000058:	800002b7          	lui	t0,0x80000
8000005c:	0be28293          	addi	t0,t0,190 # 800000be <__data_source_start+0xffff8776>
    jalr  t0
80000060:	000280e7          	jalr	t0
    ## jal  plf_init
    ## application-specific initialization hook
    load_addrword t0, app_init
80000064:	800002b7          	lui	t0,0x80000
80000068:	0a428293          	addi	t0,t0,164 # 800000a4 <__data_source_start+0xffff875c>
    jalr  t0
8000006c:	000280e7          	jalr	t0
    ## jal  app_init
    ## main() args
    li    a0, 0
80000070:	00000513          	li	a0,0
    li    a1, 0
80000074:	00000593          	li	a1,0
#if PLF_SMP_NON_COHERENT
    clflush t1
#endif // PLF_SMP_NON_COHERENT
#endif // PLF_SMP_SUPPORT
    ## start main
    load_addrword t0, main
80000078:	800022b7          	lui	t0,0x80002
8000007c:	53428293          	addi	t0,t0,1332 # 80002534 <__data_source_start+0xffffabec>
    load_addrword ra, exit
80000080:	800000b7          	lui	ra,0x80000
80000084:	09c08093          	addi	ra,ra,156 # 8000009c <__data_source_start+0xffff8754>
    jr    t0
80000088:	00028067          	jr	t0

8000008c <_hart_halt>:
1:  wfi
    j     1b
#endif // PLF_SMP_SUPPORT
#else // PLF_HTIF_BASE
    ## disable interrupts
    csrci mstatus, 0xf
8000008c:	3007f073          	csrci	mstatus,15
    csrw  mie, zero
80000090:	30401073          	csrw	mie,zero
1:  wfi
80000094:	10500073          	wfi
    j     1b
80000098:	ffdff06f          	j	80000094 <_hart_halt+0x8>

8000009c <exit>:
#endif // PLF_HTIF_BASE

exit:
    nop
8000009c:	00000013          	nop

800000a0 <abort>:
abort:
    j     _hart_halt
800000a0:	fedff06f          	j	8000008c <_hart_halt>

800000a4 <app_init>:
    jr    t0
#endif // PLF_SMP_SUPPORT

    ## stubs
app_init:
    ret
800000a4:	00008067          	ret
	...

800000b0 <plf_init_noreloc>:
extern void plf_init_relocate(void) __attribute__((weak));

extern char __bss_start[], __bss_end[];

void __init plf_init_noreloc(void)
{
800000b0:	1141                	addi	sp,sp,-16 # 4003fff0 <__STACK_START__+0x7f0>
800000b2:	c622                	sw	s0,12(sp)
800000b4:	0800                	addi	s0,sp,16
    // do nothing
}
800000b6:	0001                	nop
800000b8:	4432                	lw	s0,12(sp)
800000ba:	0141                	addi	sp,sp,16
800000bc:	8082                	ret

800000be <plf_init_generic>:

void __init plf_init_generic(void)
{
800000be:	1101                	addi	sp,sp,-32
800000c0:	ce06                	sw	ra,28(sp)
800000c2:	cc22                	sw	s0,24(sp)
800000c4:	1000                	addi	s0,sp,32
    // init BSS
    memset(__bss_start, 0, (size_t)(__bss_end - __bss_start));
800000c6:	ef018713          	addi	a4,gp,-272 # 40000670 <__BSS_END__>
800000ca:	e2018793          	addi	a5,gp,-480 # 400005a0 <SystemCoreClock>
800000ce:	40f707b3          	sub	a5,a4,a5
800000d2:	863e                	mv	a2,a5
800000d4:	4581                	li	a1,0
800000d6:	e2018513          	addi	a0,gp,-480 # 400005a0 <SystemCoreClock>
800000da:	12c070ef          	jal	ra,80007206 <memset>

    memcpy((void*)&__data_target_start,
           (const void*)&__data_source_start,
           (&__data_target_end - &__data_target_start));
800000de:	e2018713          	addi	a4,gp,-480 # 400005a0 <SystemCoreClock>
800000e2:	88818793          	addi	a5,gp,-1912 # 40000008 <mach_plic_handler>
800000e6:	40f707b3          	sub	a5,a4,a5
    memcpy((void*)&__data_target_start,
800000ea:	863e                	mv	a2,a5
800000ec:	800087b7          	lui	a5,0x80008
800000f0:	94878593          	addi	a1,a5,-1720 # 80007948 <__data_source_start+0x0>
800000f4:	88818513          	addi	a0,gp,-1912 # 40000008 <mach_plic_handler>
800000f8:	0f8070ef          	jal	ra,800071f0 <memcpy>

    memcpy((void*)&__sdata_target_start,
              (const void*)&__sdata_source_start,
              (&__sdata_target_end - &__sdata_target_start));
800000fc:	88418713          	addi	a4,gp,-1916 # 40000004 <__sdata_target_end>
80000100:	88018793          	addi	a5,gp,-1920 # 40000000 <_impure_ptr>
80000104:	40f707b3          	sub	a5,a4,a5
    memcpy((void*)&__sdata_target_start,
80000108:	863e                	mv	a2,a5
8000010a:	800087b7          	lui	a5,0x80008
8000010e:	94478593          	addi	a1,a5,-1724 # 80007944 <__data_source_start+0xfffffffc>
80000112:	88018513          	addi	a0,gp,-1920 # 40000000 <_impure_ptr>
80000116:	0da070ef          	jal	ra,800071f0 <memcpy>

    memcpy((void*)&__init_array_target_start,
              (const void*)&__init_array_source_start,
              (&__init_array_target_end - &__init_array_target_start));
8000011a:	88018713          	addi	a4,gp,-1920 # 40000000 <_impure_ptr>
8000011e:	88018793          	addi	a5,gp,-1920 # 40000000 <_impure_ptr>
80000122:	40f707b3          	sub	a5,a4,a5
    memcpy((void*)&__init_array_target_start,
80000126:	863e                	mv	a2,a5
80000128:	800077b7          	lui	a5,0x80007
8000012c:	5c878593          	addi	a1,a5,1480 # 800075c8 <__data_source_start+0xfffffc80>
80000130:	88018513          	addi	a0,gp,-1920 # 40000000 <_impure_ptr>
80000134:	0bc070ef          	jal	ra,800071f0 <memcpy>

    memcpy((void*)&__fini_array_target_start,
              (const void*)&__fini_array_source_start,
              (&__fini_array_target_end - &__fini_array_target_start));
80000138:	88018713          	addi	a4,gp,-1920 # 40000000 <_impure_ptr>
8000013c:	88018793          	addi	a5,gp,-1920 # 40000000 <_impure_ptr>
80000140:	40f707b3          	sub	a5,a4,a5
    memcpy((void*)&__fini_array_target_start,
80000144:	863e                	mv	a2,a5
80000146:	800077b7          	lui	a5,0x80007
8000014a:	5c878593          	addi	a1,a5,1480 # 800075c8 <__data_source_start+0xfffffc80>
8000014e:	88018513          	addi	a0,gp,-1920 # 40000000 <_impure_ptr>
80000152:	09e070ef          	jal	ra,800071f0 <memcpy>

    // init functions for cpp
    for (uint32_t i = 0; i < ((uint32_t) (&__init_array_target_end - &__init_array_target_start)) >> 2; i++)
80000156:	fe042623          	sw	zero,-20(s0)
8000015a:	a839                	j	80000178 <plf_init_generic+0xba>
    	((void (*)())((uint32_t*)&__init_array_target_start)[i])();
8000015c:	fec42783          	lw	a5,-20(s0)
80000160:	00279713          	slli	a4,a5,0x2
80000164:	88018793          	addi	a5,gp,-1920 # 40000000 <_impure_ptr>
80000168:	97ba                	add	a5,a5,a4
8000016a:	439c                	lw	a5,0(a5)
8000016c:	9782                	jalr	a5
    for (uint32_t i = 0; i < ((uint32_t) (&__init_array_target_end - &__init_array_target_start)) >> 2; i++)
8000016e:	fec42783          	lw	a5,-20(s0)
80000172:	0785                	addi	a5,a5,1
80000174:	fef42623          	sw	a5,-20(s0)
80000178:	88018713          	addi	a4,gp,-1920 # 40000000 <_impure_ptr>
8000017c:	88018793          	addi	a5,gp,-1920 # 40000000 <_impure_ptr>
80000180:	40f707b3          	sub	a5,a4,a5
80000184:	8389                	srli	a5,a5,0x2
80000186:	fec42703          	lw	a4,-20(s0)
8000018a:	fcf769e3          	bltu	a4,a5,8000015c <plf_init_generic+0x9e>
}
8000018e:	0001                	nop
80000190:	0001                	nop
80000192:	40f2                	lw	ra,28(sp)
80000194:	4462                	lw	s0,24(sp)
80000196:	6105                	addi	sp,sp,32
80000198:	8082                	ret
8000019a:	0000                	unimp
8000019c:	0000                	unimp
	...

Disassembly of section .text.crt:

800001c0 <trap_entry>:
    .section ".text.crt.trap_entry","ax",@progbits
    .align 6
    .type trap_entry, @function
trap_entry:
    ## save context
    context_save
800001c0:	fe512e23          	sw	t0,-4(sp)
800001c4:	00010293          	mv	t0,sp
800001c8:	f8010113          	addi	sp,sp,-128
800001cc:	ff017113          	andi	sp,sp,-16
800001d0:	00112223          	sw	ra,4(sp)
800001d4:	00512423          	sw	t0,8(sp)
800001d8:	ffc2a283          	lw	t0,-4(t0)
800001dc:	00312623          	sw	gp,12(sp)
800001e0:	00412823          	sw	tp,16(sp)
800001e4:	00512a23          	sw	t0,20(sp)
800001e8:	00612c23          	sw	t1,24(sp)
800001ec:	00712e23          	sw	t2,28(sp)
800001f0:	02812023          	sw	s0,32(sp)
800001f4:	02912223          	sw	s1,36(sp)
800001f8:	02a12423          	sw	a0,40(sp)
800001fc:	02b12623          	sw	a1,44(sp)
80000200:	02c12823          	sw	a2,48(sp)
80000204:	02d12a23          	sw	a3,52(sp)
80000208:	02e12c23          	sw	a4,56(sp)
8000020c:	02f12e23          	sw	a5,60(sp)
80000210:	05012023          	sw	a6,64(sp)
80000214:	05112223          	sw	a7,68(sp)
80000218:	05212423          	sw	s2,72(sp)
8000021c:	05312623          	sw	s3,76(sp)
80000220:	05412823          	sw	s4,80(sp)
80000224:	05512a23          	sw	s5,84(sp)
80000228:	05612c23          	sw	s6,88(sp)
8000022c:	05712e23          	sw	s7,92(sp)
80000230:	07812023          	sw	s8,96(sp)
80000234:	07912223          	sw	s9,100(sp)
80000238:	07a12423          	sw	s10,104(sp)
8000023c:	07b12623          	sw	s11,108(sp)
80000240:	07c12823          	sw	t3,112(sp)
80000244:	07d12a23          	sw	t4,116(sp)
80000248:	07e12c23          	sw	t5,120(sp)
8000024c:	07f12e23          	sw	t6,124(sp)
80000250:	34002273          	csrr	tp,mscratch
80000254:	34102373          	csrr	t1,mepc
80000258:	00612023          	sw	t1,0(sp)
    ## save mstatus priv stack
    csrr s0, mstatus
8000025c:	30002473          	csrr	s0,mstatus
    ## load trap handler args
    csrr a0, mcause
80000260:	34202573          	csrr	a0,mcause
    csrr a1, mepc
80000264:	341025f3          	csrr	a1,mepc
    mv   a2, sp
80000268:	00010613          	mv	a2,sp

    ## setup gp
    load_addrword_abs gp, __global_pointer$
8000026c:	400001b7          	lui	gp,0x40000
80000270:	78018193          	addi	gp,gp,1920 # 40000780 <__global_pointer$>
    ## call trap handler
    load_addrword t0, trap_handler
80000274:	800012b7          	lui	t0,0x80001
80000278:	9ce28293          	addi	t0,t0,-1586 # 800009ce <__data_source_start+0xffff9086>
    jalr t0
8000027c:	000280e7          	jalr	t0

    ## restore mstatus priv stack
    csrw mstatus, s0
80000280:	30041073          	csrw	mstatus,s0
    ## restore context
    context_restore
80000284:	00012303          	lw	t1,0(sp)
80000288:	34131073          	csrw	mepc,t1
8000028c:	00c12183          	lw	gp,12(sp)
80000290:	01012203          	lw	tp,16(sp)
80000294:	01412283          	lw	t0,20(sp)
80000298:	01812303          	lw	t1,24(sp)
8000029c:	01c12383          	lw	t2,28(sp)
800002a0:	02012403          	lw	s0,32(sp)
800002a4:	02412483          	lw	s1,36(sp)
800002a8:	02812503          	lw	a0,40(sp)
800002ac:	02c12583          	lw	a1,44(sp)
800002b0:	03012603          	lw	a2,48(sp)
800002b4:	03412683          	lw	a3,52(sp)
800002b8:	03812703          	lw	a4,56(sp)
800002bc:	03c12783          	lw	a5,60(sp)
800002c0:	04012803          	lw	a6,64(sp)
800002c4:	04412883          	lw	a7,68(sp)
800002c8:	04812903          	lw	s2,72(sp)
800002cc:	04c12983          	lw	s3,76(sp)
800002d0:	05012a03          	lw	s4,80(sp)
800002d4:	05412a83          	lw	s5,84(sp)
800002d8:	05812b03          	lw	s6,88(sp)
800002dc:	05c12b83          	lw	s7,92(sp)
800002e0:	06012c03          	lw	s8,96(sp)
800002e4:	06412c83          	lw	s9,100(sp)
800002e8:	06812d03          	lw	s10,104(sp)
800002ec:	06c12d83          	lw	s11,108(sp)
800002f0:	07012e03          	lw	t3,112(sp)
800002f4:	07412e83          	lw	t4,116(sp)
800002f8:	07812f03          	lw	t5,120(sp)
800002fc:	07c12f83          	lw	t6,124(sp)
80000300:	00412083          	lw	ra,4(sp)
80000304:	00812103          	lw	sp,8(sp)
    mret
80000308:	30200073          	mret
	...

Disassembly of section .text:

80000344 <BSP_LED_Init>:
//-- Private variables ---------------------------------------------------------
static volatile uint32_t btn_press_event = 0;

//-- Functions -----------------------------------------------------------------
void BSP_LED_Init()
{
80000344:	1141                	addi	sp,sp,-16
80000346:	c622                	sw	s0,12(sp)
80000348:	0800                	addi	s0,sp,16
	RCU->CGCFGAHB_bit.LED_PORT_EN = 1;
8000034a:	3000e7b7          	lui	a5,0x3000e
8000034e:	0007d703          	lhu	a4,0(a5) # 3000e000 <STACK_SIZE+0x3000d800>
80000352:	10076713          	ori	a4,a4,256
80000356:	00e79023          	sh	a4,0(a5)
	RCU->RSTDISAHB_bit.LED_PORT_EN = 1;
8000035a:	3000e7b7          	lui	a5,0x3000e
8000035e:	0107d703          	lhu	a4,16(a5) # 3000e010 <STACK_SIZE+0x3000d810>
80000362:	10076713          	ori	a4,a4,256
80000366:	00e79823          	sh	a4,16(a5)
	LED_PORT->OUTENSET = LEDS_MSK;
8000036a:	280007b7          	lui	a5,0x28000
8000036e:	673d                	lui	a4,0xf
80000370:	d7d8                	sw	a4,44(a5)
	LED_PORT->DATAOUTSET = LEDS_MSK;
80000372:	280007b7          	lui	a5,0x28000
80000376:	673d                	lui	a4,0xf
80000378:	c798                	sw	a4,8(a5)
}
8000037a:	0001                	nop
8000037c:	4432                	lw	s0,12(sp)
8000037e:	0141                	addi	sp,sp,16
80000380:	8082                	ret

80000382 <BSP_LED_Toggle>:

void BSP_LED_Toggle(uint32_t leds)
{
80000382:	1101                	addi	sp,sp,-32
80000384:	ce22                	sw	s0,28(sp)
80000386:	1000                	addi	s0,sp,32
80000388:	fea42623          	sw	a0,-20(s0)
	LED_PORT->DATAOUTTGL = leds;
8000038c:	280007b7          	lui	a5,0x28000
80000390:	fec42703          	lw	a4,-20(s0)
80000394:	cb98                	sw	a4,16(a5)
}
80000396:	0001                	nop
80000398:	4472                	lw	s0,28(sp)
8000039a:	6105                	addi	sp,sp,32
8000039c:	8082                	ret

8000039e <BSP_LED_On>:

void BSP_LED_On(uint32_t leds)
{
8000039e:	1101                	addi	sp,sp,-32
800003a0:	ce22                	sw	s0,28(sp)
800003a2:	1000                	addi	s0,sp,32
800003a4:	fea42623          	sw	a0,-20(s0)
	LED_PORT->DATAOUTCLR = leds;
800003a8:	280007b7          	lui	a5,0x28000
800003ac:	fec42703          	lw	a4,-20(s0)
800003b0:	c7d8                	sw	a4,12(a5)
}
800003b2:	0001                	nop
800003b4:	4472                	lw	s0,28(sp)
800003b6:	6105                	addi	sp,sp,32
800003b8:	8082                	ret

800003ba <BSP_LED_Off>:

void BSP_LED_Off(uint32_t leds)
{
800003ba:	1101                	addi	sp,sp,-32
800003bc:	ce22                	sw	s0,28(sp)
800003be:	1000                	addi	s0,sp,32
800003c0:	fea42623          	sw	a0,-20(s0)
	LED_PORT->DATAOUTSET = leds;
800003c4:	280007b7          	lui	a5,0x28000
800003c8:	fec42703          	lw	a4,-20(s0)
800003cc:	c798                	sw	a4,8(a5)
}
800003ce:	0001                	nop
800003d0:	4472                	lw	s0,28(sp)
800003d2:	6105                	addi	sp,sp,32
800003d4:	8082                	ret

800003d6 <BSP_Btn_Init>:

void BSP_Btn_Init()
{
800003d6:	1141                	addi	sp,sp,-16
800003d8:	c606                	sw	ra,12(sp)
800003da:	c422                	sw	s0,8(sp)
800003dc:	0800                	addi	s0,sp,16
	RCU->CGCFGAHB_bit.BTN_PORT_EN = 1;
800003de:	3000e7b7          	lui	a5,0x3000e
800003e2:	0007d703          	lhu	a4,0(a5) # 3000e000 <STACK_SIZE+0x3000d800>
800003e6:	10076713          	ori	a4,a4,256
800003ea:	00e79023          	sh	a4,0(a5)
	RCU->RSTDISAHB_bit.BTN_PORT_EN = 1;
800003ee:	3000e7b7          	lui	a5,0x3000e
800003f2:	0107d703          	lhu	a4,16(a5) # 3000e010 <STACK_SIZE+0x3000d810>
800003f6:	10076713          	ori	a4,a4,256
800003fa:	00e79823          	sh	a4,16(a5)
	BTN_PORT->OUTENCLR = BTN_PIN_MSK;
800003fe:	280007b7          	lui	a5,0x28000
80000402:	6705                	lui	a4,0x1
80000404:	80070713          	addi	a4,a4,-2048 # 800 <STACK_SIZE>
80000408:	db98                	sw	a4,48(a5)
	BTN_PORT->INTTYPESET = BTN_PIN_MSK; // фронт
8000040a:	280007b7          	lui	a5,0x28000
8000040e:	6705                	lui	a4,0x1
80000410:	80070713          	addi	a4,a4,-2048 # 800 <STACK_SIZE>
80000414:	d7b8                	sw	a4,104(a5)
	BTN_PORT->INTPOLSET = BTN_PIN_MSK;  // положительный
80000416:	280007b7          	lui	a5,0x28000
8000041a:	6705                	lui	a4,0x1
8000041c:	80070713          	addi	a4,a4,-2048 # 800 <STACK_SIZE>
80000420:	dbb8                	sw	a4,112(a5)
	BTN_PORT->INTENSET = BTN_PIN_MSK;
80000422:	280007b7          	lui	a5,0x28000
80000426:	6705                	lui	a4,0x1
80000428:	80070713          	addi	a4,a4,-2048 # 800 <STACK_SIZE>
8000042c:	d3b8                	sw	a4,96(a5)
	// Настраиваем обработчик прерывания
	PLIC_SetIrqHandler (Plic_Mach_Target, BTN_IRQ_N, BTN_IRQ_HANDLER);
8000042e:	800007b7          	lui	a5,0x80000
80000432:	47078613          	addi	a2,a5,1136 # 80000470 <__data_source_start+0xffff8b28>
80000436:	4595                	li	a1,5
80000438:	4501                	li	a0,0
8000043a:	24e1                	jal	80000702 <PLIC_SetIrqHandler>
	PLIC_SetPriority   (BTN_IRQ_N, 0x1);
8000043c:	4585                	li	a1,1
8000043e:	4515                	li	a0,5
80000440:	2639                	jal	8000074e <PLIC_SetPriority>
	PLIC_IntEnable     (Plic_Mach_Target, BTN_IRQ_N);
80000442:	4595                	li	a1,5
80000444:	4501                	li	a0,0
80000446:	2e0d                	jal	80000778 <PLIC_IntEnable>
}
80000448:	0001                	nop
8000044a:	40b2                	lw	ra,12(sp)
8000044c:	4422                	lw	s0,8(sp)
8000044e:	0141                	addi	sp,sp,16
80000450:	8082                	ret

80000452 <BSP_Btn_IsPressed>:

uint32_t BSP_Btn_IsPressed()
{
80000452:	1141                	addi	sp,sp,-16
80000454:	c622                	sw	s0,12(sp)
80000456:	0800                	addi	s0,sp,16
    if (btn_press_event) {
80000458:	e341a783          	lw	a5,-460(gp) # 400005b4 <btn_press_event>
8000045c:	c789                	beqz	a5,80000466 <BSP_Btn_IsPressed+0x14>
        btn_press_event = 0;
8000045e:	e201aa23          	sw	zero,-460(gp) # 400005b4 <btn_press_event>
        return 1;
80000462:	4785                	li	a5,1
80000464:	a011                	j	80000468 <BSP_Btn_IsPressed+0x16>
    } else
        return 0;
80000466:	4781                	li	a5,0
}
80000468:	853e                	mv	a0,a5
8000046a:	4432                	lw	s0,12(sp)
8000046c:	0141                	addi	sp,sp,16
8000046e:	8082                	ret

80000470 <BTN_IRQ_HANDLER>:

//-- IRQ handlers --------------------------------------------------------------
void BTN_IRQ_HANDLER()
{
80000470:	1141                	addi	sp,sp,-16
80000472:	c622                	sw	s0,12(sp)
80000474:	0800                	addi	s0,sp,16
	BTN_PORT->INTSTATUS = BTN_PIN_MSK;
80000476:	280007b7          	lui	a5,0x28000
8000047a:	6705                	lui	a4,0x1
8000047c:	80070713          	addi	a4,a4,-2048 # 800 <STACK_SIZE>
80000480:	08e7a023          	sw	a4,128(a5) # 28000080 <STACK_SIZE+0x27fff880>
	btn_press_event = 1;
80000484:	4705                	li	a4,1
80000486:	e2e1aa23          	sw	a4,-460(gp) # 400005b4 <btn_press_event>
}
8000048a:	0001                	nop
8000048c:	4432                	lw	s0,12(sp)
8000048e:	0141                	addi	sp,sp,16
80000490:	8082                	ret

80000492 <mtimer_set_raw_time_cmp>:
#include "mtimer.h"

void mtimer_set_raw_time_cmp(uint64_t clock_offset) {
80000492:	7179                	addi	sp,sp,-48
80000494:	d606                	sw	ra,44(sp)
80000496:	d422                	sw	s0,40(sp)
80000498:	d24a                	sw	s2,36(sp)
8000049a:	d04e                	sw	s3,32(sp)
8000049c:	1800                	addi	s0,sp,48
8000049e:	fca42c23          	sw	a0,-40(s0)
800004a2:	fcb42e23          	sw	a1,-36(s0)
    // First of all set 
    uint64_t new_mtimecmp = mtimer_get_raw_time() + clock_offset;
800004a6:	20ad                	jal	80000510 <mtimer_get_raw_time>
800004a8:	fd842603          	lw	a2,-40(s0)
800004ac:	fdc42683          	lw	a3,-36(s0)
800004b0:	00a60733          	add	a4,a2,a0
800004b4:	883a                	mv	a6,a4
800004b6:	00c83833          	sltu	a6,a6,a2
800004ba:	00b687b3          	add	a5,a3,a1
800004be:	00f806b3          	add	a3,a6,a5
800004c2:	87b6                	mv	a5,a3
800004c4:	fee42423          	sw	a4,-24(s0)
800004c8:	fef42623          	sw	a5,-20(s0)
    volatile uint32_t *mtimecmpl = (volatile uint32_t *)(RISCV_MTIMECMP_ADDR);
800004cc:	020047b7          	lui	a5,0x2004
800004d0:	fef42223          	sw	a5,-28(s0)
    volatile uint32_t *mtimecmph = (volatile uint32_t *)(RISCV_MTIMECMP_ADDR+4);
800004d4:	020047b7          	lui	a5,0x2004
800004d8:	0791                	addi	a5,a5,4 # 2004004 <STACK_SIZE+0x2003804>
800004da:	fef42023          	sw	a5,-32(s0)
    // AS we are doing 32 bit writes, an intermediate mtimecmp value may cause spurious interrupts.
    // Prevent that by first setting the dummy MSB to an unacheivable value
    *mtimecmpl = 0xFFFFFFFF;  // cppcheck-suppress redundantAssignment
800004de:	fe442783          	lw	a5,-28(s0)
800004e2:	577d                	li	a4,-1
800004e4:	c398                	sw	a4,0(a5)
    // Set the correct MSB
    *mtimecmph = (uint32_t)(new_mtimecmp >> 32); // cppcheck-suppress redundantAssignment
800004e6:	fec42783          	lw	a5,-20(s0)
800004ea:	0007d913          	srli	s2,a5,0x0
800004ee:	4981                	li	s3,0
800004f0:	874a                	mv	a4,s2
800004f2:	fe042783          	lw	a5,-32(s0)
800004f6:	c398                	sw	a4,0(a5)
    // set the LSB
    *mtimecmpl = (uint32_t)(new_mtimecmp & 0x0FFFFFFFFUL);
800004f8:	fe842703          	lw	a4,-24(s0)
800004fc:	fe442783          	lw	a5,-28(s0)
80000500:	c398                	sw	a4,0(a5)
}
80000502:	0001                	nop
80000504:	50b2                	lw	ra,44(sp)
80000506:	5422                	lw	s0,40(sp)
80000508:	5912                	lw	s2,36(sp)
8000050a:	5982                	lw	s3,32(sp)
8000050c:	6145                	addi	sp,sp,48
8000050e:	8082                	ret

80000510 <mtimer_get_raw_time>:
 
/** Read the raw time of the system timer in system timer clocks
 */
uint64_t mtimer_get_raw_time(void) {
80000510:	1101                	addi	sp,sp,-32
80000512:	ce22                	sw	s0,28(sp)
80000514:	1000                	addi	s0,sp,32

    volatile uint32_t * mtimel = (volatile uint32_t *)(RISCV_MTIME_ADDR);
80000516:	0200c337          	lui	t1,0x200c
8000051a:	1361                	addi	t1,t1,-8 # 200bff8 <STACK_SIZE+0x200b7f8>
8000051c:	fe642623          	sw	t1,-20(s0)
    volatile uint32_t * mtimeh = (volatile uint32_t *)(RISCV_MTIME_ADDR+4);
80000520:	0200c337          	lui	t1,0x200c
80000524:	1371                	addi	t1,t1,-4 # 200bffc <STACK_SIZE+0x200b7fc>
80000526:	fe642423          	sw	t1,-24(s0)
    uint32_t mtimeh_val;
    uint32_t mtimel_val;
    do {
        // There is a small risk the mtimeh will tick over after reading mtimel
        mtimeh_val = *mtimeh;
8000052a:	fe842303          	lw	t1,-24(s0)
8000052e:	00032303          	lw	t1,0(t1)
80000532:	fe642223          	sw	t1,-28(s0)
        mtimel_val = *mtimel;
80000536:	fec42303          	lw	t1,-20(s0)
8000053a:	00032303          	lw	t1,0(t1)
8000053e:	fe642023          	sw	t1,-32(s0)
        // Poll mtimeh to ensure it's consistent after reading mtimel
        // The frequency of mtimeh ticking over is low
    } while (mtimeh_val != *mtimeh);
80000542:	fe842303          	lw	t1,-24(s0)
80000546:	00032303          	lw	t1,0(t1)
8000054a:	fe442e03          	lw	t3,-28(s0)
8000054e:	fc6e1ee3          	bne	t3,t1,8000052a <mtimer_get_raw_time+0x1a>
    return (uint64_t) ( ( ((uint64_t)mtimeh_val)<<32) | mtimel_val);
80000552:	fe442303          	lw	t1,-28(s0)
80000556:	881a                	mv	a6,t1
80000558:	4881                	li	a7,0
8000055a:	00081793          	slli	a5,a6,0x0
8000055e:	4701                	li	a4,0
80000560:	fe042803          	lw	a6,-32(s0)
80000564:	8642                	mv	a2,a6
80000566:	4681                	li	a3,0
80000568:	00c76533          	or	a0,a4,a2
8000056c:	00d7e5b3          	or	a1,a5,a3
80000570:	872a                	mv	a4,a0
80000572:	87ae                	mv	a5,a1
} 
80000574:	853a                	mv	a0,a4
80000576:	85be                	mv	a1,a5
80000578:	4472                	lw	s0,28(sp)
8000057a:	6105                	addi	sp,sp,32
8000057c:	8082                	ret

8000057e <sleep>:

/** Delay in ms
 */
void sleep(uint32_t ms)
{
8000057e:	7139                	addi	sp,sp,-64
80000580:	de06                	sw	ra,60(sp)
80000582:	dc22                	sw	s0,56(sp)
80000584:	da4a                	sw	s2,52(sp)
80000586:	d84e                	sw	s3,48(sp)
80000588:	d652                	sw	s4,44(sp)
8000058a:	d456                	sw	s5,40(sp)
8000058c:	d25a                	sw	s6,36(sp)
8000058e:	d05e                	sw	s7,32(sp)
80000590:	0080                	addi	s0,sp,64
80000592:	fca42623          	sw	a0,-52(s0)
uint64_t end_time = mtimer_get_raw_time() + MTIMER_MSEC_TO_CLOCKS(ms);
80000596:	3fad                	jal	80000510 <mtimer_get_raw_time>
80000598:	8a2a                	mv	s4,a0
8000059a:	8aae                	mv	s5,a1
8000059c:	fcc42783          	lw	a5,-52(s0)
800005a0:	893e                	mv	s2,a5
800005a2:	4981                	li	s3,0
800005a4:	02faf7b7          	lui	a5,0x2faf
800005a8:	08078793          	addi	a5,a5,128 # 2faf080 <STACK_SIZE+0x2fae880>
800005ac:	02f98733          	mul	a4,s3,a5
800005b0:	4781                	li	a5,0
800005b2:	02f907b3          	mul	a5,s2,a5
800005b6:	973e                	add	a4,a4,a5
800005b8:	02faf7b7          	lui	a5,0x2faf
800005bc:	08078793          	addi	a5,a5,128 # 2faf080 <STACK_SIZE+0x2fae880>
800005c0:	02f906b3          	mul	a3,s2,a5
800005c4:	02f93bb3          	mulhu	s7,s2,a5
800005c8:	8b36                	mv	s6,a3
800005ca:	017707b3          	add	a5,a4,s7
800005ce:	8bbe                	mv	s7,a5
800005d0:	3e800613          	li	a2,1000
800005d4:	4681                	li	a3,0
800005d6:	855a                	mv	a0,s6
800005d8:	85de                	mv	a1,s7
800005da:	43d060ef          	jal	ra,80007216 <__udivdi3>
800005de:	872a                	mv	a4,a0
800005e0:	87ae                	mv	a5,a1
800005e2:	863a                	mv	a2,a4
800005e4:	86be                	mv	a3,a5
800005e6:	00ca0733          	add	a4,s4,a2
800005ea:	85ba                	mv	a1,a4
800005ec:	0145b5b3          	sltu	a1,a1,s4
800005f0:	00da87b3          	add	a5,s5,a3
800005f4:	00f586b3          	add	a3,a1,a5
800005f8:	87b6                	mv	a5,a3
800005fa:	fce42c23          	sw	a4,-40(s0)
800005fe:	fcf42e23          	sw	a5,-36(s0)
while (mtimer_get_raw_time() < end_time);
80000602:	0001                	nop
80000604:	3731                	jal	80000510 <mtimer_get_raw_time>
80000606:	872a                	mv	a4,a0
80000608:	87ae                	mv	a5,a1
8000060a:	fdc42683          	lw	a3,-36(s0)
8000060e:	863e                	mv	a2,a5
80000610:	fed66ae3          	bltu	a2,a3,80000604 <sleep+0x86>
80000614:	fdc42683          	lw	a3,-36(s0)
80000618:	863e                	mv	a2,a5
8000061a:	00c69763          	bne	a3,a2,80000628 <sleep+0xaa>
8000061e:	fd842683          	lw	a3,-40(s0)
80000622:	87ba                	mv	a5,a4
80000624:	fed7e0e3          	bltu	a5,a3,80000604 <sleep+0x86>
}
80000628:	0001                	nop
8000062a:	50f2                	lw	ra,60(sp)
8000062c:	5462                	lw	s0,56(sp)
8000062e:	5952                	lw	s2,52(sp)
80000630:	59c2                	lw	s3,48(sp)
80000632:	5a32                	lw	s4,44(sp)
80000634:	5aa2                	lw	s5,40(sp)
80000636:	5b12                	lw	s6,36(sp)
80000638:	5b82                	lw	s7,32(sp)
8000063a:	6121                	addi	sp,sp,64
8000063c:	8082                	ret

8000063e <usleep>:

/** Delay in us
 */
void usleep(uint32_t us)
{
8000063e:	7139                	addi	sp,sp,-64
80000640:	de06                	sw	ra,60(sp)
80000642:	dc22                	sw	s0,56(sp)
80000644:	da4a                	sw	s2,52(sp)
80000646:	d84e                	sw	s3,48(sp)
80000648:	d652                	sw	s4,44(sp)
8000064a:	d456                	sw	s5,40(sp)
8000064c:	d25a                	sw	s6,36(sp)
8000064e:	d05e                	sw	s7,32(sp)
80000650:	0080                	addi	s0,sp,64
80000652:	fca42623          	sw	a0,-52(s0)
uint64_t end_time = mtimer_get_raw_time() + MTIMER_USEC_TO_CLOCKS(us);
80000656:	3d6d                	jal	80000510 <mtimer_get_raw_time>
80000658:	8a2a                	mv	s4,a0
8000065a:	8aae                	mv	s5,a1
8000065c:	fcc42783          	lw	a5,-52(s0)
80000660:	893e                	mv	s2,a5
80000662:	4981                	li	s3,0
80000664:	02faf7b7          	lui	a5,0x2faf
80000668:	08078793          	addi	a5,a5,128 # 2faf080 <STACK_SIZE+0x2fae880>
8000066c:	02f98733          	mul	a4,s3,a5
80000670:	4781                	li	a5,0
80000672:	02f907b3          	mul	a5,s2,a5
80000676:	973e                	add	a4,a4,a5
80000678:	02faf7b7          	lui	a5,0x2faf
8000067c:	08078793          	addi	a5,a5,128 # 2faf080 <STACK_SIZE+0x2fae880>
80000680:	02f906b3          	mul	a3,s2,a5
80000684:	02f93bb3          	mulhu	s7,s2,a5
80000688:	8b36                	mv	s6,a3
8000068a:	017707b3          	add	a5,a4,s7
8000068e:	8bbe                	mv	s7,a5
80000690:	000f4637          	lui	a2,0xf4
80000694:	24060613          	addi	a2,a2,576 # f4240 <STACK_SIZE+0xf3a40>
80000698:	4681                	li	a3,0
8000069a:	855a                	mv	a0,s6
8000069c:	85de                	mv	a1,s7
8000069e:	379060ef          	jal	ra,80007216 <__udivdi3>
800006a2:	872a                	mv	a4,a0
800006a4:	87ae                	mv	a5,a1
800006a6:	863a                	mv	a2,a4
800006a8:	86be                	mv	a3,a5
800006aa:	00ca0733          	add	a4,s4,a2
800006ae:	85ba                	mv	a1,a4
800006b0:	0145b5b3          	sltu	a1,a1,s4
800006b4:	00da87b3          	add	a5,s5,a3
800006b8:	00f586b3          	add	a3,a1,a5
800006bc:	87b6                	mv	a5,a3
800006be:	fce42c23          	sw	a4,-40(s0)
800006c2:	fcf42e23          	sw	a5,-36(s0)
while (mtimer_get_raw_time() < end_time);
800006c6:	0001                	nop
800006c8:	35a1                	jal	80000510 <mtimer_get_raw_time>
800006ca:	872a                	mv	a4,a0
800006cc:	87ae                	mv	a5,a1
800006ce:	fdc42683          	lw	a3,-36(s0)
800006d2:	863e                	mv	a2,a5
800006d4:	fed66ae3          	bltu	a2,a3,800006c8 <usleep+0x8a>
800006d8:	fdc42683          	lw	a3,-36(s0)
800006dc:	863e                	mv	a2,a5
800006de:	00c69763          	bne	a3,a2,800006ec <usleep+0xae>
800006e2:	fd842683          	lw	a3,-40(s0)
800006e6:	87ba                	mv	a5,a4
800006e8:	fed7e0e3          	bltu	a5,a3,800006c8 <usleep+0x8a>
}
800006ec:	0001                	nop
800006ee:	50f2                	lw	ra,60(sp)
800006f0:	5462                	lw	s0,56(sp)
800006f2:	5952                	lw	s2,52(sp)
800006f4:	59c2                	lw	s3,48(sp)
800006f6:	5a32                	lw	s4,44(sp)
800006f8:	5aa2                	lw	s5,40(sp)
800006fa:	5b12                	lw	s6,36(sp)
800006fc:	5b82                	lw	s7,32(sp)
800006fe:	6121                	addi	sp,sp,64
80000700:	8082                	ret

80000702 <PLIC_SetIrqHandler>:
/*
 * Set PLIC handler function for isr num
 */

void PLIC_SetIrqHandler (uint8_t target, uint32_t isr_num, irqfunc* func)
{
80000702:	1101                	addi	sp,sp,-32
80000704:	ce22                	sw	s0,28(sp)
80000706:	1000                	addi	s0,sp,32
80000708:	87aa                	mv	a5,a0
8000070a:	feb42423          	sw	a1,-24(s0)
8000070e:	fec42223          	sw	a2,-28(s0)
80000712:	fef407a3          	sb	a5,-17(s0)
    if(target == Plic_Mach_Target) {
80000716:	fef44783          	lbu	a5,-17(s0)
8000071a:	ef89                	bnez	a5,80000734 <PLIC_SetIrqHandler+0x32>
        mach_plic_handler[isr_num] = func;
8000071c:	400007b7          	lui	a5,0x40000
80000720:	00878713          	addi	a4,a5,8 # 40000008 <mach_plic_handler>
80000724:	fe842783          	lw	a5,-24(s0)
80000728:	078a                	slli	a5,a5,0x2
8000072a:	97ba                	add	a5,a5,a4
8000072c:	fe442703          	lw	a4,-28(s0)
80000730:	c398                	sw	a4,0(a5)
    } else {
        supervisor_plic_handler[isr_num] = func;
    }
}
80000732:	a811                	j	80000746 <PLIC_SetIrqHandler+0x44>
        supervisor_plic_handler[isr_num] = func;
80000734:	90818713          	addi	a4,gp,-1784 # 40000088 <supervisor_plic_handler>
80000738:	fe842783          	lw	a5,-24(s0)
8000073c:	078a                	slli	a5,a5,0x2
8000073e:	97ba                	add	a5,a5,a4
80000740:	fe442703          	lw	a4,-28(s0)
80000744:	c398                	sw	a4,0(a5)
}
80000746:	0001                	nop
80000748:	4472                	lw	s0,28(sp)
8000074a:	6105                	addi	sp,sp,32
8000074c:	8082                	ret

8000074e <PLIC_SetPriority>:
/*
 * Set PLIC irq priority
 */

void PLIC_SetPriority (uint32_t isr_num, uint8_t pri)
{
8000074e:	1101                	addi	sp,sp,-32
80000750:	ce22                	sw	s0,28(sp)
80000752:	1000                	addi	s0,sp,32
80000754:	fea42623          	sw	a0,-20(s0)
80000758:	87ae                	mv	a5,a1
8000075a:	fef405a3          	sb	a5,-21(s0)
    PLIC->PRI[isr_num] = pri;
8000075e:	0c0006b7          	lui	a3,0xc000
80000762:	feb44703          	lbu	a4,-21(s0)
80000766:	fec42783          	lw	a5,-20(s0)
8000076a:	078a                	slli	a5,a5,0x2
8000076c:	97b6                	add	a5,a5,a3
8000076e:	c398                	sw	a4,0(a5)
}
80000770:	0001                	nop
80000772:	4472                	lw	s0,28(sp)
80000774:	6105                	addi	sp,sp,32
80000776:	8082                	ret

80000778 <PLIC_IntEnable>:
/*
 * Enable PLIC irq
 */

void PLIC_IntEnable (uint8_t target, uint32_t isr_num)
{
80000778:	7179                	addi	sp,sp,-48
8000077a:	d622                	sw	s0,44(sp)
8000077c:	1800                	addi	s0,sp,48
8000077e:	87aa                	mv	a5,a0
80000780:	fcb42c23          	sw	a1,-40(s0)
80000784:	fcf40fa3          	sb	a5,-33(s0)
	uint32_t value;

	//read - modify - write operation

    if(target == Plic_Mach_Target) {
80000788:	fdf44783          	lbu	a5,-33(s0)
8000078c:	eb9d                	bnez	a5,800007c2 <PLIC_IntEnable+0x4a>
    	value  = PLIC->MIEM0;
8000078e:	0c000737          	lui	a4,0xc000
80000792:	6789                	lui	a5,0x2
80000794:	97ba                	add	a5,a5,a4
80000796:	439c                	lw	a5,0(a5)
80000798:	fef42623          	sw	a5,-20(s0)
    	value |= (1<<isr_num);
8000079c:	fd842783          	lw	a5,-40(s0)
800007a0:	4705                	li	a4,1
800007a2:	00f717b3          	sll	a5,a4,a5
800007a6:	873e                	mv	a4,a5
800007a8:	fec42783          	lw	a5,-20(s0)
800007ac:	8fd9                	or	a5,a5,a4
800007ae:	fef42623          	sw	a5,-20(s0)
    	PLIC->MIEM0 = value;
800007b2:	0c000737          	lui	a4,0xc000
800007b6:	6789                	lui	a5,0x2
800007b8:	97ba                	add	a5,a5,a4
800007ba:	fec42703          	lw	a4,-20(s0)
800007be:	c398                	sw	a4,0(a5)
    } else {
    	value = PLIC->UIEM0;
    	value |= (1<<isr_num);
    	PLIC->UIEM0 = value;
    }
}
800007c0:	a825                	j	800007f8 <PLIC_IntEnable+0x80>
    	value = PLIC->UIEM0;
800007c2:	0c000737          	lui	a4,0xc000
800007c6:	6789                	lui	a5,0x2
800007c8:	97ba                	add	a5,a5,a4
800007ca:	0807a783          	lw	a5,128(a5) # 2080 <STACK_SIZE+0x1880>
800007ce:	fef42623          	sw	a5,-20(s0)
    	value |= (1<<isr_num);
800007d2:	fd842783          	lw	a5,-40(s0)
800007d6:	4705                	li	a4,1
800007d8:	00f717b3          	sll	a5,a4,a5
800007dc:	873e                	mv	a4,a5
800007de:	fec42783          	lw	a5,-20(s0)
800007e2:	8fd9                	or	a5,a5,a4
800007e4:	fef42623          	sw	a5,-20(s0)
    	PLIC->UIEM0 = value;
800007e8:	0c000737          	lui	a4,0xc000
800007ec:	6789                	lui	a5,0x2
800007ee:	97ba                	add	a5,a5,a4
800007f0:	fec42703          	lw	a4,-20(s0)
800007f4:	08e7a023          	sw	a4,128(a5) # 2080 <STACK_SIZE+0x1880>
}
800007f8:	0001                	nop
800007fa:	5432                	lw	s0,44(sp)
800007fc:	6145                	addi	sp,sp,48
800007fe:	8082                	ret

80000800 <SetIrqHandler>:

void SetIrqHandler(Plic_IsrVect_TypeDef IsrVector, irqfunc* IRQHandler,uint8_t Priority)
{
80000800:	1101                	addi	sp,sp,-32
80000802:	ce06                	sw	ra,28(sp)
80000804:	cc22                	sw	s0,24(sp)
80000806:	1000                	addi	s0,sp,32
80000808:	fea42623          	sw	a0,-20(s0)
8000080c:	feb42423          	sw	a1,-24(s0)
80000810:	87b2                	mv	a5,a2
80000812:	fef403a3          	sb	a5,-25(s0)
	PLIC_SetIrqHandler (Plic_Mach_Target,IsrVector,IRQHandler);
80000816:	fe842603          	lw	a2,-24(s0)
8000081a:	fec42583          	lw	a1,-20(s0)
8000081e:	4501                	li	a0,0
80000820:	35cd                	jal	80000702 <PLIC_SetIrqHandler>
	PLIC_SetPriority   (IsrVector, Priority);
80000822:	fe744783          	lbu	a5,-25(s0)
80000826:	85be                	mv	a1,a5
80000828:	fec42503          	lw	a0,-20(s0)
8000082c:	370d                	jal	8000074e <PLIC_SetPriority>
	PLIC_IntEnable     (Plic_Mach_Target, IsrVector);
8000082e:	fec42583          	lw	a1,-20(s0)
80000832:	4501                	li	a0,0
80000834:	3791                	jal	80000778 <PLIC_IntEnable>
}
80000836:	0001                	nop
80000838:	40f2                	lw	ra,28(sp)
8000083a:	4462                	lw	s0,24(sp)
8000083c:	6105                	addi	sp,sp,32
8000083e:	8082                	ret

80000840 <PLIC_IntDisable>:
/*
 * Disable PLIC irq
 */

void PLIC_IntDisable (uint8_t target, uint32_t isr_num)
{
80000840:	7179                	addi	sp,sp,-48
80000842:	d622                	sw	s0,44(sp)
80000844:	1800                	addi	s0,sp,48
80000846:	87aa                	mv	a5,a0
80000848:	fcb42c23          	sw	a1,-40(s0)
8000084c:	fcf40fa3          	sb	a5,-33(s0)
	uint32_t value;

	//read - modify - write operation

	if(target == Plic_Mach_Target) {
80000850:	fdf44783          	lbu	a5,-33(s0)
80000854:	ef8d                	bnez	a5,8000088e <PLIC_IntDisable+0x4e>
		value  = PLIC->MIEM0;
80000856:	0c000737          	lui	a4,0xc000
8000085a:	6789                	lui	a5,0x2
8000085c:	97ba                	add	a5,a5,a4
8000085e:	439c                	lw	a5,0(a5)
80000860:	fef42623          	sw	a5,-20(s0)
		value &= ~(1<<isr_num);
80000864:	fd842783          	lw	a5,-40(s0)
80000868:	4705                	li	a4,1
8000086a:	00f717b3          	sll	a5,a4,a5
8000086e:	fff7c793          	not	a5,a5
80000872:	873e                	mv	a4,a5
80000874:	fec42783          	lw	a5,-20(s0)
80000878:	8ff9                	and	a5,a5,a4
8000087a:	fef42623          	sw	a5,-20(s0)
		PLIC->MIEM0 = value;
8000087e:	0c000737          	lui	a4,0xc000
80000882:	6789                	lui	a5,0x2
80000884:	97ba                	add	a5,a5,a4
80000886:	fec42703          	lw	a4,-20(s0)
8000088a:	c398                	sw	a4,0(a5)
	} else {
		value  = PLIC->UIEM0;
		value &= ~(1<<isr_num);
		PLIC->UIEM0 = value;
	}
}
8000088c:	a835                	j	800008c8 <PLIC_IntDisable+0x88>
		value  = PLIC->UIEM0;
8000088e:	0c000737          	lui	a4,0xc000
80000892:	6789                	lui	a5,0x2
80000894:	97ba                	add	a5,a5,a4
80000896:	0807a783          	lw	a5,128(a5) # 2080 <STACK_SIZE+0x1880>
8000089a:	fef42623          	sw	a5,-20(s0)
		value &= ~(1<<isr_num);
8000089e:	fd842783          	lw	a5,-40(s0)
800008a2:	4705                	li	a4,1
800008a4:	00f717b3          	sll	a5,a4,a5
800008a8:	fff7c793          	not	a5,a5
800008ac:	873e                	mv	a4,a5
800008ae:	fec42783          	lw	a5,-20(s0)
800008b2:	8ff9                	and	a5,a5,a4
800008b4:	fef42623          	sw	a5,-20(s0)
		PLIC->UIEM0 = value;
800008b8:	0c000737          	lui	a4,0xc000
800008bc:	6789                	lui	a5,0x2
800008be:	97ba                	add	a5,a5,a4
800008c0:	fec42703          	lw	a4,-20(s0)
800008c4:	08e7a023          	sw	a4,128(a5) # 2080 <STACK_SIZE+0x1880>
}
800008c8:	0001                	nop
800008ca:	5432                	lw	s0,44(sp)
800008cc:	6145                	addi	sp,sp,48
800008ce:	8082                	ret

800008d0 <PLIC_ClaimIrq>:
/*
 * Get current isr number
 */

uint32_t PLIC_ClaimIrq (uint8_t target)
{
800008d0:	1101                	addi	sp,sp,-32
800008d2:	ce22                	sw	s0,28(sp)
800008d4:	1000                	addi	s0,sp,32
800008d6:	87aa                	mv	a5,a0
800008d8:	fef407a3          	sb	a5,-17(s0)
	if(target == Plic_Mach_Target) {
800008dc:	fef44783          	lbu	a5,-17(s0)
800008e0:	eb81                	bnez	a5,800008f0 <PLIC_ClaimIrq+0x20>
		return (uint32_t)(PLIC->MICC);
800008e2:	0c000737          	lui	a4,0xc000
800008e6:	002007b7          	lui	a5,0x200
800008ea:	97ba                	add	a5,a5,a4
800008ec:	43dc                	lw	a5,4(a5)
800008ee:	a039                	j	800008fc <PLIC_ClaimIrq+0x2c>
	} else {
		return (uint32_t)(PLIC->UICC);
800008f0:	0c000737          	lui	a4,0xc000
800008f4:	002017b7          	lui	a5,0x201
800008f8:	97ba                	add	a5,a5,a4
800008fa:	43dc                	lw	a5,4(a5)
	}
}
800008fc:	853e                	mv	a0,a5
800008fe:	4472                	lw	s0,28(sp)
80000900:	6105                	addi	sp,sp,32
80000902:	8082                	ret

80000904 <PLIC_ClaimComplete>:
/*
 * Set current isr as completed
 */

void PLIC_ClaimComplete (uint8_t target, uint32_t isrnum)
{
80000904:	1101                	addi	sp,sp,-32
80000906:	ce22                	sw	s0,28(sp)
80000908:	1000                	addi	s0,sp,32
8000090a:	87aa                	mv	a5,a0
8000090c:	feb42423          	sw	a1,-24(s0)
80000910:	fef407a3          	sb	a5,-17(s0)
	if(target == Plic_Mach_Target) {
80000914:	fef44783          	lbu	a5,-17(s0)
80000918:	eb91                	bnez	a5,8000092c <PLIC_ClaimComplete+0x28>
		PLIC->MICC = isrnum;
8000091a:	0c000737          	lui	a4,0xc000
8000091e:	002007b7          	lui	a5,0x200
80000922:	97ba                	add	a5,a5,a4
80000924:	fe842703          	lw	a4,-24(s0)
80000928:	c3d8                	sw	a4,4(a5)
	} else {
		PLIC->UICC = isrnum;
	}
}
8000092a:	a809                	j	8000093c <PLIC_ClaimComplete+0x38>
		PLIC->UICC = isrnum;
8000092c:	0c000737          	lui	a4,0xc000
80000930:	002017b7          	lui	a5,0x201
80000934:	97ba                	add	a5,a5,a4
80000936:	fe842703          	lw	a4,-24(s0)
8000093a:	c3d8                	sw	a4,4(a5)
}
8000093c:	0001                	nop
8000093e:	4472                	lw	s0,28(sp)
80000940:	6105                	addi	sp,sp,32
80000942:	8082                	ret

80000944 <PLIC_SetThreshold>:

/*
 * Set threshold for irqs
 */

void PLIC_SetThreshold(uint8_t target, uint32_t value) {
80000944:	1101                	addi	sp,sp,-32
80000946:	ce22                	sw	s0,28(sp)
80000948:	1000                	addi	s0,sp,32
8000094a:	87aa                	mv	a5,a0
8000094c:	feb42423          	sw	a1,-24(s0)
80000950:	fef407a3          	sb	a5,-17(s0)
	if(target == Plic_Mach_Target) {
80000954:	fef44783          	lbu	a5,-17(s0)
80000958:	eb91                	bnez	a5,8000096c <PLIC_SetThreshold+0x28>
		PLIC->MTHR = value;
8000095a:	0c000737          	lui	a4,0xc000
8000095e:	002007b7          	lui	a5,0x200
80000962:	97ba                	add	a5,a5,a4
80000964:	fe842703          	lw	a4,-24(s0)
80000968:	c398                	sw	a4,0(a5)
	} else {
		PLIC->UTHR = value;
	}
}
8000096a:	a809                	j	8000097c <PLIC_SetThreshold+0x38>
		PLIC->UTHR = value;
8000096c:	0c000737          	lui	a4,0xc000
80000970:	002017b7          	lui	a5,0x201
80000974:	97ba                	add	a5,a5,a4
80000976:	fe842703          	lw	a4,-24(s0)
8000097a:	c398                	sw	a4,0(a5)
}
8000097c:	0001                	nop
8000097e:	4472                	lw	s0,28(sp)
80000980:	6105                	addi	sp,sp,32
80000982:	8082                	ret

80000984 <PLIC_MachHandler>:


void PLIC_MachHandler(void) {
80000984:	1101                	addi	sp,sp,-32
80000986:	ce06                	sw	ra,28(sp)
80000988:	cc22                	sw	s0,24(sp)
8000098a:	1000                	addi	s0,sp,32

	// handle interrupt
	uint32_t isr_num = PLIC_ClaimIrq(Plic_Mach_Target);
8000098c:	4501                	li	a0,0
8000098e:	3789                	jal	800008d0 <PLIC_ClaimIrq>
80000990:	fea42623          	sw	a0,-20(s0)
	// check if handler exist
	if(mach_plic_handler[isr_num] != NULL_IRQ) {
80000994:	400007b7          	lui	a5,0x40000
80000998:	00878713          	addi	a4,a5,8 # 40000008 <mach_plic_handler>
8000099c:	fec42783          	lw	a5,-20(s0)
800009a0:	078a                	slli	a5,a5,0x2
800009a2:	97ba                	add	a5,a5,a4
800009a4:	439c                	lw	a5,0(a5)
800009a6:	cf99                	beqz	a5,800009c4 <PLIC_MachHandler+0x40>
		// call isr handler
		mach_plic_handler[isr_num]();
800009a8:	400007b7          	lui	a5,0x40000
800009ac:	00878713          	addi	a4,a5,8 # 40000008 <mach_plic_handler>
800009b0:	fec42783          	lw	a5,-20(s0)
800009b4:	078a                	slli	a5,a5,0x2
800009b6:	97ba                	add	a5,a5,a4
800009b8:	439c                	lw	a5,0(a5)
800009ba:	9782                	jalr	a5
		// set isr completes
		PLIC_ClaimComplete(Plic_Mach_Target, isr_num);
800009bc:	fec42583          	lw	a1,-20(s0)
800009c0:	4501                	li	a0,0
800009c2:	3789                	jal	80000904 <PLIC_ClaimComplete>
	}
}
800009c4:	0001                	nop
800009c6:	40f2                	lw	ra,28(sp)
800009c8:	4462                	lw	s0,24(sp)
800009ca:	6105                	addi	sp,sp,32
800009cc:	8082                	ret

800009ce <trap_handler>:
#define MCAUSE_EXCEPT_STAMOADDRMISALGN  0x6
#define MCAUSE_EXCEPT_STAMOACCSFAULT    0x7
#define MCAUSE_EXCEPT_ECALLFRM_M_MODE   0xB

void trap_handler (void)
{
800009ce:	7179                	addi	sp,sp,-48
800009d0:	d606                	sw	ra,44(sp)
800009d2:	d422                	sw	s0,40(sp)
800009d4:	1800                	addi	s0,sp,48
	uint32_t mcause_val = read_csr(mcause);
800009d6:	342027f3          	csrr	a5,mcause
800009da:	fef42623          	sw	a5,-20(s0)
800009de:	fec42783          	lw	a5,-20(s0)
800009e2:	fef42423          	sw	a5,-24(s0)
	uint32_t mepc = read_csr(0x341);   // mepc
800009e6:	341027f3          	csrr	a5,mepc
800009ea:	fef42223          	sw	a5,-28(s0)
800009ee:	fe442783          	lw	a5,-28(s0)
800009f2:	fef42023          	sw	a5,-32(s0)

	if((mcause_val & MCAUSE_INTERRUPT_FLAG) == 0) {
800009f6:	fe842783          	lw	a5,-24(s0)
800009fa:	0207ce63          	bltz	a5,80000a36 <trap_handler+0x68>
		// handle exception
		switch (mcause_val & MCAUSE_EXCEPT_MASK)
800009fe:	fe842783          	lw	a5,-24(s0)
80000a02:	8bbd                	andi	a5,a5,15
80000a04:	472d                	li	a4,11
80000a06:	02f76563          	bltu	a4,a5,80000a30 <trap_handler+0x62>
80000a0a:	00279713          	slli	a4,a5,0x2
80000a0e:	800077b7          	lui	a5,0x80007
80000a12:	5c878793          	addi	a5,a5,1480 # 800075c8 <__data_source_start+0xfffffc80>
80000a16:	97ba                	add	a5,a5,a4
80000a18:	439c                	lw	a5,0(a5)
80000a1a:	8782                	jr	a5
			case MCAUSE_EXCEPT_STAMOADDRMISALGN:
				break;
			case MCAUSE_EXCEPT_STAMOACCSFAULT:
				break;
			case MCAUSE_EXCEPT_ECALLFRM_M_MODE:
				write_csr(0x341, mepc + 4);    // mepc += 4
80000a1c:	fe042783          	lw	a5,-32(s0)
80000a20:	0791                	addi	a5,a5,4
80000a22:	fcf42e23          	sw	a5,-36(s0)
80000a26:	fdc42783          	lw	a5,-36(s0)
80000a2a:	34179073          	csrw	mepc,a5
				break;
80000a2e:	a011                	j	80000a32 <trap_handler+0x64>

			default: // MCAUSE_EXCEPT UNKNOWN

				break;
80000a30:	0001                	nop
		}

		while(1) {}; //TRAP
80000a32:	0001                	nop
80000a34:	bffd                	j	80000a32 <trap_handler+0x64>
	} else {
		// handle interrupt
		PLIC_MachHandler();
80000a36:	37b9                	jal	80000984 <PLIC_MachHandler>
	}
}
80000a38:	0001                	nop
80000a3a:	50b2                	lw	ra,44(sp)
80000a3c:	5422                	lw	s0,40(sp)
80000a3e:	6145                	addi	sp,sp,48
80000a40:	8082                	ret

80000a42 <PrintChar>:
 *
 * @param  pStr	Storage string.
 * @param  c    Character to write.
 */
void PrintChar(char c)
{
80000a42:	1101                	addi	sp,sp,-32
80000a44:	ce06                	sw	ra,28(sp)
80000a46:	cc22                	sw	s0,24(sp)
80000a48:	1000                	addi	s0,sp,32
80000a4a:	87aa                	mv	a5,a0
80000a4c:	fef407a3          	sb	a5,-17(s0)
	retarget_put_char(c);
80000a50:	fef44783          	lbu	a5,-17(s0)
80000a54:	853e                	mv	a0,a5
80000a56:	349000ef          	jal	ra,8000159e <retarget_put_char>
}
80000a5a:	0001                	nop
80000a5c:	40f2                	lw	ra,28(sp)
80000a5e:	4462                	lw	s0,24(sp)
80000a60:	6105                	addi	sp,sp,32
80000a62:	8082                	ret

80000a64 <PutChar>:
 *
 * @param  pStr	Storage string.
 * @param  c    Character to write.
 */
signed int PutChar(char *pStr, char c)
{
80000a64:	1101                	addi	sp,sp,-32
80000a66:	ce22                	sw	s0,28(sp)
80000a68:	1000                	addi	s0,sp,32
80000a6a:	fea42623          	sw	a0,-20(s0)
80000a6e:	87ae                	mv	a5,a1
80000a70:	fef405a3          	sb	a5,-21(s0)
    *pStr = c;
80000a74:	fec42783          	lw	a5,-20(s0)
80000a78:	feb44703          	lbu	a4,-21(s0)
80000a7c:	00e78023          	sb	a4,0(a5)
    return 1;
80000a80:	4785                	li	a5,1
}
80000a82:	853e                	mv	a0,a5
80000a84:	4472                	lw	s0,28(sp)
80000a86:	6105                	addi	sp,sp,32
80000a88:	8082                	ret

80000a8a <PutString>:
 * @param  pStr     Storage string.
 * @param  pSource  Source string.
 * @return  The size of the written
 */
signed int PutString(char *pStr, const char *pSource)
{
80000a8a:	7179                	addi	sp,sp,-48
80000a8c:	d622                	sw	s0,44(sp)
80000a8e:	1800                	addi	s0,sp,48
80000a90:	fca42e23          	sw	a0,-36(s0)
80000a94:	fcb42c23          	sw	a1,-40(s0)
    signed int num = 0;
80000a98:	fe042623          	sw	zero,-20(s0)

    while (*pSource != 0) {
80000a9c:	a035                	j	80000ac8 <PutString+0x3e>

        *pStr++ = *pSource++;
80000a9e:	fd842703          	lw	a4,-40(s0)
80000aa2:	00170793          	addi	a5,a4,1 # c000001 <STACK_SIZE+0xbfff801>
80000aa6:	fcf42c23          	sw	a5,-40(s0)
80000aaa:	fdc42783          	lw	a5,-36(s0)
80000aae:	00178693          	addi	a3,a5,1
80000ab2:	fcd42e23          	sw	a3,-36(s0)
80000ab6:	00074703          	lbu	a4,0(a4)
80000aba:	00e78023          	sb	a4,0(a5)
        num++;
80000abe:	fec42783          	lw	a5,-20(s0)
80000ac2:	0785                	addi	a5,a5,1
80000ac4:	fef42623          	sw	a5,-20(s0)
    while (*pSource != 0) {
80000ac8:	fd842783          	lw	a5,-40(s0)
80000acc:	0007c783          	lbu	a5,0(a5)
80000ad0:	f7f9                	bnez	a5,80000a9e <PutString+0x14>
    }

    return num;
80000ad2:	fec42783          	lw	a5,-20(s0)
}
80000ad6:	853e                	mv	a0,a5
80000ad8:	5432                	lw	s0,44(sp)
80000ada:	6145                	addi	sp,sp,48
80000adc:	8082                	ret

80000ade <PutUnsignedInt>:
signed int PutUnsignedInt(
    char *pStr,
    char fill,
    signed int width,
    unsigned int value)
{
80000ade:	7179                	addi	sp,sp,-48
80000ae0:	d606                	sw	ra,44(sp)
80000ae2:	d422                	sw	s0,40(sp)
80000ae4:	1800                	addi	s0,sp,48
80000ae6:	fca42e23          	sw	a0,-36(s0)
80000aea:	87ae                	mv	a5,a1
80000aec:	fcc42a23          	sw	a2,-44(s0)
80000af0:	fcd42823          	sw	a3,-48(s0)
80000af4:	fcf40da3          	sb	a5,-37(s0)
    signed int num = 0;
80000af8:	fe042623          	sw	zero,-20(s0)

    /* Take current digit into account when calculating width */
    width--;
80000afc:	fd442783          	lw	a5,-44(s0)
80000b00:	17fd                	addi	a5,a5,-1
80000b02:	fcf42a23          	sw	a5,-44(s0)

    /* Recursively write upper digits */
    if ((value / 10) > 0) {
80000b06:	fd042703          	lw	a4,-48(s0)
80000b0a:	47a5                	li	a5,9
80000b0c:	04e7ff63          	bgeu	a5,a4,80000b6a <PutUnsignedInt+0x8c>

        num = PutUnsignedInt(pStr, fill, width, value / 10);
80000b10:	fd042703          	lw	a4,-48(s0)
80000b14:	47a9                	li	a5,10
80000b16:	02f75733          	divu	a4,a4,a5
80000b1a:	fdb44783          	lbu	a5,-37(s0)
80000b1e:	86ba                	mv	a3,a4
80000b20:	fd442603          	lw	a2,-44(s0)
80000b24:	85be                	mv	a1,a5
80000b26:	fdc42503          	lw	a0,-36(s0)
80000b2a:	3f55                	jal	80000ade <PutUnsignedInt>
80000b2c:	fea42623          	sw	a0,-20(s0)
        pStr += num;
80000b30:	fec42783          	lw	a5,-20(s0)
80000b34:	fdc42703          	lw	a4,-36(s0)
80000b38:	97ba                	add	a5,a5,a4
80000b3a:	fcf42e23          	sw	a5,-36(s0)
80000b3e:	a815                	j	80000b72 <PutUnsignedInt+0x94>
    /* Write filler characters */
    else {

        while (width > 0) {

            PutChar(pStr, fill);
80000b40:	fdb44783          	lbu	a5,-37(s0)
80000b44:	85be                	mv	a1,a5
80000b46:	fdc42503          	lw	a0,-36(s0)
80000b4a:	3f29                	jal	80000a64 <PutChar>
            pStr++;
80000b4c:	fdc42783          	lw	a5,-36(s0)
80000b50:	0785                	addi	a5,a5,1
80000b52:	fcf42e23          	sw	a5,-36(s0)
            num++;
80000b56:	fec42783          	lw	a5,-20(s0)
80000b5a:	0785                	addi	a5,a5,1
80000b5c:	fef42623          	sw	a5,-20(s0)
            width--;
80000b60:	fd442783          	lw	a5,-44(s0)
80000b64:	17fd                	addi	a5,a5,-1
80000b66:	fcf42a23          	sw	a5,-44(s0)
        while (width > 0) {
80000b6a:	fd442783          	lw	a5,-44(s0)
80000b6e:	fcf049e3          	bgtz	a5,80000b40 <PutUnsignedInt+0x62>
        }
    }

    /* Write lower digit */
    num += PutChar(pStr, (value % 10) + '0');
80000b72:	fd042703          	lw	a4,-48(s0)
80000b76:	47a9                	li	a5,10
80000b78:	02f777b3          	remu	a5,a4,a5
80000b7c:	0ff7f793          	zext.b	a5,a5
80000b80:	03078793          	addi	a5,a5,48
80000b84:	0ff7f793          	zext.b	a5,a5
80000b88:	85be                	mv	a1,a5
80000b8a:	fdc42503          	lw	a0,-36(s0)
80000b8e:	3dd9                	jal	80000a64 <PutChar>
80000b90:	872a                	mv	a4,a0
80000b92:	fec42783          	lw	a5,-20(s0)
80000b96:	97ba                	add	a5,a5,a4
80000b98:	fef42623          	sw	a5,-20(s0)

    return num;
80000b9c:	fec42783          	lw	a5,-20(s0)
}
80000ba0:	853e                	mv	a0,a5
80000ba2:	50b2                	lw	ra,44(sp)
80000ba4:	5422                	lw	s0,40(sp)
80000ba6:	6145                	addi	sp,sp,48
80000ba8:	8082                	ret

80000baa <PutSignedInt>:
signed int PutSignedInt(
    char *pStr,
    char fill,
    signed int width,
    signed int value)
{
80000baa:	7179                	addi	sp,sp,-48
80000bac:	d606                	sw	ra,44(sp)
80000bae:	d422                	sw	s0,40(sp)
80000bb0:	1800                	addi	s0,sp,48
80000bb2:	fca42e23          	sw	a0,-36(s0)
80000bb6:	87ae                	mv	a5,a1
80000bb8:	fcc42a23          	sw	a2,-44(s0)
80000bbc:	fcd42823          	sw	a3,-48(s0)
80000bc0:	fcf40da3          	sb	a5,-37(s0)
    signed int num = 0;
80000bc4:	fe042623          	sw	zero,-20(s0)
    unsigned int absolute;

    /* Compute absolute value */
    if (value < 0) {
80000bc8:	fd042783          	lw	a5,-48(s0)
80000bcc:	0007d963          	bgez	a5,80000bde <PutSignedInt+0x34>

        absolute = -value;
80000bd0:	fd042783          	lw	a5,-48(s0)
80000bd4:	40f007b3          	neg	a5,a5
80000bd8:	fef42423          	sw	a5,-24(s0)
80000bdc:	a029                	j	80000be6 <PutSignedInt+0x3c>
    }
    else {

        absolute = value;
80000bde:	fd042783          	lw	a5,-48(s0)
80000be2:	fef42423          	sw	a5,-24(s0)
    }

    /* Take current digit into account when calculating width */
    width--;
80000be6:	fd442783          	lw	a5,-44(s0)
80000bea:	17fd                	addi	a5,a5,-1
80000bec:	fcf42a23          	sw	a5,-44(s0)

    /* Recursively write upper digits */
    if ((absolute / 10) > 0) {
80000bf0:	fe842703          	lw	a4,-24(s0)
80000bf4:	47a5                	li	a5,9
80000bf6:	06e7f363          	bgeu	a5,a4,80000c5c <PutSignedInt+0xb2>

        if (value < 0) {
80000bfa:	fd042783          	lw	a5,-48(s0)
80000bfe:	0207d663          	bgez	a5,80000c2a <PutSignedInt+0x80>

            num = PutSignedInt(pStr, fill, width, -(absolute / 10));
80000c02:	fe842703          	lw	a4,-24(s0)
80000c06:	47a9                	li	a5,10
80000c08:	02f757b3          	divu	a5,a4,a5
80000c0c:	40f007b3          	neg	a5,a5
80000c10:	873e                	mv	a4,a5
80000c12:	fdb44783          	lbu	a5,-37(s0)
80000c16:	86ba                	mv	a3,a4
80000c18:	fd442603          	lw	a2,-44(s0)
80000c1c:	85be                	mv	a1,a5
80000c1e:	fdc42503          	lw	a0,-36(s0)
80000c22:	3761                	jal	80000baa <PutSignedInt>
80000c24:	fea42623          	sw	a0,-20(s0)
80000c28:	a015                	j	80000c4c <PutSignedInt+0xa2>
        }
        else {

            num = PutSignedInt(pStr, fill, width, absolute / 10);
80000c2a:	fe842703          	lw	a4,-24(s0)
80000c2e:	47a9                	li	a5,10
80000c30:	02f757b3          	divu	a5,a4,a5
80000c34:	873e                	mv	a4,a5
80000c36:	fdb44783          	lbu	a5,-37(s0)
80000c3a:	86ba                	mv	a3,a4
80000c3c:	fd442603          	lw	a2,-44(s0)
80000c40:	85be                	mv	a1,a5
80000c42:	fdc42503          	lw	a0,-36(s0)
80000c46:	3795                	jal	80000baa <PutSignedInt>
80000c48:	fea42623          	sw	a0,-20(s0)
        }
        pStr += num;
80000c4c:	fec42783          	lw	a5,-20(s0)
80000c50:	fdc42703          	lw	a4,-36(s0)
80000c54:	97ba                	add	a5,a5,a4
80000c56:	fcf42e23          	sw	a5,-36(s0)
80000c5a:	a885                	j	80000cca <PutSignedInt+0x120>
    }
    else {

        /* Reserve space for sign */
        if (value < 0) {
80000c5c:	fd042783          	lw	a5,-48(s0)
80000c60:	0207dd63          	bgez	a5,80000c9a <PutSignedInt+0xf0>

            width--;
80000c64:	fd442783          	lw	a5,-44(s0)
80000c68:	17fd                	addi	a5,a5,-1
80000c6a:	fcf42a23          	sw	a5,-44(s0)
        }

        /* Write filler characters */
        while (width > 0) {
80000c6e:	a035                	j	80000c9a <PutSignedInt+0xf0>

            PutChar(pStr, fill);
80000c70:	fdb44783          	lbu	a5,-37(s0)
80000c74:	85be                	mv	a1,a5
80000c76:	fdc42503          	lw	a0,-36(s0)
80000c7a:	33ed                	jal	80000a64 <PutChar>
            pStr++;
80000c7c:	fdc42783          	lw	a5,-36(s0)
80000c80:	0785                	addi	a5,a5,1
80000c82:	fcf42e23          	sw	a5,-36(s0)
            num++;
80000c86:	fec42783          	lw	a5,-20(s0)
80000c8a:	0785                	addi	a5,a5,1
80000c8c:	fef42623          	sw	a5,-20(s0)
            width--;
80000c90:	fd442783          	lw	a5,-44(s0)
80000c94:	17fd                	addi	a5,a5,-1
80000c96:	fcf42a23          	sw	a5,-44(s0)
        while (width > 0) {
80000c9a:	fd442783          	lw	a5,-44(s0)
80000c9e:	fcf049e3          	bgtz	a5,80000c70 <PutSignedInt+0xc6>
        }

        /* Write sign */
        if (value < 0) {
80000ca2:	fd042783          	lw	a5,-48(s0)
80000ca6:	0207d263          	bgez	a5,80000cca <PutSignedInt+0x120>

            num += PutChar(pStr, '-');
80000caa:	02d00593          	li	a1,45
80000cae:	fdc42503          	lw	a0,-36(s0)
80000cb2:	3b4d                	jal	80000a64 <PutChar>
80000cb4:	872a                	mv	a4,a0
80000cb6:	fec42783          	lw	a5,-20(s0)
80000cba:	97ba                	add	a5,a5,a4
80000cbc:	fef42623          	sw	a5,-20(s0)
            pStr++;
80000cc0:	fdc42783          	lw	a5,-36(s0)
80000cc4:	0785                	addi	a5,a5,1
80000cc6:	fcf42e23          	sw	a5,-36(s0)
        }
    }

    /* Write lower digit */
    num += PutChar(pStr, (absolute % 10) + '0');
80000cca:	fe842703          	lw	a4,-24(s0)
80000cce:	47a9                	li	a5,10
80000cd0:	02f777b3          	remu	a5,a4,a5
80000cd4:	0ff7f793          	zext.b	a5,a5
80000cd8:	03078793          	addi	a5,a5,48
80000cdc:	0ff7f793          	zext.b	a5,a5
80000ce0:	85be                	mv	a1,a5
80000ce2:	fdc42503          	lw	a0,-36(s0)
80000ce6:	3bbd                	jal	80000a64 <PutChar>
80000ce8:	872a                	mv	a4,a0
80000cea:	fec42783          	lw	a5,-20(s0)
80000cee:	97ba                	add	a5,a5,a4
80000cf0:	fef42623          	sw	a5,-20(s0)

    return num;
80000cf4:	fec42783          	lw	a5,-20(s0)
}
80000cf8:	853e                	mv	a0,a5
80000cfa:	50b2                	lw	ra,44(sp)
80000cfc:	5422                	lw	s0,40(sp)
80000cfe:	6145                	addi	sp,sp,48
80000d00:	8082                	ret

80000d02 <PutHexa>:
    char *pStr,
    char fill,
    signed int width,
    unsigned char maj,
    unsigned int value)
{
80000d02:	7179                	addi	sp,sp,-48
80000d04:	d606                	sw	ra,44(sp)
80000d06:	d422                	sw	s0,40(sp)
80000d08:	1800                	addi	s0,sp,48
80000d0a:	fca42e23          	sw	a0,-36(s0)
80000d0e:	87ae                	mv	a5,a1
80000d10:	fcc42a23          	sw	a2,-44(s0)
80000d14:	fce42823          	sw	a4,-48(s0)
80000d18:	fcf40da3          	sb	a5,-37(s0)
80000d1c:	87b6                	mv	a5,a3
80000d1e:	fcf40d23          	sb	a5,-38(s0)
    signed int num = 0;
80000d22:	fe042623          	sw	zero,-20(s0)

    /* Decrement width */
    width--;
80000d26:	fd442783          	lw	a5,-44(s0)
80000d2a:	17fd                	addi	a5,a5,-1
80000d2c:	fcf42a23          	sw	a5,-44(s0)

    /* Recursively output upper digits */
    if ((value >> 4) > 0) {
80000d30:	fd042783          	lw	a5,-48(s0)
80000d34:	8391                	srli	a5,a5,0x4
80000d36:	c3b5                	beqz	a5,80000d9a <PutHexa+0x98>

        num += PutHexa(pStr, fill, width, maj, value >> 4);
80000d38:	fd042783          	lw	a5,-48(s0)
80000d3c:	0047d713          	srli	a4,a5,0x4
80000d40:	fda44683          	lbu	a3,-38(s0)
80000d44:	fdb44783          	lbu	a5,-37(s0)
80000d48:	fd442603          	lw	a2,-44(s0)
80000d4c:	85be                	mv	a1,a5
80000d4e:	fdc42503          	lw	a0,-36(s0)
80000d52:	3f45                	jal	80000d02 <PutHexa>
80000d54:	872a                	mv	a4,a0
80000d56:	fec42783          	lw	a5,-20(s0)
80000d5a:	97ba                	add	a5,a5,a4
80000d5c:	fef42623          	sw	a5,-20(s0)
        pStr += num;
80000d60:	fec42783          	lw	a5,-20(s0)
80000d64:	fdc42703          	lw	a4,-36(s0)
80000d68:	97ba                	add	a5,a5,a4
80000d6a:	fcf42e23          	sw	a5,-36(s0)
80000d6e:	a815                	j	80000da2 <PutHexa+0xa0>
    /* Write filler chars */
    else {

        while (width > 0) {

            PutChar(pStr, fill);
80000d70:	fdb44783          	lbu	a5,-37(s0)
80000d74:	85be                	mv	a1,a5
80000d76:	fdc42503          	lw	a0,-36(s0)
80000d7a:	31ed                	jal	80000a64 <PutChar>
            pStr++;
80000d7c:	fdc42783          	lw	a5,-36(s0)
80000d80:	0785                	addi	a5,a5,1
80000d82:	fcf42e23          	sw	a5,-36(s0)
            num++;
80000d86:	fec42783          	lw	a5,-20(s0)
80000d8a:	0785                	addi	a5,a5,1
80000d8c:	fef42623          	sw	a5,-20(s0)
            width--;
80000d90:	fd442783          	lw	a5,-44(s0)
80000d94:	17fd                	addi	a5,a5,-1
80000d96:	fcf42a23          	sw	a5,-44(s0)
        while (width > 0) {
80000d9a:	fd442783          	lw	a5,-44(s0)
80000d9e:	fcf049e3          	bgtz	a5,80000d70 <PutHexa+0x6e>
        }
    }

    /* Write current digit */
    if ((value & 0xF) < 10) {
80000da2:	fd042783          	lw	a5,-48(s0)
80000da6:	00f7f713          	andi	a4,a5,15
80000daa:	47a5                	li	a5,9
80000dac:	02e7e263          	bltu	a5,a4,80000dd0 <PutHexa+0xce>

        PutChar(pStr, (value & 0xF) + '0');
80000db0:	fd042783          	lw	a5,-48(s0)
80000db4:	0ff7f793          	zext.b	a5,a5
80000db8:	8bbd                	andi	a5,a5,15
80000dba:	0ff7f793          	zext.b	a5,a5
80000dbe:	03078793          	addi	a5,a5,48
80000dc2:	0ff7f793          	zext.b	a5,a5
80000dc6:	85be                	mv	a1,a5
80000dc8:	fdc42503          	lw	a0,-36(s0)
80000dcc:	3961                	jal	80000a64 <PutChar>
80000dce:	a099                	j	80000e14 <PutHexa+0x112>
    }
    else if (maj) {
80000dd0:	fda44783          	lbu	a5,-38(s0)
80000dd4:	c38d                	beqz	a5,80000df6 <PutHexa+0xf4>

        PutChar(pStr, (value & 0xF) - 10 + 'A');
80000dd6:	fd042783          	lw	a5,-48(s0)
80000dda:	0ff7f793          	zext.b	a5,a5
80000dde:	8bbd                	andi	a5,a5,15
80000de0:	0ff7f793          	zext.b	a5,a5
80000de4:	03778793          	addi	a5,a5,55
80000de8:	0ff7f793          	zext.b	a5,a5
80000dec:	85be                	mv	a1,a5
80000dee:	fdc42503          	lw	a0,-36(s0)
80000df2:	398d                	jal	80000a64 <PutChar>
80000df4:	a005                	j	80000e14 <PutHexa+0x112>
    }
    else {

        PutChar(pStr, (value & 0xF) - 10 + 'a');
80000df6:	fd042783          	lw	a5,-48(s0)
80000dfa:	0ff7f793          	zext.b	a5,a5
80000dfe:	8bbd                	andi	a5,a5,15
80000e00:	0ff7f793          	zext.b	a5,a5
80000e04:	05778793          	addi	a5,a5,87
80000e08:	0ff7f793          	zext.b	a5,a5
80000e0c:	85be                	mv	a1,a5
80000e0e:	fdc42503          	lw	a0,-36(s0)
80000e12:	3989                	jal	80000a64 <PutChar>
    }
    num++;
80000e14:	fec42783          	lw	a5,-20(s0)
80000e18:	0785                	addi	a5,a5,1
80000e1a:	fef42623          	sw	a5,-20(s0)

    return num;
80000e1e:	fec42783          	lw	a5,-20(s0)
}
80000e22:	853e                	mv	a0,a5
80000e24:	50b2                	lw	ra,44(sp)
80000e26:	5422                	lw	s0,40(sp)
80000e28:	6145                	addi	sp,sp,48
80000e2a:	8082                	ret

80000e2c <vsnprintf>:
 * @param ap      Argument list.
 *
 * @return  The number of characters written.
 */
signed int vsnprintf(char *pStr, size_t length, const char *pFormat, va_list ap)
{
80000e2c:	7179                	addi	sp,sp,-48
80000e2e:	d606                	sw	ra,44(sp)
80000e30:	d422                	sw	s0,40(sp)
80000e32:	1800                	addi	s0,sp,48
80000e34:	fca42e23          	sw	a0,-36(s0)
80000e38:	fcb42c23          	sw	a1,-40(s0)
80000e3c:	fcc42a23          	sw	a2,-44(s0)
80000e40:	fcd42823          	sw	a3,-48(s0)
    char          fill;
    unsigned char width;
    signed int    num = 0;
80000e44:	fe042423          	sw	zero,-24(s0)
    signed int    size = 0;
80000e48:	fe042223          	sw	zero,-28(s0)

    /* Clear the string */
    if (pStr) {
80000e4c:	fdc42783          	lw	a5,-36(s0)
80000e50:	26078163          	beqz	a5,800010b2 <vsnprintf+0x286>

        *pStr = 0;
80000e54:	fdc42783          	lw	a5,-36(s0)
80000e58:	00078023          	sb	zero,0(a5)
    }

    /* Phase string */
    while (*pFormat != 0 && size < length) {
80000e5c:	ac99                	j	800010b2 <vsnprintf+0x286>

        /* Normal character */
        if (*pFormat != '%') {
80000e5e:	fd442783          	lw	a5,-44(s0)
80000e62:	0007c703          	lbu	a4,0(a5)
80000e66:	02500793          	li	a5,37
80000e6a:	02f70863          	beq	a4,a5,80000e9a <vsnprintf+0x6e>

            *pStr++ = *pFormat++;
80000e6e:	fd442703          	lw	a4,-44(s0)
80000e72:	00170793          	addi	a5,a4,1
80000e76:	fcf42a23          	sw	a5,-44(s0)
80000e7a:	fdc42783          	lw	a5,-36(s0)
80000e7e:	00178693          	addi	a3,a5,1
80000e82:	fcd42e23          	sw	a3,-36(s0)
80000e86:	00074703          	lbu	a4,0(a4)
80000e8a:	00e78023          	sb	a4,0(a5)
            size++;
80000e8e:	fe442783          	lw	a5,-28(s0)
80000e92:	0785                	addi	a5,a5,1
80000e94:	fef42223          	sw	a5,-28(s0)
80000e98:	ac29                	j	800010b2 <vsnprintf+0x286>
        }
        /* Escaped '%' */
        else if (*(pFormat+1) == '%') {
80000e9a:	fd442783          	lw	a5,-44(s0)
80000e9e:	0785                	addi	a5,a5,1
80000ea0:	0007c703          	lbu	a4,0(a5)
80000ea4:	02500793          	li	a5,37
80000ea8:	02f71763          	bne	a4,a5,80000ed6 <vsnprintf+0xaa>

            *pStr++ = '%';
80000eac:	fdc42783          	lw	a5,-36(s0)
80000eb0:	00178713          	addi	a4,a5,1
80000eb4:	fce42e23          	sw	a4,-36(s0)
80000eb8:	02500713          	li	a4,37
80000ebc:	00e78023          	sb	a4,0(a5)
            pFormat += 2;
80000ec0:	fd442783          	lw	a5,-44(s0)
80000ec4:	0789                	addi	a5,a5,2
80000ec6:	fcf42a23          	sw	a5,-44(s0)
            size++;
80000eca:	fe442783          	lw	a5,-28(s0)
80000ece:	0785                	addi	a5,a5,1
80000ed0:	fef42223          	sw	a5,-28(s0)
80000ed4:	aaf9                	j	800010b2 <vsnprintf+0x286>
        }
        /* Token delimiter */
        else {

            fill = ' ';
80000ed6:	02000793          	li	a5,32
80000eda:	fef407a3          	sb	a5,-17(s0)
            width = 0;
80000ede:	fe040723          	sb	zero,-18(s0)
            pFormat++;
80000ee2:	fd442783          	lw	a5,-44(s0)
80000ee6:	0785                	addi	a5,a5,1
80000ee8:	fcf42a23          	sw	a5,-44(s0)

            /* Parse filler */
            if (*pFormat == '0') {
80000eec:	fd442783          	lw	a5,-44(s0)
80000ef0:	0007c703          	lbu	a4,0(a5)
80000ef4:	03000793          	li	a5,48
80000ef8:	04f71563          	bne	a4,a5,80000f42 <vsnprintf+0x116>

                fill = '0';
80000efc:	03000793          	li	a5,48
80000f00:	fef407a3          	sb	a5,-17(s0)
                pFormat++;
80000f04:	fd442783          	lw	a5,-44(s0)
80000f08:	0785                	addi	a5,a5,1
80000f0a:	fcf42a23          	sw	a5,-44(s0)
            }

            /* Parse width */
            while ((*pFormat >= '0') && (*pFormat <= '9')) {
80000f0e:	a815                	j	80000f42 <vsnprintf+0x116>

                width = (width*10) + *pFormat-'0';
80000f10:	fee44783          	lbu	a5,-18(s0)
80000f14:	873e                	mv	a4,a5
80000f16:	87ba                	mv	a5,a4
80000f18:	078a                	slli	a5,a5,0x2
80000f1a:	97ba                	add	a5,a5,a4
80000f1c:	0786                	slli	a5,a5,0x1
80000f1e:	0ff7f713          	zext.b	a4,a5
80000f22:	fd442783          	lw	a5,-44(s0)
80000f26:	0007c783          	lbu	a5,0(a5)
80000f2a:	97ba                	add	a5,a5,a4
80000f2c:	0ff7f793          	zext.b	a5,a5
80000f30:	fd078793          	addi	a5,a5,-48
80000f34:	fef40723          	sb	a5,-18(s0)
                pFormat++;
80000f38:	fd442783          	lw	a5,-44(s0)
80000f3c:	0785                	addi	a5,a5,1
80000f3e:	fcf42a23          	sw	a5,-44(s0)
            while ((*pFormat >= '0') && (*pFormat <= '9')) {
80000f42:	fd442783          	lw	a5,-44(s0)
80000f46:	0007c703          	lbu	a4,0(a5)
80000f4a:	02f00793          	li	a5,47
80000f4e:	00e7fa63          	bgeu	a5,a4,80000f62 <vsnprintf+0x136>
80000f52:	fd442783          	lw	a5,-44(s0)
80000f56:	0007c703          	lbu	a4,0(a5)
80000f5a:	03900793          	li	a5,57
80000f5e:	fae7f9e3          	bgeu	a5,a4,80000f10 <vsnprintf+0xe4>
            }

            /* Check if there is enough space */
            if (size + width > length) {
80000f62:	fee44703          	lbu	a4,-18(s0)
80000f66:	fe442783          	lw	a5,-28(s0)
80000f6a:	97ba                	add	a5,a5,a4
80000f6c:	873e                	mv	a4,a5
80000f6e:	fd842783          	lw	a5,-40(s0)
80000f72:	00e7fe63          	bgeu	a5,a4,80000f8e <vsnprintf+0x162>

                width = length - size;
80000f76:	fd842783          	lw	a5,-40(s0)
80000f7a:	0ff7f713          	zext.b	a4,a5
80000f7e:	fe442783          	lw	a5,-28(s0)
80000f82:	0ff7f793          	zext.b	a5,a5
80000f86:	40f707b3          	sub	a5,a4,a5
80000f8a:	fef40723          	sb	a5,-18(s0)
            }

            /* Parse type */
            switch (*pFormat) {
80000f8e:	fd442783          	lw	a5,-44(s0)
80000f92:	0007c783          	lbu	a5,0(a5)
80000f96:	fa878793          	addi	a5,a5,-88
80000f9a:	02000713          	li	a4,32
80000f9e:	0ef76563          	bltu	a4,a5,80001088 <vsnprintf+0x25c>
80000fa2:	00279713          	slli	a4,a5,0x2
80000fa6:	800077b7          	lui	a5,0x80007
80000faa:	5f878793          	addi	a5,a5,1528 # 800075f8 <__data_source_start+0xfffffcb0>
80000fae:	97ba                	add	a5,a5,a4
80000fb0:	439c                	lw	a5,0(a5)
80000fb2:	8782                	jr	a5
            case 'd':
            case 'i': num = PutSignedInt(pStr, fill, width, va_arg(ap, signed int)); break;
80000fb4:	fee44603          	lbu	a2,-18(s0)
80000fb8:	fd042783          	lw	a5,-48(s0)
80000fbc:	00478713          	addi	a4,a5,4
80000fc0:	fce42823          	sw	a4,-48(s0)
80000fc4:	4398                	lw	a4,0(a5)
80000fc6:	fef44783          	lbu	a5,-17(s0)
80000fca:	86ba                	mv	a3,a4
80000fcc:	85be                	mv	a1,a5
80000fce:	fdc42503          	lw	a0,-36(s0)
80000fd2:	3ee1                	jal	80000baa <PutSignedInt>
80000fd4:	fea42423          	sw	a0,-24(s0)
80000fd8:	a855                	j	8000108c <vsnprintf+0x260>
            case 'u': num = PutUnsignedInt(pStr, fill, width, va_arg(ap, unsigned int)); break;
80000fda:	fee44603          	lbu	a2,-18(s0)
80000fde:	fd042783          	lw	a5,-48(s0)
80000fe2:	00478713          	addi	a4,a5,4
80000fe6:	fce42823          	sw	a4,-48(s0)
80000fea:	4398                	lw	a4,0(a5)
80000fec:	fef44783          	lbu	a5,-17(s0)
80000ff0:	86ba                	mv	a3,a4
80000ff2:	85be                	mv	a1,a5
80000ff4:	fdc42503          	lw	a0,-36(s0)
80000ff8:	34dd                	jal	80000ade <PutUnsignedInt>
80000ffa:	fea42423          	sw	a0,-24(s0)
80000ffe:	a079                	j	8000108c <vsnprintf+0x260>
            case 'x': num = PutHexa(pStr, fill, width, 0, va_arg(ap, unsigned int)); break;
80001000:	fee44603          	lbu	a2,-18(s0)
80001004:	fd042783          	lw	a5,-48(s0)
80001008:	00478713          	addi	a4,a5,4
8000100c:	fce42823          	sw	a4,-48(s0)
80001010:	4398                	lw	a4,0(a5)
80001012:	fef44783          	lbu	a5,-17(s0)
80001016:	4681                	li	a3,0
80001018:	85be                	mv	a1,a5
8000101a:	fdc42503          	lw	a0,-36(s0)
8000101e:	31d5                	jal	80000d02 <PutHexa>
80001020:	fea42423          	sw	a0,-24(s0)
80001024:	a0a5                	j	8000108c <vsnprintf+0x260>
            case 'X': num = PutHexa(pStr, fill, width, 1, va_arg(ap, unsigned int)); break;
80001026:	fee44603          	lbu	a2,-18(s0)
8000102a:	fd042783          	lw	a5,-48(s0)
8000102e:	00478713          	addi	a4,a5,4
80001032:	fce42823          	sw	a4,-48(s0)
80001036:	4398                	lw	a4,0(a5)
80001038:	fef44783          	lbu	a5,-17(s0)
8000103c:	4685                	li	a3,1
8000103e:	85be                	mv	a1,a5
80001040:	fdc42503          	lw	a0,-36(s0)
80001044:	397d                	jal	80000d02 <PutHexa>
80001046:	fea42423          	sw	a0,-24(s0)
8000104a:	a089                	j	8000108c <vsnprintf+0x260>
            case 's': num = PutString(pStr, va_arg(ap, char *)); break;
8000104c:	fd042783          	lw	a5,-48(s0)
80001050:	00478713          	addi	a4,a5,4
80001054:	fce42823          	sw	a4,-48(s0)
80001058:	439c                	lw	a5,0(a5)
8000105a:	85be                	mv	a1,a5
8000105c:	fdc42503          	lw	a0,-36(s0)
80001060:	342d                	jal	80000a8a <PutString>
80001062:	fea42423          	sw	a0,-24(s0)
80001066:	a01d                	j	8000108c <vsnprintf+0x260>
            case 'c': num = PutChar(pStr, va_arg(ap, unsigned int)); break;
80001068:	fd042783          	lw	a5,-48(s0)
8000106c:	00478713          	addi	a4,a5,4
80001070:	fce42823          	sw	a4,-48(s0)
80001074:	439c                	lw	a5,0(a5)
80001076:	0ff7f793          	zext.b	a5,a5
8000107a:	85be                	mv	a1,a5
8000107c:	fdc42503          	lw	a0,-36(s0)
80001080:	32d5                	jal	80000a64 <PutChar>
80001082:	fea42423          	sw	a0,-24(s0)
80001086:	a019                	j	8000108c <vsnprintf+0x260>
            default:
                return EOF;
80001088:	57fd                	li	a5,-1
8000108a:	a895                	j	800010fe <vsnprintf+0x2d2>
            }

            pFormat++;
8000108c:	fd442783          	lw	a5,-44(s0)
80001090:	0785                	addi	a5,a5,1
80001092:	fcf42a23          	sw	a5,-44(s0)
            pStr += num;
80001096:	fe842783          	lw	a5,-24(s0)
8000109a:	fdc42703          	lw	a4,-36(s0)
8000109e:	97ba                	add	a5,a5,a4
800010a0:	fcf42e23          	sw	a5,-36(s0)
            size += num;
800010a4:	fe442703          	lw	a4,-28(s0)
800010a8:	fe842783          	lw	a5,-24(s0)
800010ac:	97ba                	add	a5,a5,a4
800010ae:	fef42223          	sw	a5,-28(s0)
    while (*pFormat != 0 && size < length) {
800010b2:	fd442783          	lw	a5,-44(s0)
800010b6:	0007c783          	lbu	a5,0(a5)
800010ba:	c799                	beqz	a5,800010c8 <vsnprintf+0x29c>
800010bc:	fe442783          	lw	a5,-28(s0)
800010c0:	fd842703          	lw	a4,-40(s0)
800010c4:	d8e7ede3          	bltu	a5,a4,80000e5e <vsnprintf+0x32>
        }
    }

    /* NULL-terminated (final \0 is not counted) */
    if (size < length) {
800010c8:	fe442783          	lw	a5,-28(s0)
800010cc:	fd842703          	lw	a4,-40(s0)
800010d0:	00e7f763          	bgeu	a5,a4,800010de <vsnprintf+0x2b2>

        *pStr = 0;
800010d4:	fdc42783          	lw	a5,-36(s0)
800010d8:	00078023          	sb	zero,0(a5)
800010dc:	a839                	j	800010fa <vsnprintf+0x2ce>
    }
    else {

        *(--pStr) = 0;
800010de:	fdc42783          	lw	a5,-36(s0)
800010e2:	17fd                	addi	a5,a5,-1
800010e4:	fcf42e23          	sw	a5,-36(s0)
800010e8:	fdc42783          	lw	a5,-36(s0)
800010ec:	00078023          	sb	zero,0(a5)
        size--;
800010f0:	fe442783          	lw	a5,-28(s0)
800010f4:	17fd                	addi	a5,a5,-1
800010f6:	fef42223          	sw	a5,-28(s0)
    }

    return size;
800010fa:	fe442783          	lw	a5,-28(s0)
}
800010fe:	853e                	mv	a0,a5
80001100:	50b2                	lw	ra,44(sp)
80001102:	5422                	lw	s0,40(sp)
80001104:	6145                	addi	sp,sp,48
80001106:	8082                	ret

80001108 <snprintf>:
 * @param ...     Other arguments
 *
 * @return  The number of characters written.
 */
signed int snprintf(char *pString, size_t length, const char *pFormat, ...)
{
80001108:	715d                	addi	sp,sp,-80
8000110a:	d606                	sw	ra,44(sp)
8000110c:	d422                	sw	s0,40(sp)
8000110e:	1800                	addi	s0,sp,48
80001110:	fca42e23          	sw	a0,-36(s0)
80001114:	fcb42c23          	sw	a1,-40(s0)
80001118:	fcc42a23          	sw	a2,-44(s0)
8000111c:	c454                	sw	a3,12(s0)
8000111e:	c818                	sw	a4,16(s0)
80001120:	c85c                	sw	a5,20(s0)
80001122:	01042c23          	sw	a6,24(s0)
80001126:	01142e23          	sw	a7,28(s0)
    va_list    ap;
    signed int rc;

    va_start(ap, pFormat);
8000112a:	02040793          	addi	a5,s0,32
8000112e:	fcf42823          	sw	a5,-48(s0)
80001132:	fd042783          	lw	a5,-48(s0)
80001136:	17b1                	addi	a5,a5,-20
80001138:	fef42423          	sw	a5,-24(s0)
    rc = vsnprintf(pString, length, pFormat, ap);
8000113c:	fe842783          	lw	a5,-24(s0)
80001140:	86be                	mv	a3,a5
80001142:	fd442603          	lw	a2,-44(s0)
80001146:	fd842583          	lw	a1,-40(s0)
8000114a:	fdc42503          	lw	a0,-36(s0)
8000114e:	39f9                	jal	80000e2c <vsnprintf>
80001150:	fea42623          	sw	a0,-20(s0)
    va_end(ap);

    return rc;
80001154:	fec42783          	lw	a5,-20(s0)
}
80001158:	853e                	mv	a0,a5
8000115a:	50b2                	lw	ra,44(sp)
8000115c:	5422                	lw	s0,40(sp)
8000115e:	6161                	addi	sp,sp,80
80001160:	8082                	ret

80001162 <vsprintf>:
 * @param ap       Argument list.
 *
 * @return  The number of characters written.
 */
signed int vsprintf(char *pString, const char *pFormat, va_list ap)
{
80001162:	1101                	addi	sp,sp,-32
80001164:	ce06                	sw	ra,28(sp)
80001166:	cc22                	sw	s0,24(sp)
80001168:	1000                	addi	s0,sp,32
8000116a:	fea42623          	sw	a0,-20(s0)
8000116e:	feb42423          	sw	a1,-24(s0)
80001172:	fec42223          	sw	a2,-28(s0)
   return vsnprintf(pString, MAX_STRING_SIZE, pFormat, ap);
80001176:	fe442683          	lw	a3,-28(s0)
8000117a:	fe842603          	lw	a2,-24(s0)
8000117e:	15e00593          	li	a1,350
80001182:	fec42503          	lw	a0,-20(s0)
80001186:	315d                	jal	80000e2c <vsnprintf>
80001188:	87aa                	mv	a5,a0
}
8000118a:	853e                	mv	a0,a5
8000118c:	40f2                	lw	ra,28(sp)
8000118e:	4462                	lw	s0,24(sp)
80001190:	6105                	addi	sp,sp,32
80001192:	8082                	ret

80001194 <vfprintf>:
 * @param pStream  Output stream.
 * @param pFormat  Format string
 * @param ap       Argument list.
 */
signed int vfprintf(FILE *pStream, const char *pFormat, va_list ap)
{
80001194:	7161                	addi	sp,sp,-432
80001196:	1a112623          	sw	ra,428(sp)
8000119a:	1a812423          	sw	s0,424(sp)
8000119e:	1b00                	addi	s0,sp,432
800011a0:	e4a42e23          	sw	a0,-420(s0)
800011a4:	e4b42c23          	sw	a1,-424(s0)
800011a8:	e4c42a23          	sw	a2,-428(s0)
    char pStr[MAX_STRING_SIZE];
    char pError[] = "stdio.c: increase MAX_STRING_SIZE\n\r";
800011ac:	800077b7          	lui	a5,0x80007
800011b0:	67c78793          	addi	a5,a5,1660 # 8000767c <__data_source_start+0xfffffd34>
800011b4:	0007a303          	lw	t1,0(a5)
800011b8:	0047a883          	lw	a7,4(a5)
800011bc:	0087a803          	lw	a6,8(a5)
800011c0:	47c8                	lw	a0,12(a5)
800011c2:	4b8c                	lw	a1,16(a5)
800011c4:	4bd0                	lw	a2,20(a5)
800011c6:	4f94                	lw	a3,24(a5)
800011c8:	4fd8                	lw	a4,28(a5)
800011ca:	539c                	lw	a5,32(a5)
800011cc:	e6642623          	sw	t1,-404(s0)
800011d0:	e7142823          	sw	a7,-400(s0)
800011d4:	e7042a23          	sw	a6,-396(s0)
800011d8:	e6a42c23          	sw	a0,-392(s0)
800011dc:	e6b42e23          	sw	a1,-388(s0)
800011e0:	e8c42023          	sw	a2,-384(s0)
800011e4:	e8d42223          	sw	a3,-380(s0)
800011e8:	e8e42423          	sw	a4,-376(s0)
800011ec:	e8f42623          	sw	a5,-372(s0)

    /* Write formatted string in buffer */
    if (vsprintf(pStr, pFormat, ap) >= MAX_STRING_SIZE) {
800011f0:	e9040793          	addi	a5,s0,-368
800011f4:	e5442603          	lw	a2,-428(s0)
800011f8:	e5842583          	lw	a1,-424(s0)
800011fc:	853e                	mv	a0,a5
800011fe:	3795                	jal	80001162 <vsprintf>
80001200:	872a                	mv	a4,a0
80001202:	15d00793          	li	a5,349
80001206:	00e7dc63          	bge	a5,a4,8000121e <vfprintf+0x8a>

        fputs(pError, stderr);
8000120a:	8801a783          	lw	a5,-1920(gp) # 40000000 <_impure_ptr>
8000120e:	47d8                	lw	a4,12(a5)
80001210:	e6c40793          	addi	a5,s0,-404
80001214:	85ba                	mv	a1,a4
80001216:	853e                	mv	a0,a5
80001218:	22f1                	jal	800013e4 <fputs>
        while (1); /* Increase MAX_STRING_SIZE */
8000121a:	0001                	nop
8000121c:	bffd                	j	8000121a <vfprintf+0x86>
    }

    /* Display string */
    return fputs(pStr, pStream);
8000121e:	e9040793          	addi	a5,s0,-368
80001222:	e5c42583          	lw	a1,-420(s0)
80001226:	853e                	mv	a0,a5
80001228:	2a75                	jal	800013e4 <fputs>
8000122a:	87aa                	mv	a5,a0
}
8000122c:	853e                	mv	a0,a5
8000122e:	1ac12083          	lw	ra,428(sp)
80001232:	1a812403          	lw	s0,424(sp)
80001236:	615d                	addi	sp,sp,432
80001238:	8082                	ret

8000123a <vprintf>:
 *
 * @param pFormat  Format string.
 * @param ap  Argument list.
 */
signed int vprintf(const char *pFormat, va_list ap)
{
8000123a:	1101                	addi	sp,sp,-32
8000123c:	ce06                	sw	ra,28(sp)
8000123e:	cc22                	sw	s0,24(sp)
80001240:	1000                	addi	s0,sp,32
80001242:	fea42623          	sw	a0,-20(s0)
80001246:	feb42423          	sw	a1,-24(s0)
    return vfprintf(stdout, pFormat, ap);
8000124a:	8801a783          	lw	a5,-1920(gp) # 40000000 <_impure_ptr>
8000124e:	479c                	lw	a5,8(a5)
80001250:	fe842603          	lw	a2,-24(s0)
80001254:	fec42583          	lw	a1,-20(s0)
80001258:	853e                	mv	a0,a5
8000125a:	3f2d                	jal	80001194 <vfprintf>
8000125c:	87aa                	mv	a5,a0
}
8000125e:	853e                	mv	a0,a5
80001260:	40f2                	lw	ra,28(sp)
80001262:	4462                	lw	s0,24(sp)
80001264:	6105                	addi	sp,sp,32
80001266:	8082                	ret

80001268 <fprintf>:
 *
 * @param pStream  Output stream.
 * @param pFormat  Format string.
 */
signed int fprintf(FILE *pStream, const char *pFormat, ...)
{
80001268:	715d                	addi	sp,sp,-80
8000126a:	d606                	sw	ra,44(sp)
8000126c:	d422                	sw	s0,40(sp)
8000126e:	1800                	addi	s0,sp,48
80001270:	fca42e23          	sw	a0,-36(s0)
80001274:	fcb42c23          	sw	a1,-40(s0)
80001278:	c410                	sw	a2,8(s0)
8000127a:	c454                	sw	a3,12(s0)
8000127c:	c818                	sw	a4,16(s0)
8000127e:	c85c                	sw	a5,20(s0)
80001280:	01042c23          	sw	a6,24(s0)
80001284:	01142e23          	sw	a7,28(s0)
    va_list ap;
    signed int result;

    /* Forward call to vfprintf */
    va_start(ap, pFormat);
80001288:	02040793          	addi	a5,s0,32
8000128c:	fcf42a23          	sw	a5,-44(s0)
80001290:	fd442783          	lw	a5,-44(s0)
80001294:	17a1                	addi	a5,a5,-24
80001296:	fef42423          	sw	a5,-24(s0)
    result = vfprintf(pStream, pFormat, ap);
8000129a:	fe842783          	lw	a5,-24(s0)
8000129e:	863e                	mv	a2,a5
800012a0:	fd842583          	lw	a1,-40(s0)
800012a4:	fdc42503          	lw	a0,-36(s0)
800012a8:	35f5                	jal	80001194 <vfprintf>
800012aa:	fea42623          	sw	a0,-20(s0)
    va_end(ap);

    return result;
800012ae:	fec42783          	lw	a5,-20(s0)
}
800012b2:	853e                	mv	a0,a5
800012b4:	50b2                	lw	ra,44(sp)
800012b6:	5422                	lw	s0,40(sp)
800012b8:	6161                	addi	sp,sp,80
800012ba:	8082                	ret

800012bc <printf>:
 *         arguments.
 *
 * @param  pFormat  Format string.
 */
signed int printf(const char *pFormat, ...)
{
800012bc:	715d                	addi	sp,sp,-80
800012be:	d606                	sw	ra,44(sp)
800012c0:	d422                	sw	s0,40(sp)
800012c2:	1800                	addi	s0,sp,48
800012c4:	fca42e23          	sw	a0,-36(s0)
800012c8:	c04c                	sw	a1,4(s0)
800012ca:	c410                	sw	a2,8(s0)
800012cc:	c454                	sw	a3,12(s0)
800012ce:	c818                	sw	a4,16(s0)
800012d0:	c85c                	sw	a5,20(s0)
800012d2:	01042c23          	sw	a6,24(s0)
800012d6:	01142e23          	sw	a7,28(s0)
    va_list ap;
    signed int result;

    /* Forward call to vprintf */
    va_start(ap, pFormat);
800012da:	02040793          	addi	a5,s0,32
800012de:	fcf42c23          	sw	a5,-40(s0)
800012e2:	fd842783          	lw	a5,-40(s0)
800012e6:	1791                	addi	a5,a5,-28
800012e8:	fef42423          	sw	a5,-24(s0)
    result = vprintf(pFormat, ap);
800012ec:	fe842783          	lw	a5,-24(s0)
800012f0:	85be                	mv	a1,a5
800012f2:	fdc42503          	lw	a0,-36(s0)
800012f6:	3791                	jal	8000123a <vprintf>
800012f8:	fea42623          	sw	a0,-20(s0)
    va_end(ap);

    return result;
800012fc:	fec42783          	lw	a5,-20(s0)
}
80001300:	853e                	mv	a0,a5
80001302:	50b2                	lw	ra,44(sp)
80001304:	5422                	lw	s0,40(sp)
80001306:	6161                	addi	sp,sp,80
80001308:	8082                	ret

8000130a <sprintf>:
 *
 * @param pStr     torage string.
 * @param pFormat  Format string.
 */
signed int sprintf(char *pStr, const char *pFormat, ...)
{
8000130a:	715d                	addi	sp,sp,-80
8000130c:	d606                	sw	ra,44(sp)
8000130e:	d422                	sw	s0,40(sp)
80001310:	1800                	addi	s0,sp,48
80001312:	fca42e23          	sw	a0,-36(s0)
80001316:	fcb42c23          	sw	a1,-40(s0)
8000131a:	c410                	sw	a2,8(s0)
8000131c:	c454                	sw	a3,12(s0)
8000131e:	c818                	sw	a4,16(s0)
80001320:	c85c                	sw	a5,20(s0)
80001322:	01042c23          	sw	a6,24(s0)
80001326:	01142e23          	sw	a7,28(s0)
    va_list ap;
    signed int result;

    // Forward call to vsprintf
    va_start(ap, pFormat);
8000132a:	02040793          	addi	a5,s0,32
8000132e:	fcf42a23          	sw	a5,-44(s0)
80001332:	fd442783          	lw	a5,-44(s0)
80001336:	17a1                	addi	a5,a5,-24
80001338:	fef42423          	sw	a5,-24(s0)
    result = vsprintf(pStr, pFormat, ap);
8000133c:	fe842783          	lw	a5,-24(s0)
80001340:	863e                	mv	a2,a5
80001342:	fd842583          	lw	a1,-40(s0)
80001346:	fdc42503          	lw	a0,-36(s0)
8000134a:	3d21                	jal	80001162 <vsprintf>
8000134c:	fea42623          	sw	a0,-20(s0)
    va_end(ap);

    return result;
80001350:	fec42783          	lw	a5,-20(s0)
}
80001354:	853e                	mv	a0,a5
80001356:	50b2                	lw	ra,44(sp)
80001358:	5422                	lw	s0,40(sp)
8000135a:	6161                	addi	sp,sp,80
8000135c:	8082                	ret

8000135e <puts>:
 * @brief  Outputs a string on stdout.
 *
 * @param pStr  String to output.
 */
signed int puts(const char *pStr)
{
8000135e:	7179                	addi	sp,sp,-48
80001360:	d606                	sw	ra,44(sp)
80001362:	d422                	sw	s0,40(sp)
80001364:	1800                	addi	s0,sp,48
80001366:	fca42e23          	sw	a0,-36(s0)
    signed int i = fputs(pStr, stdout);
8000136a:	8801a783          	lw	a5,-1920(gp) # 40000000 <_impure_ptr>
8000136e:	479c                	lw	a5,8(a5)
80001370:	85be                	mv	a1,a5
80001372:	fdc42503          	lw	a0,-36(s0)
80001376:	20bd                	jal	800013e4 <fputs>
80001378:	fea42623          	sw	a0,-20(s0)
    fputc('\n', stdout);
8000137c:	8801a783          	lw	a5,-1920(gp) # 40000000 <_impure_ptr>
80001380:	479c                	lw	a5,8(a5)
80001382:	85be                	mv	a1,a5
80001384:	4529                	li	a0,10
80001386:	2809                	jal	80001398 <fputc>

    return i+1;
80001388:	fec42783          	lw	a5,-20(s0)
8000138c:	0785                	addi	a5,a5,1
}
8000138e:	853e                	mv	a0,a5
80001390:	50b2                	lw	ra,44(sp)
80001392:	5422                	lw	s0,40(sp)
80001394:	6145                	addi	sp,sp,48
80001396:	8082                	ret

80001398 <fputc>:
 * @param pStream  Output stream.
 * @param The character written if successful, or -1 if the output stream is
 *        not stdout or stderr.
 */
signed int fputc(signed int c, FILE *pStream)
{
80001398:	1101                	addi	sp,sp,-32
8000139a:	ce06                	sw	ra,28(sp)
8000139c:	cc22                	sw	s0,24(sp)
8000139e:	1000                	addi	s0,sp,32
800013a0:	fea42623          	sw	a0,-20(s0)
800013a4:	feb42423          	sw	a1,-24(s0)
    if ((pStream == stdout) || (pStream == stderr)) {
800013a8:	8801a783          	lw	a5,-1920(gp) # 40000000 <_impure_ptr>
800013ac:	479c                	lw	a5,8(a5)
800013ae:	fe842703          	lw	a4,-24(s0)
800013b2:	00f70963          	beq	a4,a5,800013c4 <fputc+0x2c>
800013b6:	8801a783          	lw	a5,-1920(gp) # 40000000 <_impure_ptr>
800013ba:	47dc                	lw	a5,12(a5)
800013bc:	fe842703          	lw	a4,-24(s0)
800013c0:	00f71c63          	bne	a4,a5,800013d8 <fputc+0x40>

    	PrintChar(c);
800013c4:	fec42783          	lw	a5,-20(s0)
800013c8:	0ff7f793          	zext.b	a5,a5
800013cc:	853e                	mv	a0,a5
800013ce:	e74ff0ef          	jal	ra,80000a42 <PrintChar>

        return c;
800013d2:	fec42783          	lw	a5,-20(s0)
800013d6:	a011                	j	800013da <fputc+0x42>
    }
    else {

        return EOF;
800013d8:	57fd                	li	a5,-1
    }
}
800013da:	853e                	mv	a0,a5
800013dc:	40f2                	lw	ra,28(sp)
800013de:	4462                	lw	s0,24(sp)
800013e0:	6105                	addi	sp,sp,32
800013e2:	8082                	ret

800013e4 <fputs>:
 *
 * @return  Number of characters written if successful, or -1 if the output
 *          stream is not stdout or stderr.
 */
signed int fputs(const char *pStr, FILE *pStream)
{
800013e4:	7179                	addi	sp,sp,-48
800013e6:	d606                	sw	ra,44(sp)
800013e8:	d422                	sw	s0,40(sp)
800013ea:	1800                	addi	s0,sp,48
800013ec:	fca42e23          	sw	a0,-36(s0)
800013f0:	fcb42c23          	sw	a1,-40(s0)
    signed int num = 0;
800013f4:	fe042623          	sw	zero,-20(s0)

    while (*pStr != 0) {
800013f8:	a80d                	j	8000142a <fputs+0x46>

        if (fputc(*pStr, pStream) == -1) {
800013fa:	fdc42783          	lw	a5,-36(s0)
800013fe:	0007c783          	lbu	a5,0(a5)
80001402:	fd842583          	lw	a1,-40(s0)
80001406:	853e                	mv	a0,a5
80001408:	3f41                	jal	80001398 <fputc>
8000140a:	872a                	mv	a4,a0
8000140c:	57fd                	li	a5,-1
8000140e:	00f71463          	bne	a4,a5,80001416 <fputs+0x32>

            return -1;
80001412:	57fd                	li	a5,-1
80001414:	a015                	j	80001438 <fputs+0x54>
        }
        num++;
80001416:	fec42783          	lw	a5,-20(s0)
8000141a:	0785                	addi	a5,a5,1
8000141c:	fef42623          	sw	a5,-20(s0)
        pStr++;
80001420:	fdc42783          	lw	a5,-36(s0)
80001424:	0785                	addi	a5,a5,1
80001426:	fcf42e23          	sw	a5,-36(s0)
    while (*pStr != 0) {
8000142a:	fdc42783          	lw	a5,-36(s0)
8000142e:	0007c783          	lbu	a5,0(a5)
80001432:	f7e1                	bnez	a5,800013fa <fputs+0x16>
    }

    return num;
80001434:	fec42783          	lw	a5,-20(s0)
}
80001438:	853e                	mv	a0,a5
8000143a:	50b2                	lw	ra,44(sp)
8000143c:	5422                	lw	s0,40(sp)
8000143e:	6145                	addi	sp,sp,48
80001440:	8082                	ret

80001442 <retarget_init>:
#include "../Include/retarget.h"
// #include "../Include/system_k1921vg015.h"
#define SystemCoreClock_uart	SystemCoreClock
//-- Functions -----------------------------------------------------------------
void retarget_init()
{
80001442:	1101                	addi	sp,sp,-32
80001444:	ce22                	sw	s0,28(sp)
80001446:	1000                	addi	s0,sp,32
#if defined RETARGET
    uint32_t baud_icoef = HSECLK_VAL / (16 * RETARGET_UART_BAUD);
80001448:	47a1                	li	a5,8
8000144a:	fef42423          	sw	a5,-24(s0)
    uint32_t baud_fcoef = ((HSECLK_VAL / (16.0f * RETARGET_UART_BAUD) - baud_icoef) * 64 + 0.5f);
8000144e:	fe842783          	lw	a5,-24(s0)
80001452:	d017f7d3          	fcvt.s.wu	fa5,a5
80001456:	800077b7          	lui	a5,0x80007
8000145a:	6a07a707          	flw	fa4,1696(a5) # 800076a0 <__data_source_start+0xfffffd58>
8000145e:	08f77753          	fsub.s	fa4,fa4,fa5
80001462:	800077b7          	lui	a5,0x80007
80001466:	6a47a787          	flw	fa5,1700(a5) # 800076a4 <__data_source_start+0xfffffd5c>
8000146a:	10f77753          	fmul.s	fa4,fa4,fa5
8000146e:	800077b7          	lui	a5,0x80007
80001472:	6a87a787          	flw	fa5,1704(a5) # 800076a8 <__data_source_start+0xfffffd60>
80001476:	00f777d3          	fadd.s	fa5,fa4,fa5
8000147a:	c01797d3          	fcvt.wu.s	a5,fa5,rtz
8000147e:	fef42623          	sw	a5,-20(s0)

    // Настраиваем GPIO
    RCU->CGCFGAHB_bit.GPIOAEN = 1;
80001482:	3000e7b7          	lui	a5,0x3000e
80001486:	0007d703          	lhu	a4,0(a5) # 3000e000 <STACK_SIZE+0x3000d800>
8000148a:	10076713          	ori	a4,a4,256
8000148e:	00e79023          	sh	a4,0(a5)
    RCU->RSTDISAHB_bit.GPIOAEN = 1;
80001492:	3000e7b7          	lui	a5,0x3000e
80001496:	0107d703          	lhu	a4,16(a5) # 3000e010 <STACK_SIZE+0x3000d810>
8000149a:	10076713          	ori	a4,a4,256
8000149e:	00e79823          	sh	a4,16(a5)
    RCU->RSTDISAPB_bit.UART2EN = 1;
    #elif (RETARGET_UART_NUM == 3)
    RCU->CGCFGAPB_bit.UART3EN = 1;
    RCU->RSTDISAPB_bit.UART3EN = 1;
    #elif (RETARGET_UART_NUM == 4)
    RCU->CGCFGAPB_bit.UART4EN = 1;
800014a2:	3000e7b7          	lui	a5,0x3000e
800014a6:	4798                	lw	a4,8(a5)
800014a8:	40076713          	ori	a4,a4,1024
800014ac:	c798                	sw	a4,8(a5)
    RCU->RSTDISAPB_bit.UART4EN = 1;
800014ae:	3000e7b7          	lui	a5,0x3000e
800014b2:	4f98                	lw	a4,24(a5)
800014b4:	40076713          	ori	a4,a4,1024
800014b8:	cf98                	sw	a4,24(a5)
    } else if (RETARGET_UART_PIN_TX_POS == 3) {
      RETARGET_UART_PORT->ALTFUNCNUM_bit.PIN3 = 1;
    } else if (RETARGET_UART_PIN_TX_POS == 8) {
      RETARGET_UART_PORT->ALTFUNCNUM_bit.PIN8 = 1;
    } else if (RETARGET_UART_PIN_TX_POS == 9) {
      RETARGET_UART_PORT->ALTFUNCNUM_bit.PIN9 = 1;
800014ba:	280007b7          	lui	a5,0x28000
800014be:	5fd4                	lw	a3,60(a5)
800014c0:	fff40737          	lui	a4,0xfff40
800014c4:	177d                	addi	a4,a4,-1 # fff3ffff <__data_source_start+0x7ff386b7>
800014c6:	8ef9                	and	a3,a3,a4
800014c8:	00040737          	lui	a4,0x40
800014cc:	8f55                	or	a4,a4,a3
800014ce:	dfd8                	sw	a4,60(a5)
    if (RETARGET_UART_PIN_RX_POS == 2) {
      RETARGET_UART_PORT->ALTFUNCNUM_bit.PIN2 = 1;
    } else if (RETARGET_UART_PIN_RX_POS == 3) {
      RETARGET_UART_PORT->ALTFUNCNUM_bit.PIN3 = 1;
    } else if (RETARGET_UART_PIN_RX_POS == 8) {
      RETARGET_UART_PORT->ALTFUNCNUM_bit.PIN8 = 1;
800014d0:	280007b7          	lui	a5,0x28000
800014d4:	5fd4                	lw	a3,60(a5)
800014d6:	fffd0737          	lui	a4,0xfffd0
800014da:	177d                	addi	a4,a4,-1 # fffcffff <__data_source_start+0x7ffc86b7>
800014dc:	8ef9                	and	a3,a3,a4
800014de:	6741                	lui	a4,0x10
800014e0:	8f55                	or	a4,a4,a3
800014e2:	dfd8                	sw	a4,60(a5)
    } else if (RETARGET_UART_PIN_RX_POS == 9) {
      RETARGET_UART_PORT->ALTFUNCNUM_bit.PIN9 = 1;
    }
    
    RETARGET_UART_PORT->ALTFUNCSET = (1 << RETARGET_UART_PIN_TX_POS) | (1 << RETARGET_UART_PIN_RX_POS);
800014e4:	280007b7          	lui	a5,0x28000
800014e8:	30000713          	li	a4,768
800014ec:	dbd8                	sw	a4,52(a5)

    // Настраиваем UART0 с более детальной конфигурацией
    RCU->UARTCLKCFG[RETARGET_UART_NUM].UARTCLKCFG_bit.CLKSEL = RCU_UARTCLKCFG_CLKSEL_HSE;
800014ee:	3000e7b7          	lui	a5,0x3000e
800014f2:	0807a683          	lw	a3,128(a5) # 3000e080 <STACK_SIZE+0x3000d880>
800014f6:	fffd0737          	lui	a4,0xfffd0
800014fa:	177d                	addi	a4,a4,-1 # fffcffff <__data_source_start+0x7ffc86b7>
800014fc:	8ef9                	and	a3,a3,a4
800014fe:	6741                	lui	a4,0x10
80001500:	8f55                	or	a4,a4,a3
80001502:	08e7a023          	sw	a4,128(a5)
    RCU->UARTCLKCFG[RETARGET_UART_NUM].UARTCLKCFG_bit.DIVEN = 0;
80001506:	3000e7b7          	lui	a5,0x3000e
8000150a:	0807a683          	lw	a3,128(a5) # 3000e080 <STACK_SIZE+0x3000d880>
8000150e:	fff00737          	lui	a4,0xfff00
80001512:	177d                	addi	a4,a4,-1 # ffefffff <__data_source_start+0x7fef86b7>
80001514:	8f75                	and	a4,a4,a3
80001516:	08e7a023          	sw	a4,128(a5)
    RCU->UARTCLKCFG[RETARGET_UART_NUM].UARTCLKCFG_bit.RSTDIS = 1;
8000151a:	3000e7b7          	lui	a5,0x3000e
8000151e:	0807a703          	lw	a4,128(a5) # 3000e080 <STACK_SIZE+0x3000d880>
80001522:	10076713          	ori	a4,a4,256
80001526:	08e7a023          	sw	a4,128(a5)
    RCU->UARTCLKCFG[RETARGET_UART_NUM].UARTCLKCFG_bit.CLKEN = 1;
8000152a:	3000e7b7          	lui	a5,0x3000e
8000152e:	0807a703          	lw	a4,128(a5) # 3000e080 <STACK_SIZE+0x3000d880>
80001532:	00176713          	ori	a4,a4,1
80001536:	08e7a023          	sw	a4,128(a5)

    RETARGET_UART->IBRD = baud_icoef;
8000153a:	3000a7b7          	lui	a5,0x3000a
8000153e:	fe842703          	lw	a4,-24(s0)
80001542:	d3d8                	sw	a4,36(a5)
    RETARGET_UART->FBRD = baud_fcoef;
80001544:	3000a7b7          	lui	a5,0x3000a
80001548:	fec42703          	lw	a4,-20(s0)
8000154c:	d798                	sw	a4,40(a5)
    RETARGET_UART->LCRH = UART_LCRH_FEN_Msk | (3 << UART_LCRH_WLEN_Pos);
8000154e:	3000a7b7          	lui	a5,0x3000a
80001552:	07000713          	li	a4,112
80001556:	d7d8                	sw	a4,44(a5)
    RETARGET_UART->IFLS = 0;  // Настройка уровня прерываний
80001558:	3000a7b7          	lui	a5,0x3000a
8000155c:	0207aa23          	sw	zero,52(a5) # 3000a034 <STACK_SIZE+0x30009834>
    RETARGET_UART->CR = UART_CR_TXE_Msk | UART_CR_RXE_Msk | UART_CR_UARTEN_Msk;
80001560:	3000a7b7          	lui	a5,0x3000a
80001564:	30100713          	li	a4,769
80001568:	db98                	sw	a4,48(a5)
#endif //RETARGET
}
8000156a:	0001                	nop
8000156c:	4472                	lw	s0,28(sp)
8000156e:	6105                	addi	sp,sp,32
80001570:	8082                	ret

80001572 <retarget_get_char>:

int retarget_get_char()
{
80001572:	1141                	addi	sp,sp,-16
80001574:	c622                	sw	s0,12(sp)
80001576:	0800                	addi	s0,sp,16
#if defined RETARGET
    while (RETARGET_UART->FR_bit.RXFE) {
80001578:	0001                	nop
8000157a:	3000a7b7          	lui	a5,0x3000a
8000157e:	4f9c                	lw	a5,24(a5)
80001580:	8391                	srli	a5,a5,0x4
80001582:	8b85                	andi	a5,a5,1
80001584:	0ff7f793          	zext.b	a5,a5
80001588:	fbed                	bnez	a5,8000157a <retarget_get_char+0x8>
    };
    return (int)RETARGET_UART->DR_bit.DATA;
8000158a:	3000a7b7          	lui	a5,0x3000a
8000158e:	0007c783          	lbu	a5,0(a5) # 3000a000 <STACK_SIZE+0x30009800>
80001592:	0ff7f793          	zext.b	a5,a5
#endif //RETARGET
    return -1;
}
80001596:	853e                	mv	a0,a5
80001598:	4432                	lw	s0,12(sp)
8000159a:	0141                	addi	sp,sp,16
8000159c:	8082                	ret

8000159e <retarget_put_char>:

int retarget_put_char(int ch)
{
8000159e:	1101                	addi	sp,sp,-32
800015a0:	ce22                	sw	s0,28(sp)
800015a2:	1000                	addi	s0,sp,32
800015a4:	fea42623          	sw	a0,-20(s0)
#if defined RETARGET
    while (RETARGET_UART->FR_bit.BUSY) {
800015a8:	0001                	nop
800015aa:	3000a7b7          	lui	a5,0x3000a
800015ae:	4f9c                	lw	a5,24(a5)
800015b0:	838d                	srli	a5,a5,0x3
800015b2:	8b85                	andi	a5,a5,1
800015b4:	0ff7f793          	zext.b	a5,a5
800015b8:	fbed                	bnez	a5,800015aa <retarget_put_char+0xc>
    };
    RETARGET_UART->DR = ch;
800015ba:	3000a7b7          	lui	a5,0x3000a
800015be:	fec42703          	lw	a4,-20(s0)
800015c2:	c398                	sw	a4,0(a5)
#endif //RETARGET
    return 0;
800015c4:	4781                	li	a5,0
800015c6:	853e                	mv	a0,a5
800015c8:	4472                	lw	s0,28(sp)
800015ca:	6105                	addi	sp,sp,32
800015cc:	8082                	ret
	...

800015d0 <csr_set_bits_mstatus>:
                      : "r" (new_value)  /* input : register */
                      : /* clobbers: none */);
    return prev_value;
}
/* Register CSR bit set and clear instructions */
static inline void csr_set_bits_mstatus(uint_xlen_t mask) {
800015d0:	1101                	addi	sp,sp,-32
800015d2:	ce22                	sw	s0,28(sp)
800015d4:	1000                	addi	s0,sp,32
800015d6:	fea42623          	sw	a0,-20(s0)
    __asm__ volatile ("csrrs    zero, mstatus, %0"  
800015da:	fec42783          	lw	a5,-20(s0)
800015de:	3007a073          	csrs	mstatus,a5
                      : /* output: none */ 
                      : "r" (mask)  /* input : register */
                      : /* clobbers: none */);
}
800015e2:	0001                	nop
800015e4:	4472                	lw	s0,28(sp)
800015e6:	6105                	addi	sp,sp,32
800015e8:	8082                	ret
800015ea:	0001                	nop

800015ec <csr_clr_bits_mstatus>:
static inline void csr_clr_bits_mstatus(uint_xlen_t mask) {
800015ec:	1101                	addi	sp,sp,-32
800015ee:	ce22                	sw	s0,28(sp)
800015f0:	1000                	addi	s0,sp,32
800015f2:	fea42623          	sw	a0,-20(s0)
    __asm__ volatile ("csrrc    zero, mstatus, %0"  
800015f6:	fec42783          	lw	a5,-20(s0)
800015fa:	3007b073          	csrc	mstatus,a5
                      : /* output: none */ 
                      : "r" (mask)  /* input : register */
                      : /* clobbers: none */);
}
800015fe:	0001                	nop
80001600:	4472                	lw	s0,28(sp)
80001602:	6105                	addi	sp,sp,32
80001604:	8082                	ret
80001606:	0001                	nop

80001608 <csr_write_mtvec>:
                      : "=r" (value)  /* output : register */
                      : /* input : none */
                      : /* clobbers: none */);
    return value;
}
static inline void csr_write_mtvec(uint_xlen_t value) {
80001608:	1101                	addi	sp,sp,-32
8000160a:	ce22                	sw	s0,28(sp)
8000160c:	1000                	addi	s0,sp,32
8000160e:	fea42623          	sw	a0,-20(s0)
    __asm__ volatile ("csrw    mtvec, %0" 
80001612:	fec42783          	lw	a5,-20(s0)
80001616:	30579073          	csrw	mtvec,a5
                      : /* output: none */ 
                      : "r" (value) /* input : from register */
                      : /* clobbers: none */);
}
8000161a:	0001                	nop
8000161c:	4472                	lw	s0,28(sp)
8000161e:	6105                	addi	sp,sp,32
80001620:	8082                	ret
80001622:	0001                	nop

80001624 <csr_set_bits_mie>:
                      : "r" (new_value)  /* input : register */
                      : /* clobbers: none */);
    return prev_value;
}
/* Register CSR bit set and clear instructions */
static inline void csr_set_bits_mie(uint_xlen_t mask) {
80001624:	1101                	addi	sp,sp,-32
80001626:	ce22                	sw	s0,28(sp)
80001628:	1000                	addi	s0,sp,32
8000162a:	fea42623          	sw	a0,-20(s0)
    __asm__ volatile ("csrrs    zero, mie, %0"  
8000162e:	fec42783          	lw	a5,-20(s0)
80001632:	3047a073          	csrs	mie,a5
                      : /* output: none */ 
                      : "r" (mask)  /* input : register */
                      : /* clobbers: none */);
}
80001636:	0001                	nop
80001638:	4472                	lw	s0,28(sp)
8000163a:	6105                	addi	sp,sp,32
8000163c:	8082                	ret
8000163e:	0001                	nop

80001640 <csr_clr_bits_mie>:
static inline void csr_clr_bits_mie(uint_xlen_t mask) {
80001640:	1101                	addi	sp,sp,-32
80001642:	ce22                	sw	s0,28(sp)
80001644:	1000                	addi	s0,sp,32
80001646:	fea42623          	sw	a0,-20(s0)
    __asm__ volatile ("csrrc    zero, mie, %0"  
8000164a:	fec42783          	lw	a5,-20(s0)
8000164e:	3047b073          	csrc	mie,a5
                      : /* output: none */ 
                      : "r" (mask)  /* input : register */
                      : /* clobbers: none */);
}
80001652:	0001                	nop
80001654:	4472                	lw	s0,28(sp)
80001656:	6105                	addi	sp,sp,32
80001658:	8082                	ret
8000165a:	0001                	nop

8000165c <csr_read_mcause>:
}

/*******************************************
 * mcause - MRW - Machine Exception Cause 
 */
static inline uint_xlen_t csr_read_mcause(void) {
8000165c:	1101                	addi	sp,sp,-32
8000165e:	ce22                	sw	s0,28(sp)
80001660:	1000                	addi	s0,sp,32
    uint_xlen_t value;        
    __asm__ volatile ("csrr    %0, mcause" 
80001662:	342027f3          	csrr	a5,mcause
80001666:	fef42623          	sw	a5,-20(s0)
                      : "=r" (value)  /* output : register */
                      : /* input : none */
                      : /* clobbers: none */);
    return value;
8000166a:	fec42783          	lw	a5,-20(s0)
}
8000166e:	853e                	mv	a0,a5
80001670:	4472                	lw	s0,28(sp)
80001672:	6105                	addi	sp,sp,32
80001674:	8082                	ret
80001676:	0001                	nop

80001678 <riscv_irq_init>:
static void irq_entry(void)
    __attribute__((interrupt("machine"), optimize("align-functions=4")));

irqfunc_t* riscv_handler_map[RISCV_IRQ_NUMS];

void riscv_irq_init(void) { 
80001678:	1141                	addi	sp,sp,-16
8000167a:	c606                	sw	ra,12(sp)
8000167c:	c422                	sw	s0,8(sp)
8000167e:	0800                	addi	s0,sp,16
	riscv_irq_global_disable(); 
80001680:	2055                	jal	80001724 <riscv_irq_global_disable>
	csr_write_mtvec((uint32_t)irq_entry);
80001682:	800017b7          	lui	a5,0x80001
80001686:	73c78793          	addi	a5,a5,1852 # 8000173c <__data_source_start+0xffff9df4>
8000168a:	853e                	mv	a0,a5
8000168c:	3fb5                	jal	80001608 <csr_write_mtvec>
	riscv_irq_global_enable(); 
8000168e:	28bd                	jal	8000170c <riscv_irq_global_enable>
}
80001690:	0001                	nop
80001692:	40b2                	lw	ra,12(sp)
80001694:	4422                	lw	s0,8(sp)
80001696:	0141                	addi	sp,sp,16
80001698:	8082                	ret
8000169a:	0001                	nop

8000169c <riscv_irq_enable>:

void riscv_irq_enable(unsigned int irq_num){
8000169c:	1101                	addi	sp,sp,-32
8000169e:	ce06                	sw	ra,28(sp)
800016a0:	cc22                	sw	s0,24(sp)
800016a2:	1000                	addi	s0,sp,32
800016a4:	fea42623          	sw	a0,-20(s0)
	
    csr_set_bits_mie(1 << irq_num);
800016a8:	fec42783          	lw	a5,-20(s0)
800016ac:	4705                	li	a4,1
800016ae:	00f717b3          	sll	a5,a4,a5
800016b2:	853e                	mv	a0,a5
800016b4:	3f85                	jal	80001624 <csr_set_bits_mie>
}
800016b6:	0001                	nop
800016b8:	40f2                	lw	ra,28(sp)
800016ba:	4462                	lw	s0,24(sp)
800016bc:	6105                	addi	sp,sp,32
800016be:	8082                	ret

800016c0 <riscv_irq_disable>:

void riscv_irq_disable(unsigned int irq_num){
800016c0:	1101                	addi	sp,sp,-32
800016c2:	ce06                	sw	ra,28(sp)
800016c4:	cc22                	sw	s0,24(sp)
800016c6:	1000                	addi	s0,sp,32
800016c8:	fea42623          	sw	a0,-20(s0)
	csr_clr_bits_mie(1 << irq_num);
800016cc:	fec42783          	lw	a5,-20(s0)
800016d0:	4705                	li	a4,1
800016d2:	00f717b3          	sll	a5,a4,a5
800016d6:	853e                	mv	a0,a5
800016d8:	37a5                	jal	80001640 <csr_clr_bits_mie>
}
800016da:	0001                	nop
800016dc:	40f2                	lw	ra,28(sp)
800016de:	4462                	lw	s0,24(sp)
800016e0:	6105                	addi	sp,sp,32
800016e2:	8082                	ret

800016e4 <riscv_irq_set_handler>:

void riscv_irq_set_handler(unsigned int irq_num, irqfunc_t *handler){
800016e4:	1101                	addi	sp,sp,-32
800016e6:	ce22                	sw	s0,28(sp)
800016e8:	1000                	addi	s0,sp,32
800016ea:	fea42623          	sw	a0,-20(s0)
800016ee:	feb42423          	sw	a1,-24(s0)
  riscv_handler_map[irq_num] = handler;
800016f2:	e3818713          	addi	a4,gp,-456 # 400005b8 <riscv_handler_map>
800016f6:	fec42783          	lw	a5,-20(s0)
800016fa:	078a                	slli	a5,a5,0x2
800016fc:	97ba                	add	a5,a5,a4
800016fe:	fe842703          	lw	a4,-24(s0)
80001702:	c398                	sw	a4,0(a5)
}
80001704:	0001                	nop
80001706:	4472                	lw	s0,28(sp)
80001708:	6105                	addi	sp,sp,32
8000170a:	8082                	ret

8000170c <riscv_irq_global_enable>:

void riscv_irq_global_enable(void)
{
8000170c:	1141                	addi	sp,sp,-16
8000170e:	c606                	sw	ra,12(sp)
80001710:	c422                	sw	s0,8(sp)
80001712:	0800                	addi	s0,sp,16
    //clear_csr(mstatus, MSTATUS_MPIE);
    csr_set_bits_mstatus(MSTATUS_MIE_BIT_MASK); 
80001714:	4521                	li	a0,8
80001716:	3d6d                	jal	800015d0 <csr_set_bits_mstatus>

}
80001718:	0001                	nop
8000171a:	40b2                	lw	ra,12(sp)
8000171c:	4422                	lw	s0,8(sp)
8000171e:	0141                	addi	sp,sp,16
80001720:	8082                	ret
80001722:	0001                	nop

80001724 <riscv_irq_global_disable>:

void riscv_irq_global_disable(void)
{
80001724:	1141                	addi	sp,sp,-16
80001726:	c606                	sw	ra,12(sp)
80001728:	c422                	sw	s0,8(sp)
8000172a:	0800                	addi	s0,sp,16
    //clear_csr(mstatus, MSTATUS_MPIE);
    csr_clr_bits_mstatus(MSTATUS_MIE_BIT_MASK);
8000172c:	4521                	li	a0,8
8000172e:	3d7d                	jal	800015ec <csr_clr_bits_mstatus>
}
80001730:	0001                	nop
80001732:	40b2                	lw	ra,12(sp)
80001734:	4422                	lw	s0,8(sp)
80001736:	0141                	addi	sp,sp,16
80001738:	8082                	ret
8000173a:	0001                	nop

8000173c <irq_entry>:

// #pragma GCC push_options
// // Force the alignment for mtvec.BASE. A 'C' extension program could be aligned to to bytes.

void irq_entry (void)
{
8000173c:	7171                	addi	sp,sp,-176
8000173e:	d706                	sw	ra,172(sp)
80001740:	d516                	sw	t0,168(sp)
80001742:	d31a                	sw	t1,164(sp)
80001744:	d11e                	sw	t2,160(sp)
80001746:	cf22                	sw	s0,156(sp)
80001748:	cd2a                	sw	a0,152(sp)
8000174a:	cb2e                	sw	a1,148(sp)
8000174c:	c932                	sw	a2,144(sp)
8000174e:	c736                	sw	a3,140(sp)
80001750:	c53a                	sw	a4,136(sp)
80001752:	c33e                	sw	a5,132(sp)
80001754:	c142                	sw	a6,128(sp)
80001756:	dec6                	sw	a7,124(sp)
80001758:	dcf2                	sw	t3,120(sp)
8000175a:	daf6                	sw	t4,116(sp)
8000175c:	d8fa                	sw	t5,112(sp)
8000175e:	d6fe                	sw	t6,108(sp)
80001760:	ee82                	fsw	ft0,92(sp)
80001762:	ec86                	fsw	ft1,88(sp)
80001764:	ea8a                	fsw	ft2,84(sp)
80001766:	e88e                	fsw	ft3,80(sp)
80001768:	e692                	fsw	ft4,76(sp)
8000176a:	e496                	fsw	ft5,72(sp)
8000176c:	e29a                	fsw	ft6,68(sp)
8000176e:	e09e                	fsw	ft7,64(sp)
80001770:	fe2a                	fsw	fa0,60(sp)
80001772:	fc2e                	fsw	fa1,56(sp)
80001774:	fa32                	fsw	fa2,52(sp)
80001776:	f836                	fsw	fa3,48(sp)
80001778:	f63a                	fsw	fa4,44(sp)
8000177a:	f43e                	fsw	fa5,40(sp)
8000177c:	f242                	fsw	fa6,36(sp)
8000177e:	f046                	fsw	fa7,32(sp)
80001780:	ee72                	fsw	ft8,28(sp)
80001782:	ec76                	fsw	ft9,24(sp)
80001784:	ea7a                	fsw	ft10,20(sp)
80001786:	e87e                	fsw	ft11,16(sp)
80001788:	1900                	addi	s0,sp,176
	uint_xlen_t this_cause = csr_read_mcause();
8000178a:	3dc9                	jal	8000165c <csr_read_mcause>
8000178c:	f4a42e23          	sw	a0,-164(s0)

	if((this_cause & MCAUSE_INTERRUPT_BIT_MASK) == 0) {
80001790:	f5c42783          	lw	a5,-164(s0)
80001794:	0207c963          	bltz	a5,800017c6 <irq_entry+0x8a>
		// handle exception
		switch (this_cause & MCAUSE_EXCEPTION_CODE_BIT_MASK)
80001798:	f5c42703          	lw	a4,-164(s0)
8000179c:	400007b7          	lui	a5,0x40000
800017a0:	8ff9                	and	a5,a5,a4
800017a2:	4721                	li	a4,8
800017a4:	00f76b63          	bltu	a4,a5,800017ba <irq_entry+0x7e>
800017a8:	00279713          	slli	a4,a5,0x2
800017ac:	800077b7          	lui	a5,0x80007
800017b0:	6ac78793          	addi	a5,a5,1708 # 800076ac <__data_source_start+0xfffffd64>
800017b4:	97ba                	add	a5,a5,a4
800017b6:	439c                	lw	a5,0(a5)
800017b8:	8782                	jr	a5
			case RISCV_EXCP_ENVIRONMENT_CALL_FROM_U_MODE:
				break;

			default: // MCAUSE_EXCEPT UNKNOWN

				break;
800017ba:	0001                	nop
800017bc:	a019                	j	800017c2 <irq_entry+0x86>
				break;
800017be:	0001                	nop
		}

		while(1) {}; //TRAP
800017c0:	0001                	nop
800017c2:	0001                	nop
800017c4:	bffd                	j	800017c2 <irq_entry+0x86>
	} else {
		//handle interrupt
		this_cause &= 0xFF;
800017c6:	f5c42783          	lw	a5,-164(s0)
800017ca:	0ff7f793          	zext.b	a5,a5
800017ce:	f4f42e23          	sw	a5,-164(s0)
		if(riscv_handler_map[this_cause] != 0) {
800017d2:	e3818713          	addi	a4,gp,-456 # 400005b8 <riscv_handler_map>
800017d6:	f5c42783          	lw	a5,-164(s0)
800017da:	078a                	slli	a5,a5,0x2
800017dc:	97ba                	add	a5,a5,a4
800017de:	439c                	lw	a5,0(a5)
800017e0:	cb91                	beqz	a5,800017f4 <irq_entry+0xb8>
                  riscv_handler_map[this_cause]();
800017e2:	e3818713          	addi	a4,gp,-456 # 400005b8 <riscv_handler_map>
800017e6:	f5c42783          	lw	a5,-164(s0)
800017ea:	078a                	slli	a5,a5,0x2
800017ec:	97ba                	add	a5,a5,a4
800017ee:	439c                	lw	a5,0(a5)
800017f0:	9782                	jalr	a5
		}else{
			while(1) {}; //NO handler
		}
	}
}
800017f2:	a011                	j	800017f6 <irq_entry+0xba>
			while(1) {}; //NO handler
800017f4:	a001                	j	800017f4 <irq_entry+0xb8>
}
800017f6:	50ba                	lw	ra,172(sp)
800017f8:	52aa                	lw	t0,168(sp)
800017fa:	531a                	lw	t1,164(sp)
800017fc:	538a                	lw	t2,160(sp)
800017fe:	447a                	lw	s0,156(sp)
80001800:	456a                	lw	a0,152(sp)
80001802:	45da                	lw	a1,148(sp)
80001804:	464a                	lw	a2,144(sp)
80001806:	46ba                	lw	a3,140(sp)
80001808:	472a                	lw	a4,136(sp)
8000180a:	479a                	lw	a5,132(sp)
8000180c:	480a                	lw	a6,128(sp)
8000180e:	58f6                	lw	a7,124(sp)
80001810:	5e66                	lw	t3,120(sp)
80001812:	5ed6                	lw	t4,116(sp)
80001814:	5f46                	lw	t5,112(sp)
80001816:	5fb6                	lw	t6,108(sp)
80001818:	6076                	flw	ft0,92(sp)
8000181a:	60e6                	flw	ft1,88(sp)
8000181c:	6156                	flw	ft2,84(sp)
8000181e:	61c6                	flw	ft3,80(sp)
80001820:	6236                	flw	ft4,76(sp)
80001822:	62a6                	flw	ft5,72(sp)
80001824:	6316                	flw	ft6,68(sp)
80001826:	6386                	flw	ft7,64(sp)
80001828:	7572                	flw	fa0,60(sp)
8000182a:	75e2                	flw	fa1,56(sp)
8000182c:	7652                	flw	fa2,52(sp)
8000182e:	76c2                	flw	fa3,48(sp)
80001830:	7732                	flw	fa4,44(sp)
80001832:	77a2                	flw	fa5,40(sp)
80001834:	7812                	flw	fa6,36(sp)
80001836:	7882                	flw	fa7,32(sp)
80001838:	6e72                	flw	ft8,28(sp)
8000183a:	6ee2                	flw	ft9,24(sp)
8000183c:	6f52                	flw	ft10,20(sp)
8000183e:	6fc2                	flw	ft11,16(sp)
80001840:	614d                	addi	sp,sp,176
80001842:	30200073          	mret
	...

80001848 <SystemCoreClockUpdate>:
uint32_t SystemPll1Clock; // System PLL1Clock Frequency
uint32_t USBClock; 		  // USB Clock Frequency (USB PLL Clock)

//-- Functions -----------------------------------------------------------------
void SystemCoreClockUpdate(void)
{
80001848:	7175                	addi	sp,sp,-144
8000184a:	c706                	sw	ra,140(sp)
8000184c:	c522                	sw	s0,136(sp)
8000184e:	c34a                	sw	s2,132(sp)
80001850:	c14e                	sw	s3,128(sp)
80001852:	ded2                	sw	s4,124(sp)
80001854:	dcd6                	sw	s5,120(sp)
80001856:	dada                	sw	s6,116(sp)
80001858:	d8de                	sw	s7,112(sp)
8000185a:	d6e2                	sw	s8,108(sp)
8000185c:	d4e6                	sw	s9,104(sp)
8000185e:	d2ea                	sw	s10,100(sp)
80001860:	d0ee                	sw	s11,96(sp)
80001862:	0900                	addi	s0,sp,144
	SystemCoreClock = 0; 	// При ошибке вычислений значения переменных будут равны нулю
80001864:	e201a023          	sw	zero,-480(gp) # 400005a0 <SystemCoreClock>
	SystemPll0Clock = 0; 
80001868:	e201a223          	sw	zero,-476(gp) # 400005a4 <SystemPll0Clock>
	SystemPll1Clock = 0; 
8000186c:	e201a423          	sw	zero,-472(gp) # 400005a8 <SystemPll1Clock>
	USBClock = 0; 		 
80001870:	e201a623          	sw	zero,-468(gp) # 400005ac <USBClock>
				
	uint8_t refdiv = RCU->PLLSYSCFG0_bit.REFDIV;
80001874:	3000e7b7          	lui	a5,0x3000e
80001878:	4bbc                	lw	a5,80(a5)
8000187a:	839d                	srli	a5,a5,0x7
8000187c:	03f7f793          	andi	a5,a5,63
80001880:	0ff7f793          	zext.b	a5,a5
80001884:	fcf407a3          	sb	a5,-49(s0)
	uint8_t pd0a = RCU->PLLSYSCFG0_bit.PD0A + 1;
80001888:	3000e7b7          	lui	a5,0x3000e
8000188c:	4bbc                	lw	a5,80(a5)
8000188e:	83b5                	srli	a5,a5,0xd
80001890:	8b9d                	andi	a5,a5,7
80001892:	0ff7f793          	zext.b	a5,a5
80001896:	0785                	addi	a5,a5,1 # 3000e001 <STACK_SIZE+0x3000d801>
80001898:	fcf40723          	sb	a5,-50(s0)
	uint8_t pd0b = RCU->PLLSYSCFG0_bit.PD0B + 1;
8000189c:	3000e7b7          	lui	a5,0x3000e
800018a0:	4bbc                	lw	a5,80(a5)
800018a2:	83c1                	srli	a5,a5,0x10
800018a4:	03f7f793          	andi	a5,a5,63
800018a8:	0ff7f793          	zext.b	a5,a5
800018ac:	0785                	addi	a5,a5,1 # 3000e001 <STACK_SIZE+0x3000d801>
800018ae:	fcf406a3          	sb	a5,-51(s0)
	uint8_t pd1a = RCU->PLLSYSCFG0_bit.PD1A + 1;
800018b2:	3000e7b7          	lui	a5,0x3000e
800018b6:	4bbc                	lw	a5,80(a5)
800018b8:	83d9                	srli	a5,a5,0x16
800018ba:	8b9d                	andi	a5,a5,7
800018bc:	0ff7f793          	zext.b	a5,a5
800018c0:	0785                	addi	a5,a5,1 # 3000e001 <STACK_SIZE+0x3000d801>
800018c2:	fcf40623          	sb	a5,-52(s0)
	uint8_t pd1b = RCU->PLLSYSCFG0_bit.PD1B + 1;
800018c6:	3000e7b7          	lui	a5,0x3000e
800018ca:	4bbc                	lw	a5,80(a5)
800018cc:	83e5                	srli	a5,a5,0x19
800018ce:	03f7f793          	andi	a5,a5,63
800018d2:	0ff7f793          	zext.b	a5,a5
800018d6:	0785                	addi	a5,a5,1 # 3000e001 <STACK_SIZE+0x3000d801>
800018d8:	fcf405a3          	sb	a5,-53(s0)

	if (RCU->PLLSYSCFG0_bit.PLLEN)		// Если PLL включен
800018dc:	3000e7b7          	lui	a5,0x3000e
800018e0:	4bbc                	lw	a5,80(a5)
800018e2:	8b85                	andi	a5,a5,1
800018e4:	0ff7f793          	zext.b	a5,a5
800018e8:	20078263          	beqz	a5,80001aec <SystemCoreClockUpdate+0x2a4>
	{	
		if (RCU->PLLSYSCFG0_bit.DSMEN)	// Если дробный делитель включен
800018ec:	3000e7b7          	lui	a5,0x3000e
800018f0:	4bbc                	lw	a5,80(a5)
800018f2:	8391                	srli	a5,a5,0x4
800018f4:	8b85                	andi	a5,a5,1
800018f6:	0ff7f793          	zext.b	a5,a5
800018fa:	18078263          	beqz	a5,80001a7e <SystemCoreClockUpdate+0x236>
		{
			uint64_t fbdiv = RCU->PLLSYSCFG2_bit.FBDIV << 24;
800018fe:	3000e7b7          	lui	a5,0x3000e
80001902:	4fbc                	lw	a5,88(a5)
80001904:	873e                	mv	a4,a5
80001906:	6785                	lui	a5,0x1
80001908:	17fd                	addi	a5,a5,-1 # fff <STACK_SIZE+0x7ff>
8000190a:	8ff9                	and	a5,a5,a4
8000190c:	07c2                	slli	a5,a5,0x10
8000190e:	83c1                	srli	a5,a5,0x10
80001910:	07e2                	slli	a5,a5,0x18
80001912:	faf42c23          	sw	a5,-72(s0)
80001916:	87fd                	srai	a5,a5,0x1f
80001918:	faf42e23          	sw	a5,-68(s0)
			uint32_t frac = RCU->PLLSYSCFG1_bit.FRAC;
8000191c:	3000e7b7          	lui	a5,0x3000e
80001920:	4bf8                	lw	a4,84(a5)
80001922:	010007b7          	lui	a5,0x1000
80001926:	17fd                	addi	a5,a5,-1 # ffffff <STACK_SIZE+0xfff7ff>
80001928:	8ff9                	and	a5,a5,a4
8000192a:	faf42a23          	sw	a5,-76(s0)
			SystemPll0Clock = (((HSECLK_VAL / refdiv) * (fbdiv + frac)) >> 24) / (pd0a * pd0b);
8000192e:	fcf44703          	lbu	a4,-49(s0)
80001932:	00f427b7          	lui	a5,0xf42
80001936:	40078793          	addi	a5,a5,1024 # f42400 <STACK_SIZE+0xf41c00>
8000193a:	02e7c7b3          	div	a5,a5,a4
8000193e:	8e3e                	mv	t3,a5
80001940:	87fd                	srai	a5,a5,0x1f
80001942:	8ebe                	mv	t4,a5
80001944:	fb442783          	lw	a5,-76(s0)
80001948:	8f3e                	mv	t5,a5
8000194a:	4f81                	li	t6,0
8000194c:	fb842703          	lw	a4,-72(s0)
80001950:	fbc42783          	lw	a5,-68(s0)
80001954:	00ef0533          	add	a0,t5,a4
80001958:	86aa                	mv	a3,a0
8000195a:	01e6b6b3          	sltu	a3,a3,t5
8000195e:	00ff85b3          	add	a1,t6,a5
80001962:	00b687b3          	add	a5,a3,a1
80001966:	85be                	mv	a1,a5
80001968:	872a                	mv	a4,a0
8000196a:	87ae                	mv	a5,a1
8000196c:	02ee8633          	mul	a2,t4,a4
80001970:	03c786b3          	mul	a3,a5,t3
80001974:	96b2                	add	a3,a3,a2
80001976:	02ee0633          	mul	a2,t3,a4
8000197a:	02ee38b3          	mulhu	a7,t3,a4
8000197e:	8832                	mv	a6,a2
80001980:	011687b3          	add	a5,a3,a7
80001984:	88be                	mv	a7,a5
80001986:	00889793          	slli	a5,a7,0x8
8000198a:	01885313          	srli	t1,a6,0x18
8000198e:	0067e333          	or	t1,a5,t1
80001992:	0188d393          	srli	t2,a7,0x18
80001996:	fce44703          	lbu	a4,-50(s0)
8000199a:	fcd44783          	lbu	a5,-51(s0)
8000199e:	02f707b3          	mul	a5,a4,a5
800019a2:	f8f42c23          	sw	a5,-104(s0)
800019a6:	87fd                	srai	a5,a5,0x1f
800019a8:	f8f42e23          	sw	a5,-100(s0)
800019ac:	f9842603          	lw	a2,-104(s0)
800019b0:	f9c42683          	lw	a3,-100(s0)
800019b4:	851a                	mv	a0,t1
800019b6:	859e                	mv	a1,t2
800019b8:	05f050ef          	jal	ra,80007216 <__udivdi3>
800019bc:	872a                	mv	a4,a0
800019be:	87ae                	mv	a5,a1
800019c0:	e2e1a223          	sw	a4,-476(gp) # 400005a4 <SystemPll0Clock>
			SystemPll1Clock = (((HSECLK_VAL / refdiv) * (fbdiv + frac)) >> 24) / (pd1a * pd1b);
800019c4:	fcf44783          	lbu	a5,-49(s0)
800019c8:	00f42737          	lui	a4,0xf42
800019cc:	40070713          	addi	a4,a4,1024 # f42400 <STACK_SIZE+0xf41c00>
800019d0:	02f747b3          	div	a5,a4,a5
800019d4:	f8f42823          	sw	a5,-112(s0)
800019d8:	87fd                	srai	a5,a5,0x1f
800019da:	f8f42a23          	sw	a5,-108(s0)
800019de:	fb442783          	lw	a5,-76(s0)
800019e2:	f8f42423          	sw	a5,-120(s0)
800019e6:	f8042623          	sw	zero,-116(s0)
800019ea:	fb842603          	lw	a2,-72(s0)
800019ee:	fbc42683          	lw	a3,-68(s0)
800019f2:	f8842803          	lw	a6,-120(s0)
800019f6:	f8c42883          	lw	a7,-116(s0)
800019fa:	85c2                	mv	a1,a6
800019fc:	00c58733          	add	a4,a1,a2
80001a00:	85ba                	mv	a1,a4
80001a02:	8542                	mv	a0,a6
80001a04:	00a5b5b3          	sltu	a1,a1,a0
80001a08:	8546                	mv	a0,a7
80001a0a:	00d507b3          	add	a5,a0,a3
80001a0e:	00f586b3          	add	a3,a1,a5
80001a12:	87b6                	mv	a5,a3
80001a14:	f9042503          	lw	a0,-112(s0)
80001a18:	f9442583          	lw	a1,-108(s0)
80001a1c:	86ae                	mv	a3,a1
80001a1e:	02e68633          	mul	a2,a3,a4
80001a22:	86aa                	mv	a3,a0
80001a24:	02d786b3          	mul	a3,a5,a3
80001a28:	96b2                	add	a3,a3,a2
80001a2a:	862a                	mv	a2,a0
80001a2c:	02e60633          	mul	a2,a2,a4
80001a30:	85aa                	mv	a1,a0
80001a32:	02e5bab3          	mulhu	s5,a1,a4
80001a36:	8a32                	mv	s4,a2
80001a38:	015687b3          	add	a5,a3,s5
80001a3c:	8abe                	mv	s5,a5
80001a3e:	008a9793          	slli	a5,s5,0x8
80001a42:	018a5c13          	srli	s8,s4,0x18
80001a46:	0187ec33          	or	s8,a5,s8
80001a4a:	018adc93          	srli	s9,s5,0x18
80001a4e:	fcc44703          	lbu	a4,-52(s0)
80001a52:	fcb44783          	lbu	a5,-53(s0)
80001a56:	02f707b3          	mul	a5,a4,a5
80001a5a:	f8f42023          	sw	a5,-128(s0)
80001a5e:	87fd                	srai	a5,a5,0x1f
80001a60:	f8f42223          	sw	a5,-124(s0)
80001a64:	f8042603          	lw	a2,-128(s0)
80001a68:	f8442683          	lw	a3,-124(s0)
80001a6c:	8562                	mv	a0,s8
80001a6e:	85e6                	mv	a1,s9
80001a70:	7a6050ef          	jal	ra,80007216 <__udivdi3>
80001a74:	872a                	mv	a4,a0
80001a76:	87ae                	mv	a5,a1
80001a78:	e2e1a423          	sw	a4,-472(gp) # 400005a8 <SystemPll1Clock>
80001a7c:	a885                	j	80001aec <SystemCoreClockUpdate+0x2a4>
		} else { 
			uint32_t fbdiv = RCU->PLLSYSCFG2_bit.FBDIV;			
80001a7e:	3000e7b7          	lui	a5,0x3000e
80001a82:	4fbc                	lw	a5,88(a5)
80001a84:	873e                	mv	a4,a5
80001a86:	6785                	lui	a5,0x1
80001a88:	17fd                	addi	a5,a5,-1 # fff <STACK_SIZE+0x7ff>
80001a8a:	8ff9                	and	a5,a5,a4
80001a8c:	07c2                	slli	a5,a5,0x10
80001a8e:	83c1                	srli	a5,a5,0x10
80001a90:	fcf42223          	sw	a5,-60(s0)
			SystemPll0Clock = (HSECLK_VAL * fbdiv) / (refdiv * pd0a * pd0b);
80001a94:	fc442703          	lw	a4,-60(s0)
80001a98:	00f427b7          	lui	a5,0xf42
80001a9c:	40078793          	addi	a5,a5,1024 # f42400 <STACK_SIZE+0xf41c00>
80001aa0:	02f707b3          	mul	a5,a4,a5
80001aa4:	fcf44683          	lbu	a3,-49(s0)
80001aa8:	fce44703          	lbu	a4,-50(s0)
80001aac:	02e686b3          	mul	a3,a3,a4
80001ab0:	fcd44703          	lbu	a4,-51(s0)
80001ab4:	02e68733          	mul	a4,a3,a4
80001ab8:	02e7d733          	divu	a4,a5,a4
80001abc:	e2e1a223          	sw	a4,-476(gp) # 400005a4 <SystemPll0Clock>
			SystemPll1Clock = (HSECLK_VAL * fbdiv) / (refdiv * pd1a * pd1b);
80001ac0:	fc442703          	lw	a4,-60(s0)
80001ac4:	00f427b7          	lui	a5,0xf42
80001ac8:	40078793          	addi	a5,a5,1024 # f42400 <STACK_SIZE+0xf41c00>
80001acc:	02f707b3          	mul	a5,a4,a5
80001ad0:	fcf44683          	lbu	a3,-49(s0)
80001ad4:	fcc44703          	lbu	a4,-52(s0)
80001ad8:	02e686b3          	mul	a3,a3,a4
80001adc:	fcb44703          	lbu	a4,-53(s0)
80001ae0:	02e68733          	mul	a4,a3,a4
80001ae4:	02e7d733          	divu	a4,a5,a4
80001ae8:	e2e1a423          	sw	a4,-472(gp) # 400005a8 <SystemPll1Clock>
		}
	}

	switch (RCU->CLKSTAT_bit.SRC) {		// Определение источника тактирования ядра
80001aec:	3000e7b7          	lui	a5,0x3000e
80001af0:	5fdc                	lw	a5,60(a5)
80001af2:	8b8d                	andi	a5,a5,3
80001af4:	0ff7f793          	zext.b	a5,a5
80001af8:	470d                	li	a4,3
80001afa:	02e78963          	beq	a5,a4,80001b2c <SystemCoreClockUpdate+0x2e4>
80001afe:	470d                	li	a4,3
80001b00:	00f74863          	blt	a4,a5,80001b10 <SystemCoreClockUpdate+0x2c8>
80001b04:	4705                	li	a4,1
80001b06:	00e78c63          	beq	a5,a4,80001b1e <SystemCoreClockUpdate+0x2d6>
80001b0a:	4709                	li	a4,2
80001b0c:	02e78463          	beq	a5,a4,80001b34 <SystemCoreClockUpdate+0x2ec>
		case RCU_CLKSTAT_SRC_HSICLK:
			SystemCoreClock = HSICLK_VAL;
80001b10:	000f4737          	lui	a4,0xf4
80001b14:	24070713          	addi	a4,a4,576 # f4240 <STACK_SIZE+0xf3a40>
80001b18:	e2e1a023          	sw	a4,-480(gp) # 400005a0 <SystemCoreClock>
			break;
80001b1c:	a00d                	j	80001b3e <SystemCoreClockUpdate+0x2f6>
		case RCU_CLKSTAT_SRC_HSECLK:
			SystemCoreClock = HSECLK_VAL;
80001b1e:	00f42737          	lui	a4,0xf42
80001b22:	40070713          	addi	a4,a4,1024 # f42400 <STACK_SIZE+0xf41c00>
80001b26:	e2e1a023          	sw	a4,-480(gp) # 400005a0 <SystemCoreClock>
			break;		
80001b2a:	a811                	j	80001b3e <SystemCoreClockUpdate+0x2f6>
		case RCU_CLKSTAT_SRC_LSICLK:
			SystemCoreClock = LSICLK_VAL;
80001b2c:	6721                	lui	a4,0x8
80001b2e:	e2e1a023          	sw	a4,-480(gp) # 400005a0 <SystemCoreClock>
			break;
80001b32:	a031                	j	80001b3e <SystemCoreClockUpdate+0x2f6>
		case RCU_CLKSTAT_SRC_SYSPLL0CLK:
			SystemCoreClock = SystemPll0Clock;
80001b34:	e241a703          	lw	a4,-476(gp) # 400005a4 <SystemPll0Clock>
80001b38:	e2e1a023          	sw	a4,-480(gp) # 400005a0 <SystemCoreClock>
			break;	
80001b3c:	0001                	nop
    }
		
	if (RCU->RSTDISAHB_bit.USBEN)	// Если USB используется
80001b3e:	3000e7b7          	lui	a5,0x3000e
80001b42:	4b9c                	lw	a5,16(a5)
80001b44:	8385                	srli	a5,a5,0x1
80001b46:	8b85                	andi	a5,a5,1
80001b48:	0ff7f793          	zext.b	a5,a5
80001b4c:	1a078b63          	beqz	a5,80001d02 <SystemCoreClockUpdate+0x4ba>
	{
		if (USB->PLLUSBCFG3_bit.USBCLKSEL == USB_PLLUSBCFG3_USBCLKSEL_PLLUSBClk)
80001b50:	20010737          	lui	a4,0x20010
80001b54:	6785                	lui	a5,0x1
80001b56:	97ba                	add	a5,a5,a4
80001b58:	80c7a783          	lw	a5,-2036(a5) # 80c <STACK_SIZE+0xc>
80001b5c:	83e1                	srli	a5,a5,0x18
80001b5e:	8b85                	andi	a5,a5,1
80001b60:	0ff7f793          	zext.b	a5,a5
80001b64:	18079b63          	bnez	a5,80001cfa <SystemCoreClockUpdate+0x4b2>
		{	
			refdiv = USB->PLLUSBCFG0_bit.REFDIV;
80001b68:	20010737          	lui	a4,0x20010
80001b6c:	6785                	lui	a5,0x1
80001b6e:	97ba                	add	a5,a5,a4
80001b70:	8007a783          	lw	a5,-2048(a5) # 800 <STACK_SIZE>
80001b74:	839d                	srli	a5,a5,0x7
80001b76:	03f7f793          	andi	a5,a5,63
80001b7a:	0ff7f793          	zext.b	a5,a5
80001b7e:	fcf407a3          	sb	a5,-49(s0)
			pd0a = USB->PLLUSBCFG0_bit.PD0A + 1;
80001b82:	20010737          	lui	a4,0x20010
80001b86:	6785                	lui	a5,0x1
80001b88:	97ba                	add	a5,a5,a4
80001b8a:	8007a783          	lw	a5,-2048(a5) # 800 <STACK_SIZE>
80001b8e:	83b5                	srli	a5,a5,0xd
80001b90:	8b9d                	andi	a5,a5,7
80001b92:	0ff7f793          	zext.b	a5,a5
80001b96:	0785                	addi	a5,a5,1
80001b98:	fcf40723          	sb	a5,-50(s0)
			pd0b = USB->PLLUSBCFG0_bit.PD0B + 1;
80001b9c:	20010737          	lui	a4,0x20010
80001ba0:	6785                	lui	a5,0x1
80001ba2:	97ba                	add	a5,a5,a4
80001ba4:	8007a783          	lw	a5,-2048(a5) # 800 <STACK_SIZE>
80001ba8:	83c1                	srli	a5,a5,0x10
80001baa:	03f7f793          	andi	a5,a5,63
80001bae:	0ff7f793          	zext.b	a5,a5
80001bb2:	0785                	addi	a5,a5,1
80001bb4:	fcf406a3          	sb	a5,-51(s0)

			if (USB->PLLUSBCFG0_bit.DSMEN)		// Если дробный делитель включен
80001bb8:	20010737          	lui	a4,0x20010
80001bbc:	6785                	lui	a5,0x1
80001bbe:	97ba                	add	a5,a5,a4
80001bc0:	8007a783          	lw	a5,-2048(a5) # 800 <STACK_SIZE>
80001bc4:	8391                	srli	a5,a5,0x4
80001bc6:	8b85                	andi	a5,a5,1
80001bc8:	0ff7f793          	zext.b	a5,a5
80001bcc:	c3f5                	beqz	a5,80001cb0 <SystemCoreClockUpdate+0x468>
			{
				uint64_t fbdiv = USB->PLLUSBCFG2_bit.FBDIV << 24;
80001bce:	20010737          	lui	a4,0x20010
80001bd2:	6785                	lui	a5,0x1
80001bd4:	97ba                	add	a5,a5,a4
80001bd6:	8087a783          	lw	a5,-2040(a5) # 808 <STACK_SIZE+0x8>
80001bda:	873e                	mv	a4,a5
80001bdc:	6785                	lui	a5,0x1
80001bde:	17fd                	addi	a5,a5,-1 # fff <STACK_SIZE+0x7ff>
80001be0:	8ff9                	and	a5,a5,a4
80001be2:	07c2                	slli	a5,a5,0x10
80001be4:	83c1                	srli	a5,a5,0x10
80001be6:	07e2                	slli	a5,a5,0x18
80001be8:	faf42423          	sw	a5,-88(s0)
80001bec:	87fd                	srai	a5,a5,0x1f
80001bee:	faf42623          	sw	a5,-84(s0)
				uint32_t frac = USB->PLLUSBCFG1_bit.FRAC;
80001bf2:	20010737          	lui	a4,0x20010
80001bf6:	6785                	lui	a5,0x1
80001bf8:	97ba                	add	a5,a5,a4
80001bfa:	8047a703          	lw	a4,-2044(a5) # 804 <STACK_SIZE+0x4>
80001bfe:	010007b7          	lui	a5,0x1000
80001c02:	17fd                	addi	a5,a5,-1 # ffffff <STACK_SIZE+0xfff7ff>
80001c04:	8ff9                	and	a5,a5,a4
80001c06:	faf42223          	sw	a5,-92(s0)

				USBClock = (((HSECLK_VAL / refdiv) * (fbdiv + frac)) >> 24) / (pd0a * pd0b);
80001c0a:	fcf44783          	lbu	a5,-49(s0)
80001c0e:	00f42737          	lui	a4,0xf42
80001c12:	40070713          	addi	a4,a4,1024 # f42400 <STACK_SIZE+0xf41c00>
80001c16:	02f747b3          	div	a5,a4,a5
80001c1a:	8d3e                	mv	s10,a5
80001c1c:	87fd                	srai	a5,a5,0x1f
80001c1e:	8dbe                	mv	s11,a5
80001c20:	fa442783          	lw	a5,-92(s0)
80001c24:	f6f42c23          	sw	a5,-136(s0)
80001c28:	f6042e23          	sw	zero,-132(s0)
80001c2c:	fa842603          	lw	a2,-88(s0)
80001c30:	fac42683          	lw	a3,-84(s0)
80001c34:	f7842803          	lw	a6,-136(s0)
80001c38:	f7c42883          	lw	a7,-132(s0)
80001c3c:	85c2                	mv	a1,a6
80001c3e:	00c58733          	add	a4,a1,a2
80001c42:	85ba                	mv	a1,a4
80001c44:	8542                	mv	a0,a6
80001c46:	00a5b5b3          	sltu	a1,a1,a0
80001c4a:	8546                	mv	a0,a7
80001c4c:	00d507b3          	add	a5,a0,a3
80001c50:	00f586b3          	add	a3,a1,a5
80001c54:	87b6                	mv	a5,a3
80001c56:	02ed8633          	mul	a2,s11,a4
80001c5a:	03a786b3          	mul	a3,a5,s10
80001c5e:	96b2                	add	a3,a3,a2
80001c60:	02ed0633          	mul	a2,s10,a4
80001c64:	02ed39b3          	mulhu	s3,s10,a4
80001c68:	8932                	mv	s2,a2
80001c6a:	013687b3          	add	a5,a3,s3
80001c6e:	89be                	mv	s3,a5
80001c70:	00899793          	slli	a5,s3,0x8
80001c74:	01895b13          	srli	s6,s2,0x18
80001c78:	0167eb33          	or	s6,a5,s6
80001c7c:	0189db93          	srli	s7,s3,0x18
80001c80:	fce44703          	lbu	a4,-50(s0)
80001c84:	fcd44783          	lbu	a5,-51(s0)
80001c88:	02f707b3          	mul	a5,a4,a5
80001c8c:	f6f42823          	sw	a5,-144(s0)
80001c90:	87fd                	srai	a5,a5,0x1f
80001c92:	f6f42a23          	sw	a5,-140(s0)
80001c96:	f7042603          	lw	a2,-144(s0)
80001c9a:	f7442683          	lw	a3,-140(s0)
80001c9e:	855a                	mv	a0,s6
80001ca0:	85de                	mv	a1,s7
80001ca2:	574050ef          	jal	ra,80007216 <__udivdi3>
80001ca6:	872a                	mv	a4,a0
80001ca8:	87ae                	mv	a5,a1
80001caa:	e2e1a623          	sw	a4,-468(gp) # 400005ac <USBClock>
				USBClock = (HSECLK_VAL * fbdiv) / (refdiv * pd0a * pd0b);
			}		
		} 
		else USBClock = SystemCoreClock;
	}
}
80001cae:	a891                	j	80001d02 <SystemCoreClockUpdate+0x4ba>
				uint32_t fbdiv = USB->PLLUSBCFG2_bit.FBDIV;			
80001cb0:	20010737          	lui	a4,0x20010
80001cb4:	6785                	lui	a5,0x1
80001cb6:	97ba                	add	a5,a5,a4
80001cb8:	8087a783          	lw	a5,-2040(a5) # 808 <STACK_SIZE+0x8>
80001cbc:	873e                	mv	a4,a5
80001cbe:	6785                	lui	a5,0x1
80001cc0:	17fd                	addi	a5,a5,-1 # fff <STACK_SIZE+0x7ff>
80001cc2:	8ff9                	and	a5,a5,a4
80001cc4:	07c2                	slli	a5,a5,0x10
80001cc6:	83c1                	srli	a5,a5,0x10
80001cc8:	faf42823          	sw	a5,-80(s0)
				USBClock = (HSECLK_VAL * fbdiv) / (refdiv * pd0a * pd0b);
80001ccc:	fb042703          	lw	a4,-80(s0)
80001cd0:	00f427b7          	lui	a5,0xf42
80001cd4:	40078793          	addi	a5,a5,1024 # f42400 <STACK_SIZE+0xf41c00>
80001cd8:	02f707b3          	mul	a5,a4,a5
80001cdc:	fcf44683          	lbu	a3,-49(s0)
80001ce0:	fce44703          	lbu	a4,-50(s0)
80001ce4:	02e686b3          	mul	a3,a3,a4
80001ce8:	fcd44703          	lbu	a4,-51(s0)
80001cec:	02e68733          	mul	a4,a3,a4
80001cf0:	02e7d733          	divu	a4,a5,a4
80001cf4:	e2e1a623          	sw	a4,-468(gp) # 400005ac <USBClock>
}
80001cf8:	a029                	j	80001d02 <SystemCoreClockUpdate+0x4ba>
		else USBClock = SystemCoreClock;
80001cfa:	e201a703          	lw	a4,-480(gp) # 400005a0 <SystemCoreClock>
80001cfe:	e2e1a623          	sw	a4,-468(gp) # 400005ac <USBClock>
}
80001d02:	0001                	nop
80001d04:	40ba                	lw	ra,140(sp)
80001d06:	442a                	lw	s0,136(sp)
80001d08:	491a                	lw	s2,132(sp)
80001d0a:	498a                	lw	s3,128(sp)
80001d0c:	5a76                	lw	s4,124(sp)
80001d0e:	5ae6                	lw	s5,120(sp)
80001d10:	5b56                	lw	s6,116(sp)
80001d12:	5bc6                	lw	s7,112(sp)
80001d14:	5c36                	lw	s8,108(sp)
80001d16:	5ca6                	lw	s9,104(sp)
80001d18:	5d16                	lw	s10,100(sp)
80001d1a:	5d86                	lw	s11,96(sp)
80001d1c:	6149                	addi	sp,sp,144
80001d1e:	8082                	ret

80001d20 <ClkInit>:

void ClkInit()
{
80001d20:	1101                	addi	sp,sp,-32
80001d22:	ce22                	sw	s0,28(sp)
80001d24:	1000                	addi	s0,sp,32
    uint32_t timeout_counter = 0;
80001d26:	fe042623          	sw	zero,-20(s0)
    uint32_t sysclk_source;

    //clockout control
    #ifndef CKO_NONE
        //C7 clockout
        RCU->CGCFGAHB_bit.GPIOCEN = 1;
80001d2a:	3000e7b7          	lui	a5,0x3000e
80001d2e:	0007d703          	lhu	a4,0(a5) # 3000e000 <STACK_SIZE+0x3000d800>
80001d32:	40076713          	ori	a4,a4,1024
80001d36:	00e79023          	sh	a4,0(a5)
        RCU->RSTDISAHB_bit.GPIOCEN = 1;
80001d3a:	3000e7b7          	lui	a5,0x3000e
80001d3e:	0107d703          	lhu	a4,16(a5) # 3000e010 <STACK_SIZE+0x3000d810>
80001d42:	40076713          	ori	a4,a4,1024
80001d46:	00e79823          	sh	a4,16(a5)
        GPIOC->ALTFUNCNUM_bit.PIN7 = 3;
80001d4a:	280027b7          	lui	a5,0x28002
80001d4e:	5fd4                	lw	a3,60(a5)
80001d50:	6731                	lui	a4,0xc
80001d52:	8f55                	or	a4,a4,a3
80001d54:	dfd8                	sw	a4,60(a5)
        GPIOC->ALTFUNCSET_bit.PIN7 = 1;
80001d56:	280027b7          	lui	a5,0x28002
80001d5a:	0347d703          	lhu	a4,52(a5) # 28002034 <STACK_SIZE+0x28001834>
80001d5e:	08076713          	ori	a4,a4,128
80001d62:	02e79a23          	sh	a4,52(a5)
        RCU->CLKOUTCFG = (RCU_CLKOUTCFG_CLKSEL_HSE << RCU_CLKOUTCFG_CLKSEL_Pos) |
				  	  	  (1 << RCU_CLKOUTCFG_DIVN_Pos) |
						  (0 << RCU_CLKOUTCFG_DIVEN_Pos) |
						  RCU_CLKOUTCFG_RSTDIS_Msk | RCU_CLKOUTCFG_CLKEN_Msk; //CKO = HSECLK
    #elif defined CKO_PLL0
        RCU->CLKOUTCFG = (RCU_CLKOUTCFG_CLKSEL_PLL0 << RCU_CLKOUTCFG_CLKSEL_Pos) |
80001d66:	3000e7b7          	lui	a5,0x3000e
80001d6a:	6745                	lui	a4,0x11
80001d6c:	12170713          	addi	a4,a4,289 # 11121 <STACK_SIZE+0x10921>
80001d70:	0ae7ae23          	sw	a4,188(a5) # 3000e0bc <STACK_SIZE+0x3000d8bc>
    #endif
    #ifdef RTC_LSE
        // Переключаем RTC на LSE (OSC) (32 768 Гц)
		PMURTC->RTC_CFG0_bit.EXTOSC = 1;
    #endif
		RCU->SYSCLKCFG_bit.SRC = RCU_SYSCLKCFG_SRC_HSICLK;
80001d74:	3000e7b7          	lui	a5,0x3000e
80001d78:	5b98                	lw	a4,48(a5)
80001d7a:	9b71                	andi	a4,a4,-4
80001d7c:	db98                	sw	a4,48(a5)
//select system clock
#ifdef SYSCLK_PLL
	//PLLCLK = REFCLK * (FBDIV+FRAC/2^24) / (REFDIV*(1+PD0A)*(1+PD0B))
	
	//select HSE as source system clock while config PLL
	RCU->SYSCLKCFG = (RCU_SYSCLKCFG_SRC_HSECLK << RCU_SYSCLKCFG_SRC_Pos);
80001d7e:	3000e7b7          	lui	a5,0x3000e
80001d82:	4705                	li	a4,1
80001d84:	db98                	sw	a4,48(a5)
    // Wait switching done
    timeout_counter = 0;
80001d86:	fe042623          	sw	zero,-20(s0)
    while ((RCU->CLKSTAT_bit.SRC != RCU->SYSCLKCFG_bit.SRC) && (timeout_counter < 100)){ //SYSCLK_SWITCH_TIMEOUT))
80001d8a:	a031                	j	80001d96 <ClkInit+0x76>
        timeout_counter++;
80001d8c:	fec42783          	lw	a5,-20(s0)
80001d90:	0785                	addi	a5,a5,1 # 3000e001 <STACK_SIZE+0x3000d801>
80001d92:	fef42623          	sw	a5,-20(s0)
    while ((RCU->CLKSTAT_bit.SRC != RCU->SYSCLKCFG_bit.SRC) && (timeout_counter < 100)){ //SYSCLK_SWITCH_TIMEOUT))
80001d96:	3000e7b7          	lui	a5,0x3000e
80001d9a:	5fdc                	lw	a5,60(a5)
80001d9c:	8b8d                	andi	a5,a5,3
80001d9e:	0ff7f713          	zext.b	a4,a5
80001da2:	3000e7b7          	lui	a5,0x3000e
80001da6:	5b9c                	lw	a5,48(a5)
80001da8:	8b8d                	andi	a5,a5,3
80001daa:	0ff7f793          	zext.b	a5,a5
80001dae:	00f70863          	beq	a4,a5,80001dbe <ClkInit+0x9e>
80001db2:	fec42703          	lw	a4,-20(s0)
80001db6:	06300793          	li	a5,99
80001dba:	fce7f9e3          	bgeu	a5,a4,80001d8c <ClkInit+0x6c>
	RCU->PLLSYSCFG1 = 0;          //FRAC = 0					 
	RCU->PLLSYSCFG2 = 100;         //FBDIV
#elif (HSECLK_VAL == 16000000)
// Fout0 = 50 000 000 Hz
// Fout1 = 25 000 000 Hz
	RCU->PLLSYSCFG0 =( 15 << RCU_PLLSYSCFG0_PD1B_Pos) |  //PD1B
80001dbe:	3000e7b7          	lui	a5,0x3000e
80001dc2:	1ec3e737          	lui	a4,0x1ec3e
80001dc6:	08770713          	addi	a4,a4,135 # 1ec3e087 <STACK_SIZE+0x1ec3d887>
80001dca:	cbb8                	sw	a4,80(a5)
					 ( 0 << RCU_PLLSYSCFG0_FOUTEN_Pos)    |  //fouten
					 ( 0 << RCU_PLLSYSCFG0_DSMEN_Pos)     |  //dsmen
					 ( 0 << RCU_PLLSYSCFG0_DACEN_Pos)     |  //dacen
					 ( 3 << RCU_PLLSYSCFG0_BYP_Pos)       |  //bypass
					 ( 1 << RCU_PLLSYSCFG0_PLLEN_Pos);       //en
	RCU->PLLSYSCFG1 = 0;          //FRAC = 0					 
80001dcc:	3000e7b7          	lui	a5,0x3000e
80001dd0:	0407aa23          	sw	zero,84(a5) # 3000e054 <STACK_SIZE+0x3000d854>
	RCU->PLLSYSCFG2 = 100;         //FBDIV
80001dd4:	3000e7b7          	lui	a5,0x3000e
80001dd8:	06400713          	li	a4,100
80001ddc:	cfb8                	sw	a4,88(a5)
	RCU->PLLSYSCFG1 = 0;          //FRAC = 0					 
	RCU->PLLSYSCFG2 = 100;         //FBDIV
#else
#error "Please define HSECLK_VAL with correct values!"
#endif
	RCU->PLLSYSCFG0_bit.FOUTEN = 1; 	// Fout0 Enable
80001dde:	3000e7b7          	lui	a5,0x3000e
80001de2:	4bb8                	lw	a4,80(a5)
80001de4:	f9f77713          	andi	a4,a4,-97
80001de8:	02076713          	ori	a4,a4,32
80001dec:	cbb8                	sw	a4,80(a5)
	timeout_counter = 1000;
80001dee:	3e800793          	li	a5,1000
80001df2:	fef42623          	sw	a5,-20(s0)
	while(timeout_counter) timeout_counter--;
80001df6:	a031                	j	80001e02 <ClkInit+0xe2>
80001df8:	fec42783          	lw	a5,-20(s0)
80001dfc:	17fd                	addi	a5,a5,-1 # 3000dfff <STACK_SIZE+0x3000d7ff>
80001dfe:	fef42623          	sw	a5,-20(s0)
80001e02:	fec42783          	lw	a5,-20(s0)
80001e06:	fbed                	bnez	a5,80001df8 <ClkInit+0xd8>
	while((RCU->PLLSYSSTAT_bit.LOCK) != 1)
80001e08:	0001                	nop
80001e0a:	3000e7b7          	lui	a5,0x3000e
80001e0e:	53bc                	lw	a5,96(a5)
80001e10:	8b85                	andi	a5,a5,1
80001e12:	0ff7f713          	zext.b	a4,a5
80001e16:	4785                	li	a5,1
80001e18:	fef719e3          	bne	a4,a5,80001e0a <ClkInit+0xea>
	{}; 								// wait lock signal
	RCU->PLLSYSCFG0_bit.BYP = 2; 		// Bypass for Fout1
80001e1c:	3000e7b7          	lui	a5,0x3000e
80001e20:	4bb8                	lw	a4,80(a5)
80001e22:	9b65                	andi	a4,a4,-7
80001e24:	00476713          	ori	a4,a4,4
80001e28:	cbb8                	sw	a4,80(a5)
	//select PLL as source system clock
	sysclk_source = RCU_SYSCLKCFG_SRC_SYSPLL0CLK;
80001e2a:	4789                	li	a5,2
80001e2c:	fef42423          	sw	a5,-24(s0)
    // FLASH control settings
    FLASH->CTRL_bit.LAT = 3;
80001e30:	3000d7b7          	lui	a5,0x3000d
80001e34:	47f4                	lw	a3,76(a5)
80001e36:	fff10737          	lui	a4,0xfff10
80001e3a:	177d                	addi	a4,a4,-1 # fff0ffff <__data_source_start+0x7ff086b7>
80001e3c:	8ef9                	and	a3,a3,a4
80001e3e:	00030737          	lui	a4,0x30
80001e42:	8f55                	or	a4,a4,a3
80001e44:	c7f8                	sw	a4,76(a5)
    FLASH->CTRL_bit.CEN = 1;
80001e46:	3000d7b7          	lui	a5,0x3000d
80001e4a:	47f8                	lw	a4,76(a5)
80001e4c:	00276713          	ori	a4,a4,2
80001e50:	c7f8                	sw	a4,76(a5)
#else
#error "Please define SYSCLK source (SYSCLK_PLL | SYSCLK_HSE | SYSCLK_HSI | SYSCLK_LSI)!"
#endif

    //switch sysclk
    RCU->SYSCLKCFG = (sysclk_source << RCU_SYSCLKCFG_SRC_Pos);
80001e52:	3000e7b7          	lui	a5,0x3000e
80001e56:	fe842703          	lw	a4,-24(s0)
80001e5a:	db98                	sw	a4,48(a5)
    // Wait switching done
    timeout_counter = 0;
80001e5c:	fe042623          	sw	zero,-20(s0)
    while ((RCU->CLKSTAT_bit.SRC != RCU->SYSCLKCFG_bit.SRC) && (timeout_counter < 100)) //SYSCLK_SWITCH_TIMEOUT))
80001e60:	a031                	j	80001e6c <ClkInit+0x14c>
        timeout_counter++;
80001e62:	fec42783          	lw	a5,-20(s0)
80001e66:	0785                	addi	a5,a5,1 # 3000e001 <STACK_SIZE+0x3000d801>
80001e68:	fef42623          	sw	a5,-20(s0)
    while ((RCU->CLKSTAT_bit.SRC != RCU->SYSCLKCFG_bit.SRC) && (timeout_counter < 100)) //SYSCLK_SWITCH_TIMEOUT))
80001e6c:	3000e7b7          	lui	a5,0x3000e
80001e70:	5fdc                	lw	a5,60(a5)
80001e72:	8b8d                	andi	a5,a5,3
80001e74:	0ff7f713          	zext.b	a4,a5
80001e78:	3000e7b7          	lui	a5,0x3000e
80001e7c:	5b9c                	lw	a5,48(a5)
80001e7e:	8b8d                	andi	a5,a5,3
80001e80:	0ff7f793          	zext.b	a5,a5
80001e84:	00f70863          	beq	a4,a5,80001e94 <ClkInit+0x174>
80001e88:	fec42703          	lw	a4,-20(s0)
80001e8c:	06300793          	li	a5,99
80001e90:	fce7f9e3          	bgeu	a5,a4,80001e62 <ClkInit+0x142>
/*    if (timeout_counter == SYSCLK_SWITCH_TIMEOUT) //SYSCLK failed to switch
        while (1) {
        };*/

}
80001e94:	0001                	nop
80001e96:	4472                	lw	s0,28(sp)
80001e98:	6105                	addi	sp,sp,32
80001e9a:	8082                	ret

80001e9c <InterruptEnable>:

void InterruptEnable()
{
80001e9c:	1101                	addi	sp,sp,-32
80001e9e:	ce06                	sw	ra,28(sp)
80001ea0:	cc22                	sw	s0,24(sp)
80001ea2:	1000                	addi	s0,sp,32
	// Разрешаем все прерывания в machine mode
	PLIC_SetThreshold (Plic_Mach_Target, 0);
80001ea4:	4581                	li	a1,0
80001ea6:	4501                	li	a0,0
80001ea8:	a9dfe0ef          	jal	ra,80000944 <PLIC_SetThreshold>
    // Выключаем прерывание от MTIMER (если MTIMER используется в проекте - закомментировать следующую строку)
    clear_csr(mie, MIE_MTIMER);
80001eac:	08000793          	li	a5,128
80001eb0:	fef42623          	sw	a5,-20(s0)
80001eb4:	fec42783          	lw	a5,-20(s0)
80001eb8:	3047b7f3          	csrrc	a5,mie,a5
80001ebc:	fef42623          	sw	a5,-20(s0)
    // Разрешаем внешнее прерывание (PLIC) в machine mode
    set_csr(mie, MIE_MEXTERNAL);
80001ec0:	6785                	lui	a5,0x1
80001ec2:	80078793          	addi	a5,a5,-2048 # 800 <STACK_SIZE>
80001ec6:	fef42423          	sw	a5,-24(s0)
80001eca:	fe842783          	lw	a5,-24(s0)
80001ece:	3047a7f3          	csrrs	a5,mie,a5
80001ed2:	fef42423          	sw	a5,-24(s0)
    // Разрешаем прерывания на глобальном уровне
    set_csr(mstatus, MSTATUS_MIE);
80001ed6:	47a1                	li	a5,8
80001ed8:	fef42223          	sw	a5,-28(s0)
80001edc:	fe442783          	lw	a5,-28(s0)
80001ee0:	3007a7f3          	csrrs	a5,mstatus,a5
80001ee4:	fef42223          	sw	a5,-28(s0)
}
80001ee8:	0001                	nop
80001eea:	40f2                	lw	ra,28(sp)
80001eec:	4462                	lw	s0,24(sp)
80001eee:	6105                	addi	sp,sp,32
80001ef0:	8082                	ret

80001ef2 <InterruptDisable>:

void InterruptDisable()
{
80001ef2:	1101                	addi	sp,sp,-32
80001ef4:	ce06                	sw	ra,28(sp)
80001ef6:	cc22                	sw	s0,24(sp)
80001ef8:	1000                	addi	s0,sp,32
	// Запрещаем все прерывания в machine mode
	PLIC_SetThreshold (Plic_Mach_Target, 7);
80001efa:	459d                	li	a1,7
80001efc:	4501                	li	a0,0
80001efe:	a47fe0ef          	jal	ra,80000944 <PLIC_SetThreshold>
    // Выключаем внешнее прерывание (PLIC) в machine mode
    clear_csr(mie, MIE_MEXTERNAL);
80001f02:	6785                	lui	a5,0x1
80001f04:	80078793          	addi	a5,a5,-2048 # 800 <STACK_SIZE>
80001f08:	fef42623          	sw	a5,-20(s0)
80001f0c:	fec42783          	lw	a5,-20(s0)
80001f10:	3047b7f3          	csrrc	a5,mie,a5
80001f14:	fef42623          	sw	a5,-20(s0)
    // Запрещаем прерывания на глобальном уровне
    clear_csr(mstatus, MSTATUS_MIE);
80001f18:	47a1                	li	a5,8
80001f1a:	fef42423          	sw	a5,-24(s0)
80001f1e:	fe842783          	lw	a5,-24(s0)
80001f22:	3007b7f3          	csrrc	a5,mstatus,a5
80001f26:	fef42423          	sw	a5,-24(s0)
}
80001f2a:	0001                	nop
80001f2c:	40f2                	lw	ra,28(sp)
80001f2e:	4462                	lw	s0,24(sp)
80001f30:	6105                	addi	sp,sp,32
80001f32:	8082                	ret

80001f34 <SystemInit>:

void SystemInit(void)
{
80001f34:	1141                	addi	sp,sp,-16
80001f36:	c606                	sw	ra,12(sp)
80001f38:	c422                	sw	s0,8(sp)
80001f3a:	0800                	addi	s0,sp,16
	ClkInit();
80001f3c:	33d5                	jal	80001d20 <ClkInit>
}
80001f3e:	0001                	nop
80001f40:	40b2                	lw	ra,12(sp)
80001f42:	4422                	lw	s0,8(sp)
80001f44:	0141                	addi	sp,sp,16
80001f46:	8082                	ret

80001f48 <TMR32_SetMode>:
  * @brief   Выбор режима счёта
  * @param   mode Режим счёта
  * @retval  void
  */
__STATIC_INLINE void TMR32_SetMode(TMR32_Mode_TypeDef mode)
{
80001f48:	1101                	addi	sp,sp,-32
80001f4a:	ce22                	sw	s0,28(sp)
80001f4c:	1000                	addi	s0,sp,32
80001f4e:	fea42623          	sw	a0,-20(s0)
	assert_param(IS_TMR32_MODE(mode));

  MODIFY_REG(TMR32->CTRL, TMR32_CTRL_MODE_Msk, (uint32_t) mode << TMR32_CTRL_MODE_Pos);
80001f52:	300007b7          	lui	a5,0x30000
80001f56:	439c                	lw	a5,0(a5)
80001f58:	fcf7f693          	andi	a3,a5,-49
80001f5c:	fec42783          	lw	a5,-20(s0)
80001f60:	00479713          	slli	a4,a5,0x4
80001f64:	300007b7          	lui	a5,0x30000
80001f68:	8f55                	or	a4,a4,a3
80001f6a:	c398                	sw	a4,0(a5)
}
80001f6c:	0001                	nop
80001f6e:	4472                	lw	s0,28(sp)
80001f70:	6105                	addi	sp,sp,32
80001f72:	8082                	ret

80001f74 <TMR32_SetDivider>:
  * @brief   Выбор выходного делителя частоты таймера
  * @param   div Делитель частоты
  * @retval  void
  */
__STATIC_INLINE void TMR32_SetDivider(TMR32_Div_TypeDef div)
{
80001f74:	1101                	addi	sp,sp,-32
80001f76:	ce22                	sw	s0,28(sp)
80001f78:	1000                	addi	s0,sp,32
80001f7a:	fea42623          	sw	a0,-20(s0)
	assert_param(IS_TMR32_DIV(div));

  MODIFY_REG(TMR32->CTRL, TMR32_CTRL_DIV_Msk, (uint32_t) div << TMR32_CTRL_DIV_Pos);
80001f7e:	300007b7          	lui	a5,0x30000
80001f82:	439c                	lw	a5,0(a5)
80001f84:	f3f7f693          	andi	a3,a5,-193
80001f88:	fec42783          	lw	a5,-20(s0)
80001f8c:	00679713          	slli	a4,a5,0x6
80001f90:	300007b7          	lui	a5,0x30000
80001f94:	8f55                	or	a4,a4,a3
80001f96:	c398                	sw	a4,0(a5)
}
80001f98:	0001                	nop
80001f9a:	4472                	lw	s0,28(sp)
80001f9c:	6105                	addi	sp,sp,32
80001f9e:	8082                	ret

80001fa0 <TMR32_SetClksel>:
  * @brief   Выбор источника тактированного сигнала
  * @param   sel Источник тактирования
  * @retval  void
  */
__STATIC_INLINE void TMR32_SetClksel(TMR32_Clksel_TypeDef sel)
{
80001fa0:	1101                	addi	sp,sp,-32
80001fa2:	ce22                	sw	s0,28(sp)
80001fa4:	1000                	addi	s0,sp,32
80001fa6:	fea42623          	sw	a0,-20(s0)
	assert_param(IS_TMR32_CLKSEL(sel));

  MODIFY_REG(TMR32->CTRL, TMR32_CTRL_CLKSEL_Msk, (uint32_t) sel << TMR32_CTRL_CLKSEL_Pos);
80001faa:	300007b7          	lui	a5,0x30000
80001fae:	439c                	lw	a5,0(a5)
80001fb0:	eff7f693          	andi	a3,a5,-257
80001fb4:	fec42783          	lw	a5,-20(s0)
80001fb8:	00879713          	slli	a4,a5,0x8
80001fbc:	300007b7          	lui	a5,0x30000
80001fc0:	8f55                	or	a4,a4,a3
80001fc2:	c398                	sw	a4,0(a5)
}
80001fc4:	0001                	nop
80001fc6:	4472                	lw	s0,28(sp)
80001fc8:	6105                	addi	sp,sp,32
80001fca:	8082                	ret

80001fcc <TMR32_SetCounter>:
  * @brief   Установка значения счетчика
  * @param   CountVal  Значение счетчика
  * @retval  void
  */
__STATIC_INLINE void TMR32_SetCounter(uint32_t CountVal)
{
80001fcc:	1101                	addi	sp,sp,-32
80001fce:	ce22                	sw	s0,28(sp)
80001fd0:	1000                	addi	s0,sp,32
80001fd2:	fea42623          	sw	a0,-20(s0)
  WRITE_REG(TMR32->COUNT, CountVal);
80001fd6:	300007b7          	lui	a5,0x30000
80001fda:	fec42703          	lw	a4,-20(s0)
80001fde:	c3d8                	sw	a4,4(a5)
}
80001fe0:	0001                	nop
80001fe2:	4472                	lw	s0,28(sp)
80001fe4:	6105                	addi	sp,sp,32
80001fe6:	8082                	ret

80001fe8 <TMR32_ITCmd>:
  * @param   it Номер маскированного прерывания типа @ref TMR32_IT_TypeDef
  * @param   state Флаг для включения маскированного прерывания
  * @retval  void
  */
__STATIC_INLINE void TMR32_ITCmd(TMR32_IT_TypeDef it, FunctionalState state)
{
80001fe8:	1101                	addi	sp,sp,-32
80001fea:	ce22                	sw	s0,28(sp)
80001fec:	1000                	addi	s0,sp,32
80001fee:	fea42623          	sw	a0,-20(s0)
80001ff2:	feb42423          	sw	a1,-24(s0)
  assert_param(IS_TMR32_IT(it));
  assert_param(IS_FUNCTIONAL_STATE(state));

  MODIFY_REG(TMR32->IM, it, (uint32_t) state * (uint32_t) it);
80001ff6:	300007b7          	lui	a5,0x30000
80001ffa:	4798                	lw	a4,8(a5)
80001ffc:	fec42783          	lw	a5,-20(s0)
80002000:	fff7c793          	not	a5,a5
80002004:	00f776b3          	and	a3,a4,a5
80002008:	fe842703          	lw	a4,-24(s0)
8000200c:	fec42783          	lw	a5,-20(s0)
80002010:	02f70733          	mul	a4,a4,a5
80002014:	300007b7          	lui	a5,0x30000
80002018:	8f55                	or	a4,a4,a3
8000201a:	c798                	sw	a4,8(a5)
}
8000201c:	0001                	nop
8000201e:	4472                	lw	s0,28(sp)
80002020:	6105                	addi	sp,sp,32
80002022:	8082                	ret

80002024 <TMR32_ITClear>:
  * @brief   Сброс прерываний
  * @param   it Маскированное прерывание прерывания типа @ref TMR32_IT_TypeDef
  * @retval  void
  */
__STATIC_INLINE void TMR32_ITClear(TMR32_IT_TypeDef it)
{
80002024:	1101                	addi	sp,sp,-32
80002026:	ce22                	sw	s0,28(sp)
80002028:	1000                	addi	s0,sp,32
8000202a:	fea42623          	sw	a0,-20(s0)
  assert_param(IS_TMR32_IT(it));

  SET_BIT(TMR32->IC, it);
8000202e:	300007b7          	lui	a5,0x30000
80002032:	4bd4                	lw	a3,20(a5)
80002034:	300007b7          	lui	a5,0x30000
80002038:	fec42703          	lw	a4,-20(s0)
8000203c:	8f55                	or	a4,a4,a3
8000203e:	cbd8                	sw	a4,20(a5)
}
80002040:	0001                	nop
80002042:	4472                	lw	s0,28(sp)
80002044:	6105                	addi	sp,sp,32
80002046:	8082                	ret

80002048 <TMR32_CAPCOM_SetComparator>:
  * @param   capcomx номер регистра capcom @ref TMR32_CAPCOM_Num_TypeDef.
  * @param   CapComVal  Значение регистра сравнения
  * @retval  void
  */
__STATIC_INLINE void TMR32_CAPCOM_SetComparator(TMR32_CAPCOM_Num_TypeDef capcomx, uint32_t capcomVal)
{
80002048:	1101                	addi	sp,sp,-32
8000204a:	ce22                	sw	s0,28(sp)
8000204c:	1000                	addi	s0,sp,32
8000204e:	fea42623          	sw	a0,-20(s0)
80002052:	feb42423          	sw	a1,-24(s0)
  assert_param(IS_TMR32_CAPCOM(capcomx));

  WRITE_REG(TMR32->CAPCOM[capcomx].VAL, capcomVal);
80002056:	30000737          	lui	a4,0x30000
8000205a:	fec42783          	lw	a5,-20(s0)
8000205e:	0789                	addi	a5,a5,2 # 30000002 <STACK_SIZE+0x2ffff802>
80002060:	078e                	slli	a5,a5,0x3
80002062:	97ba                	add	a5,a5,a4
80002064:	fe842703          	lw	a4,-24(s0)
80002068:	c7d8                	sw	a4,12(a5)
}
8000206a:	0001                	nop
8000206c:	4472                	lw	s0,28(sp)
8000206e:	6105                	addi	sp,sp,32
80002070:	8082                	ret

80002072 <GPIO_ReadBit>:
  * @param   GPIOx  Выбор порта, где x=A|B|C
  * @param   Pin  Выбор пина
  * @retval  State  Состояние Если выбрано несколько пинов, то результат соответсвует логическому ИЛИ их состояний.
  */
__STATIC_INLINE BitState GPIO_ReadBit(GPIO_TypeDef* GPIOx, uint32_t Pin)
{
80002072:	1101                	addi	sp,sp,-32
80002074:	ce22                	sw	s0,28(sp)
80002076:	1000                	addi	s0,sp,32
80002078:	fea42623          	sw	a0,-20(s0)
8000207c:	feb42423          	sw	a1,-24(s0)
    assert_param(IS_GPIO_PERIPH(GPIOx));
    assert_param(IS_GET_GPIO_PIN(Pin));

    return (BitState)READ_BIT(GPIOx->DATA, (uint32_t)Pin);
80002080:	fec42783          	lw	a5,-20(s0)
80002084:	4398                	lw	a4,0(a5)
80002086:	fe842783          	lw	a5,-24(s0)
8000208a:	8ff9                	and	a5,a5,a4
8000208c:	c399                	beqz	a5,80002092 <GPIO_ReadBit+0x20>
8000208e:	4785                	li	a5,1
80002090:	a011                	j	80002094 <GPIO_ReadBit+0x22>
80002092:	4781                	li	a5,0
}
80002094:	853e                	mv	a0,a5
80002096:	4472                	lw	s0,28(sp)
80002098:	6105                	addi	sp,sp,32
8000209a:	8082                	ret

8000209c <GPIO_ITStatus>:
  * @param   GPIOx  выбор порта, где x=A|B|C  
  * @param   Pin  Выбор пинов. Любая совокупность значений значений GPIO_Pin_x (@ref GPIO_Pin_Define).
  * @retval  Status  Если выбрано несколько пинов, то результат соответсвует логическому ИЛИ их состояний.
  */
__STATIC_INLINE FlagStatus GPIO_ITStatus(GPIO_TypeDef* GPIOx, uint32_t Pin)
{
8000209c:	1101                	addi	sp,sp,-32
8000209e:	ce22                	sw	s0,28(sp)
800020a0:	1000                	addi	s0,sp,32
800020a2:	fea42623          	sw	a0,-20(s0)
800020a6:	feb42423          	sw	a1,-24(s0)
    assert_param(IS_GPIO_PERIPH(GPIOx));
    assert_param(IS_GPIO_PIN(Pin));

    return (FlagStatus)READ_BIT(GPIOx->INTSTATUS, Pin);
800020aa:	fec42783          	lw	a5,-20(s0)
800020ae:	0807a703          	lw	a4,128(a5)
800020b2:	fe842783          	lw	a5,-24(s0)
800020b6:	8ff9                	and	a5,a5,a4
800020b8:	c399                	beqz	a5,800020be <GPIO_ITStatus+0x22>
800020ba:	4785                	li	a5,1
800020bc:	a011                	j	800020c0 <GPIO_ITStatus+0x24>
800020be:	4781                	li	a5,0
}
800020c0:	853e                	mv	a0,a5
800020c2:	4472                	lw	s0,28(sp)
800020c4:	6105                	addi	sp,sp,32
800020c6:	8082                	ret

800020c8 <GPIO_ITStatusClear>:
  * @param   GPIOx  выбор порта, где x=A|B|C    
  * @param   Pin  Выбор пинов
  * @retval  void
  */
__STATIC_INLINE void GPIO_ITStatusClear(GPIO_TypeDef* GPIOx, uint32_t Pin)
{
800020c8:	1101                	addi	sp,sp,-32
800020ca:	ce22                	sw	s0,28(sp)
800020cc:	1000                	addi	s0,sp,32
800020ce:	fea42623          	sw	a0,-20(s0)
800020d2:	feb42423          	sw	a1,-24(s0)
    assert_param(IS_GPIO_PIN(Pin));

    WRITE_REG(GPIOx->INTSTATUS, Pin);
800020d6:	fec42783          	lw	a5,-20(s0)
800020da:	fe842703          	lw	a4,-24(s0)
800020de:	08e7a023          	sw	a4,128(a5)
}
800020e2:	0001                	nop
800020e4:	4472                	lw	s0,28(sp)
800020e6:	6105                	addi	sp,sp,32
800020e8:	8082                	ret

800020ea <UART4_init>:
static void gpio_irq_init(void);
static void tmr32_init(void);
static void tmr32_irq_handler(void);

void UART4_init()
{
800020ea:	1101                	addi	sp,sp,-32
800020ec:	ce22                	sw	s0,28(sp)
800020ee:	1000                	addi	s0,sp,32
    uint32_t baud_icoef = HSECLK_VAL / (16 * UART4_BAUD);
800020f0:	47a1                	li	a5,8
800020f2:	fef42623          	sw	a5,-20(s0)
    uint32_t baud_fcoef = ((HSECLK_VAL / (16.0f * UART4_BAUD) - baud_icoef) * 64 + 0.5f);
800020f6:	fec42783          	lw	a5,-20(s0)
800020fa:	d017f7d3          	fcvt.s.wu	fa5,a5
800020fe:	800077b7          	lui	a5,0x80007
80002102:	7a07a707          	flw	fa4,1952(a5) # 800077a0 <__data_source_start+0xfffffe58>
80002106:	08f77753          	fsub.s	fa4,fa4,fa5
8000210a:	800077b7          	lui	a5,0x80007
8000210e:	7a47a787          	flw	fa5,1956(a5) # 800077a4 <__data_source_start+0xfffffe5c>
80002112:	10f77753          	fmul.s	fa4,fa4,fa5
80002116:	800077b7          	lui	a5,0x80007
8000211a:	7a87a787          	flw	fa5,1960(a5) # 800077a8 <__data_source_start+0xfffffe60>
8000211e:	00f777d3          	fadd.s	fa5,fa4,fa5
80002122:	c01797d3          	fcvt.wu.s	a5,fa5,rtz
80002126:	fef42423          	sw	a5,-24(s0)
    // Настраиваем GPIO
    RCU->CGCFGAHB_bit.GPIOAEN = 1;
8000212a:	3000e7b7          	lui	a5,0x3000e
8000212e:	0007d703          	lhu	a4,0(a5) # 3000e000 <STACK_SIZE+0x3000d800>
80002132:	10076713          	ori	a4,a4,256
80002136:	00e79023          	sh	a4,0(a5)
    RCU->RSTDISAHB_bit.GPIOAEN = 1;
8000213a:	3000e7b7          	lui	a5,0x3000e
8000213e:	0107d703          	lhu	a4,16(a5) # 3000e010 <STACK_SIZE+0x3000d810>
80002142:	10076713          	ori	a4,a4,256
80002146:	00e79823          	sh	a4,16(a5)
    RCU->CGCFGAPB_bit.UART4EN = 1;
8000214a:	3000e7b7          	lui	a5,0x3000e
8000214e:	4798                	lw	a4,8(a5)
80002150:	40076713          	ori	a4,a4,1024
80002154:	c798                	sw	a4,8(a5)
    RCU->RSTDISAPB_bit.UART4EN = 1;
80002156:	3000e7b7          	lui	a5,0x3000e
8000215a:	4f98                	lw	a4,24(a5)
8000215c:	40076713          	ori	a4,a4,1024
80002160:	cf98                	sw	a4,24(a5)

    // UART4 на пинах PA8 (RX) и PA9 (TX)
    GPIOA->ALTFUNCNUM_bit.PIN8 = 1;
80002162:	280007b7          	lui	a5,0x28000
80002166:	5fd4                	lw	a3,60(a5)
80002168:	fffd0737          	lui	a4,0xfffd0
8000216c:	177d                	addi	a4,a4,-1 # fffcffff <__data_source_start+0x7ffc86b7>
8000216e:	8ef9                	and	a3,a3,a4
80002170:	6741                	lui	a4,0x10
80002172:	8f55                	or	a4,a4,a3
80002174:	dfd8                	sw	a4,60(a5)
    GPIOA->ALTFUNCNUM_bit.PIN9 = 1;
80002176:	280007b7          	lui	a5,0x28000
8000217a:	5fd4                	lw	a3,60(a5)
8000217c:	fff40737          	lui	a4,0xfff40
80002180:	177d                	addi	a4,a4,-1 # fff3ffff <__data_source_start+0x7ff386b7>
80002182:	8ef9                	and	a3,a3,a4
80002184:	00040737          	lui	a4,0x40
80002188:	8f55                	or	a4,a4,a3
8000218a:	dfd8                	sw	a4,60(a5)
    GPIOA->ALTFUNCSET = GPIO_ALTFUNCSET_PIN8_Msk | GPIO_ALTFUNCSET_PIN9_Msk;
8000218c:	280007b7          	lui	a5,0x28000
80002190:	30000713          	li	a4,768
80002194:	dbd8                	sw	a4,52(a5)

    // Настраиваем UART4
    RCU->UARTCLKCFG[4].UARTCLKCFG_bit.CLKSEL = RCU_UARTCLKCFG_CLKSEL_HSE;
80002196:	3000e7b7          	lui	a5,0x3000e
8000219a:	0807a683          	lw	a3,128(a5) # 3000e080 <STACK_SIZE+0x3000d880>
8000219e:	fffd0737          	lui	a4,0xfffd0
800021a2:	177d                	addi	a4,a4,-1 # fffcffff <__data_source_start+0x7ffc86b7>
800021a4:	8ef9                	and	a3,a3,a4
800021a6:	6741                	lui	a4,0x10
800021a8:	8f55                	or	a4,a4,a3
800021aa:	08e7a023          	sw	a4,128(a5)
    RCU->UARTCLKCFG[4].UARTCLKCFG_bit.DIVEN = 0;
800021ae:	3000e7b7          	lui	a5,0x3000e
800021b2:	0807a683          	lw	a3,128(a5) # 3000e080 <STACK_SIZE+0x3000d880>
800021b6:	fff00737          	lui	a4,0xfff00
800021ba:	177d                	addi	a4,a4,-1 # ffefffff <__data_source_start+0x7fef86b7>
800021bc:	8f75                	and	a4,a4,a3
800021be:	08e7a023          	sw	a4,128(a5)
    RCU->UARTCLKCFG[4].UARTCLKCFG_bit.RSTDIS = 1;
800021c2:	3000e7b7          	lui	a5,0x3000e
800021c6:	0807a703          	lw	a4,128(a5) # 3000e080 <STACK_SIZE+0x3000d880>
800021ca:	10076713          	ori	a4,a4,256
800021ce:	08e7a023          	sw	a4,128(a5)
    RCU->UARTCLKCFG[4].UARTCLKCFG_bit.CLKEN = 1;
800021d2:	3000e7b7          	lui	a5,0x3000e
800021d6:	0807a703          	lw	a4,128(a5) # 3000e080 <STACK_SIZE+0x3000d880>
800021da:	00176713          	ori	a4,a4,1
800021de:	08e7a023          	sw	a4,128(a5)

    UART4->IBRD = baud_icoef;
800021e2:	3000a7b7          	lui	a5,0x3000a
800021e6:	fec42703          	lw	a4,-20(s0)
800021ea:	d3d8                	sw	a4,36(a5)
    UART4->FBRD = baud_fcoef;
800021ec:	3000a7b7          	lui	a5,0x3000a
800021f0:	fe842703          	lw	a4,-24(s0)
800021f4:	d798                	sw	a4,40(a5)
    UART4->LCRH = UART_LCRH_FEN_Msk | (3 << UART_LCRH_WLEN_Pos);
800021f6:	3000a7b7          	lui	a5,0x3000a
800021fa:	07000713          	li	a4,112
800021fe:	d7d8                	sw	a4,44(a5)
    UART4->IFLS = 0;
80002200:	3000a7b7          	lui	a5,0x3000a
80002204:	0207aa23          	sw	zero,52(a5) # 3000a034 <STACK_SIZE+0x30009834>
    UART4->CR = UART_CR_TXE_Msk | UART_CR_RXE_Msk | UART_CR_UARTEN_Msk;
80002208:	3000a7b7          	lui	a5,0x3000a
8000220c:	30100713          	li	a4,769
80002210:	db98                	sw	a4,48(a5)
}
80002212:	0001                	nop
80002214:	4472                	lw	s0,28(sp)
80002216:	6105                	addi	sp,sp,32
80002218:	8082                	ret

8000221a <periph_init>:



//-- Peripheral init functions -------------------------------------------------
void periph_init()
{
8000221a:	1141                	addi	sp,sp,-16
8000221c:	c606                	sw	ra,12(sp)
8000221e:	c422                	sw	s0,8(sp)
80002220:	0800                	addi	s0,sp,16
  SystemInit();
80002222:	3b09                	jal	80001f34 <SystemInit>
  SystemCoreClockUpdate();
80002224:	e24ff0ef          	jal	ra,80001848 <SystemCoreClockUpdate>
  retarget_init();
80002228:	a1aff0ef          	jal	ra,80001442 <retarget_init>
  gpio_init();
8000222c:	2809                	jal	8000223e <gpio_init>
  tmr32_init();
8000222e:	2cb9                	jal	8000248c <tmr32_init>
  gpio_irq_init();
80002230:	2835                	jal	8000226c <gpio_irq_init>
  InterruptEnable();
80002232:	31ad                	jal	80001e9c <InterruptEnable>
}
80002234:	0001                	nop
80002236:	40b2                	lw	ra,12(sp)
80002238:	4422                	lw	s0,8(sp)
8000223a:	0141                	addi	sp,sp,16
8000223c:	8082                	ret

8000223e <gpio_init>:

//--- USER FUNCTIONS ----------------------------------------------------------------------

static void gpio_init(void)
{
8000223e:	1141                	addi	sp,sp,-16
80002240:	c622                	sw	s0,12(sp)
80002242:	0800                	addi	s0,sp,16
  // Кнопки все на GPIOB
  RCU->CGCFGAHB_bit.GPIOBEN = 1;
80002244:	3000e7b7          	lui	a5,0x3000e
80002248:	0007d703          	lhu	a4,0(a5) # 3000e000 <STACK_SIZE+0x3000d800>
8000224c:	20076713          	ori	a4,a4,512
80002250:	00e79023          	sh	a4,0(a5)
  RCU->RSTDISAHB_bit.GPIOBEN = 1;
80002254:	3000e7b7          	lui	a5,0x3000e
80002258:	0107d703          	lhu	a4,16(a5) # 3000e010 <STACK_SIZE+0x3000d810>
8000225c:	20076713          	ori	a4,a4,512
80002260:	00e79823          	sh	a4,16(a5)
}
80002264:	0001                	nop
80002266:	4432                	lw	s0,12(sp)
80002268:	0141                	addi	sp,sp,16
8000226a:	8082                	ret

8000226c <gpio_irq_init>:

// Инициализация прерываний GPIO для кнопок
static void gpio_irq_init(void)
{
8000226c:	1101                	addi	sp,sp,-32
8000226e:	ce06                	sw	ra,28(sp)
80002270:	cc22                	sw	s0,24(sp)
80002272:	1000                	addi	s0,sp,32
  // Кнопки калькулятора: 10 цифр + 4 операции + Del + "="
  for (uint8_t i = 0; i < KEY_COUNT; i++) {
80002274:	fe0407a3          	sb	zero,-17(s0)
80002278:	a089                	j	800022ba <gpio_irq_init+0x4e>
    gpio_init_input_irq(g_btn_ports[i], g_btn_pins[i], GPIO_PullMode_PU, &g_btn_last_state[i]);
8000227a:	fef44783          	lbu	a5,-17(s0)
8000227e:	80007737          	lui	a4,0x80007
80002282:	6d070713          	addi	a4,a4,1744 # 800076d0 <__data_source_start+0xfffffd88>
80002286:	078a                	slli	a5,a5,0x2
80002288:	97ba                	add	a5,a5,a4
8000228a:	4388                	lw	a0,0(a5)
8000228c:	fef44783          	lbu	a5,-17(s0)
80002290:	80007737          	lui	a4,0x80007
80002294:	71070713          	addi	a4,a4,1808 # 80007710 <__data_source_start+0xfffffdc8>
80002298:	078a                	slli	a5,a5,0x2
8000229a:	97ba                	add	a5,a5,a4
8000229c:	438c                	lw	a1,0(a5)
8000229e:	fef44703          	lbu	a4,-17(s0)
800022a2:	db018793          	addi	a5,gp,-592 # 40000530 <g_btn_last_state>
800022a6:	97ba                	add	a5,a5,a4
800022a8:	86be                	mv	a3,a5
800022aa:	4605                	li	a2,1
800022ac:	3c0010ef          	jal	ra,8000366c <gpio_init_input_irq>
  for (uint8_t i = 0; i < KEY_COUNT; i++) {
800022b0:	fef44783          	lbu	a5,-17(s0)
800022b4:	0785                	addi	a5,a5,1
800022b6:	fef407a3          	sb	a5,-17(s0)
800022ba:	fef44703          	lbu	a4,-17(s0)
800022be:	47bd                	li	a5,15
800022c0:	fae7fde3          	bgeu	a5,a4,8000227a <gpio_irq_init+0xe>
  }
  
  // Зарегистрировать обработчик в PLIC и включить линию прерываний GPIO
  PLIC_SetPriority(PLIC_GPIO_VECTNUM, 1);
800022c4:	4585                	li	a1,1
800022c6:	4515                	li	a0,5
800022c8:	c86fe0ef          	jal	ra,8000074e <PLIC_SetPriority>
  PLIC_SetIrqHandler(Plic_Mach_Target, PLIC_GPIO_VECTNUM, gpio_irq_handler);
800022cc:	800027b7          	lui	a5,0x80002
800022d0:	2ee78613          	addi	a2,a5,750 # 800022ee <__data_source_start+0xffffa9a6>
800022d4:	4595                	li	a1,5
800022d6:	4501                	li	a0,0
800022d8:	c2afe0ef          	jal	ra,80000702 <PLIC_SetIrqHandler>
  PLIC_IntEnable(Plic_Mach_Target, PLIC_GPIO_VECTNUM);
800022dc:	4595                	li	a1,5
800022de:	4501                	li	a0,0
800022e0:	c98fe0ef          	jal	ra,80000778 <PLIC_IntEnable>
}
800022e4:	0001                	nop
800022e6:	40f2                	lw	ra,28(sp)
800022e8:	4462                	lw	s0,24(sp)
800022ea:	6105                	addi	sp,sp,32
800022ec:	8082                	ret

800022ee <gpio_irq_handler>:
// Простой самотест EEPROM: запись и чтение известного шаблона


// Обработчик прерывания GPIO (кнопки)
static void gpio_irq_handler(void)
{
800022ee:	1101                	addi	sp,sp,-32
800022f0:	ce06                	sw	ra,28(sp)
800022f2:	cc22                	sw	s0,24(sp)
800022f4:	1000                	addi	s0,sp,32
  uint32_t now = ms_ticks;
800022f6:	e301a783          	lw	a5,-464(gp) # 400005b0 <ms_ticks>
800022fa:	fef42423          	sw	a5,-24(s0)

  for (uint8_t i = 0; i < KEY_COUNT; i++) {
800022fe:	fe0407a3          	sb	zero,-17(s0)
80002302:	aa95                	j	80002476 <gpio_irq_handler+0x188>
    if (GPIO_ITStatus(g_btn_ports[i], g_btn_pins[i]) == SET) {
80002304:	fef44783          	lbu	a5,-17(s0)
80002308:	80007737          	lui	a4,0x80007
8000230c:	6d070713          	addi	a4,a4,1744 # 800076d0 <__data_source_start+0xfffffd88>
80002310:	078a                	slli	a5,a5,0x2
80002312:	97ba                	add	a5,a5,a4
80002314:	4394                	lw	a3,0(a5)
80002316:	fef44783          	lbu	a5,-17(s0)
8000231a:	80007737          	lui	a4,0x80007
8000231e:	71070713          	addi	a4,a4,1808 # 80007710 <__data_source_start+0xfffffdc8>
80002322:	078a                	slli	a5,a5,0x2
80002324:	97ba                	add	a5,a5,a4
80002326:	439c                	lw	a5,0(a5)
80002328:	85be                	mv	a1,a5
8000232a:	8536                	mv	a0,a3
8000232c:	3b85                	jal	8000209c <GPIO_ITStatus>
8000232e:	872a                	mv	a4,a0
80002330:	4785                	li	a5,1
80002332:	12f71d63          	bne	a4,a5,8000246c <gpio_irq_handler+0x17e>
      uint8_t btn_current = GPIO_ReadBit(g_btn_ports[i], g_btn_pins[i]) ? 1 : 0;
80002336:	fef44783          	lbu	a5,-17(s0)
8000233a:	80007737          	lui	a4,0x80007
8000233e:	6d070713          	addi	a4,a4,1744 # 800076d0 <__data_source_start+0xfffffd88>
80002342:	078a                	slli	a5,a5,0x2
80002344:	97ba                	add	a5,a5,a4
80002346:	4394                	lw	a3,0(a5)
80002348:	fef44783          	lbu	a5,-17(s0)
8000234c:	80007737          	lui	a4,0x80007
80002350:	71070713          	addi	a4,a4,1808 # 80007710 <__data_source_start+0xfffffdc8>
80002354:	078a                	slli	a5,a5,0x2
80002356:	97ba                	add	a5,a5,a4
80002358:	439c                	lw	a5,0(a5)
8000235a:	85be                	mv	a1,a5
8000235c:	8536                	mv	a0,a3
8000235e:	3b11                	jal	80002072 <GPIO_ReadBit>
80002360:	87aa                	mv	a5,a0
80002362:	00f037b3          	snez	a5,a5
80002366:	0ff7f793          	zext.b	a5,a5
8000236a:	fef403a3          	sb	a5,-25(s0)

      if (g_btn_last_state[i] == 1 && btn_current == 0) {
8000236e:	fef44783          	lbu	a5,-17(s0)
80002372:	db018713          	addi	a4,gp,-592 # 40000530 <g_btn_last_state>
80002376:	97ba                	add	a5,a5,a4
80002378:	0007c783          	lbu	a5,0(a5)
8000237c:	0ff7f713          	zext.b	a4,a5
80002380:	4785                	li	a5,1
80002382:	06f71163          	bne	a4,a5,800023e4 <gpio_irq_handler+0xf6>
80002386:	fe744783          	lbu	a5,-25(s0)
8000238a:	efa9                	bnez	a5,800023e4 <gpio_irq_handler+0xf6>
        // Кнопка нажата (переход из 1 в 0)
        if ((now - g_btn_last_ms[i]) >= g_debounce_ms) {
8000238c:	fef44783          	lbu	a5,-17(s0)
80002390:	e6818713          	addi	a4,gp,-408 # 400005e8 <g_btn_last_ms>
80002394:	078a                	slli	a5,a5,0x2
80002396:	97ba                	add	a5,a5,a4
80002398:	439c                	lw	a5,0(a5)
8000239a:	fe842703          	lw	a4,-24(s0)
8000239e:	8f1d                	sub	a4,a4,a5
800023a0:	03200793          	li	a5,50
800023a4:	08f76f63          	bltu	a4,a5,80002442 <gpio_irq_handler+0x154>
          // Сразу передаём событие в модуль калькулятора
          on_key_pressed(g_btn_keys[i]);
800023a8:	fef44783          	lbu	a5,-17(s0)
800023ac:	80007737          	lui	a4,0x80007
800023b0:	75070713          	addi	a4,a4,1872 # 80007750 <__data_source_start+0xfffffe08>
800023b4:	078a                	slli	a5,a5,0x2
800023b6:	97ba                	add	a5,a5,a4
800023b8:	439c                	lw	a5,0(a5)
800023ba:	853e                	mv	a0,a5
800023bc:	2d61                	jal	80002a54 <on_key_pressed>

          g_btn_last_ms[i] = now;
800023be:	fef44783          	lbu	a5,-17(s0)
800023c2:	e6818713          	addi	a4,gp,-408 # 400005e8 <g_btn_last_ms>
800023c6:	078a                	slli	a5,a5,0x2
800023c8:	97ba                	add	a5,a5,a4
800023ca:	fe842703          	lw	a4,-24(s0)
800023ce:	c398                	sw	a4,0(a5)
          g_btn_last_state[i] = btn_current;
800023d0:	fef44783          	lbu	a5,-17(s0)
800023d4:	db018713          	addi	a4,gp,-592 # 40000530 <g_btn_last_state>
800023d8:	97ba                	add	a5,a5,a4
800023da:	fe744703          	lbu	a4,-25(s0)
800023de:	00e78023          	sb	a4,0(a5)
        if ((now - g_btn_last_ms[i]) >= g_debounce_ms) {
800023e2:	a085                	j	80002442 <gpio_irq_handler+0x154>
        }
      } else if (g_btn_last_state[i] == 0 && btn_current == 1) {
800023e4:	fef44783          	lbu	a5,-17(s0)
800023e8:	db018713          	addi	a4,gp,-592 # 40000530 <g_btn_last_state>
800023ec:	97ba                	add	a5,a5,a4
800023ee:	0007c783          	lbu	a5,0(a5)
800023f2:	0ff7f793          	zext.b	a5,a5
800023f6:	e7b1                	bnez	a5,80002442 <gpio_irq_handler+0x154>
800023f8:	fe744703          	lbu	a4,-25(s0)
800023fc:	4785                	li	a5,1
800023fe:	04f71263          	bne	a4,a5,80002442 <gpio_irq_handler+0x154>
        // Кнопка отпущена (переход из 0 в 1)
        if ((now - g_btn_last_ms[i]) >= g_debounce_ms) {
80002402:	fef44783          	lbu	a5,-17(s0)
80002406:	e6818713          	addi	a4,gp,-408 # 400005e8 <g_btn_last_ms>
8000240a:	078a                	slli	a5,a5,0x2
8000240c:	97ba                	add	a5,a5,a4
8000240e:	439c                	lw	a5,0(a5)
80002410:	fe842703          	lw	a4,-24(s0)
80002414:	8f1d                	sub	a4,a4,a5
80002416:	03200793          	li	a5,50
8000241a:	02f76463          	bltu	a4,a5,80002442 <gpio_irq_handler+0x154>
          g_btn_last_state[i] = btn_current;
8000241e:	fef44783          	lbu	a5,-17(s0)
80002422:	db018713          	addi	a4,gp,-592 # 40000530 <g_btn_last_state>
80002426:	97ba                	add	a5,a5,a4
80002428:	fe744703          	lbu	a4,-25(s0)
8000242c:	00e78023          	sb	a4,0(a5)
          g_btn_last_ms[i] = now;
80002430:	fef44783          	lbu	a5,-17(s0)
80002434:	e6818713          	addi	a4,gp,-408 # 400005e8 <g_btn_last_ms>
80002438:	078a                	slli	a5,a5,0x2
8000243a:	97ba                	add	a5,a5,a4
8000243c:	fe842703          	lw	a4,-24(s0)
80002440:	c398                	sw	a4,0(a5)
        }
      }
      
      GPIO_ITStatusClear(g_btn_ports[i], g_btn_pins[i]);
80002442:	fef44783          	lbu	a5,-17(s0)
80002446:	80007737          	lui	a4,0x80007
8000244a:	6d070713          	addi	a4,a4,1744 # 800076d0 <__data_source_start+0xfffffd88>
8000244e:	078a                	slli	a5,a5,0x2
80002450:	97ba                	add	a5,a5,a4
80002452:	4394                	lw	a3,0(a5)
80002454:	fef44783          	lbu	a5,-17(s0)
80002458:	80007737          	lui	a4,0x80007
8000245c:	71070713          	addi	a4,a4,1808 # 80007710 <__data_source_start+0xfffffdc8>
80002460:	078a                	slli	a5,a5,0x2
80002462:	97ba                	add	a5,a5,a4
80002464:	439c                	lw	a5,0(a5)
80002466:	85be                	mv	a1,a5
80002468:	8536                	mv	a0,a3
8000246a:	39b9                	jal	800020c8 <GPIO_ITStatusClear>
  for (uint8_t i = 0; i < KEY_COUNT; i++) {
8000246c:	fef44783          	lbu	a5,-17(s0)
80002470:	0785                	addi	a5,a5,1
80002472:	fef407a3          	sb	a5,-17(s0)
80002476:	fef44703          	lbu	a4,-17(s0)
8000247a:	47bd                	li	a5,15
8000247c:	e8e7f4e3          	bgeu	a5,a4,80002304 <gpio_irq_handler+0x16>
    }
  }
}
80002480:	0001                	nop
80002482:	0001                	nop
80002484:	40f2                	lw	ra,28(sp)
80002486:	4462                	lw	s0,24(sp)
80002488:	6105                	addi	sp,sp,32
8000248a:	8082                	ret

8000248c <tmr32_init>:

static void tmr32_init(void) 
{
8000248c:	1101                	addi	sp,sp,-32
8000248e:	ce06                	sw	ra,28(sp)
80002490:	cc22                	sw	s0,24(sp)
80002492:	1000                	addi	s0,sp,32
  // Тактирование TMR32
  RCU->CGCFGAPB_bit.TMR32EN = 1;
80002494:	3000e7b7          	lui	a5,0x3000e
80002498:	4798                	lw	a4,8(a5)
8000249a:	00176713          	ori	a4,a4,1
8000249e:	c798                	sw	a4,8(a5)
  RCU->RSTDISAPB_bit.TMR32EN = 1;
800024a0:	3000e7b7          	lui	a5,0x3000e
800024a4:	4f98                	lw	a4,24(a5)
800024a6:	00176713          	ori	a4,a4,1
800024aa:	cf98                	sw	a4,24(a5)

  // Настройка таймера: SYSCLK / 8, режим Up до CAPCOM0, период ~1 мс
  TMR32_SetClksel(TMR32_Clksel_SysClk);
800024ac:	4501                	li	a0,0
800024ae:	3ccd                	jal	80001fa0 <TMR32_SetClksel>
  TMR32_SetDivider(TMR32_Div_8);
800024b0:	450d                	li	a0,3
800024b2:	34c9                	jal	80001f74 <TMR32_SetDivider>
  TMR32_SetMode(TMR32_Mode_Capcom_Up);
800024b4:	4505                	li	a0,1
800024b6:	3c49                	jal	80001f48 <TMR32_SetMode>
  uint32_t cmp = (SystemCoreClock / 8u) / 1000u; // 1 мс
800024b8:	e201a703          	lw	a4,-480(gp) # 400005a0 <SystemCoreClock>
800024bc:	6789                	lui	a5,0x2
800024be:	f4078793          	addi	a5,a5,-192 # 1f40 <STACK_SIZE+0x1740>
800024c2:	02f757b3          	divu	a5,a4,a5
800024c6:	fef42623          	sw	a5,-20(s0)
  if (cmp == 0) cmp = 1;
800024ca:	fec42783          	lw	a5,-20(s0)
800024ce:	e781                	bnez	a5,800024d6 <tmr32_init+0x4a>
800024d0:	4785                	li	a5,1
800024d2:	fef42623          	sw	a5,-20(s0)
  TMR32_CAPCOM_SetComparator(TMR32_CAPCOM_0, cmp);
800024d6:	fec42583          	lw	a1,-20(s0)
800024da:	4501                	li	a0,0
800024dc:	36b5                	jal	80002048 <TMR32_CAPCOM_SetComparator>
  TMR32_SetCounter(0);
800024de:	4501                	li	a0,0
800024e0:	34f5                	jal	80001fcc <TMR32_SetCounter>

  // Прерывание по переполнению таймера (обновление)
  TMR32_ITCmd(TMR32_IT_CAPCOM_0, ENABLE);
800024e2:	4585                	li	a1,1
800024e4:	4505                	li	a0,1
800024e6:	3609                	jal	80001fe8 <TMR32_ITCmd>

  // Регистрация обработчика в PLIC
  PLIC_SetPriority(PLIC_TMR32_VECTNUM, 1);
800024e8:	4585                	li	a1,1
800024ea:	4519                	li	a0,6
800024ec:	a62fe0ef          	jal	ra,8000074e <PLIC_SetPriority>
  PLIC_SetIrqHandler(Plic_Mach_Target, PLIC_TMR32_VECTNUM, tmr32_irq_handler);
800024f0:	800027b7          	lui	a5,0x80002
800024f4:	51278613          	addi	a2,a5,1298 # 80002512 <__data_source_start+0xffffabca>
800024f8:	4599                	li	a1,6
800024fa:	4501                	li	a0,0
800024fc:	a06fe0ef          	jal	ra,80000702 <PLIC_SetIrqHandler>
  PLIC_IntEnable(Plic_Mach_Target, PLIC_TMR32_VECTNUM);
80002500:	4599                	li	a1,6
80002502:	4501                	li	a0,0
80002504:	a74fe0ef          	jal	ra,80000778 <PLIC_IntEnable>
}
80002508:	0001                	nop
8000250a:	40f2                	lw	ra,28(sp)
8000250c:	4462                	lw	s0,24(sp)
8000250e:	6105                	addi	sp,sp,32
80002510:	8082                	ret

80002512 <tmr32_irq_handler>:

static void tmr32_irq_handler(void)
{
80002512:	1141                	addi	sp,sp,-16
80002514:	c606                	sw	ra,12(sp)
80002516:	c422                	sw	s0,8(sp)
80002518:	0800                	addi	s0,sp,16
  // Инкремент тиков, сброс флага
  ms_ticks++;
8000251a:	e301a783          	lw	a5,-464(gp) # 400005b0 <ms_ticks>
8000251e:	00178713          	addi	a4,a5,1
80002522:	e2e1a823          	sw	a4,-464(gp) # 400005b0 <ms_ticks>
  TMR32_ITClear(TMR32_IT_CAPCOM_0);
80002526:	4505                	li	a0,1
80002528:	3cf5                	jal	80002024 <TMR32_ITClear>
}
8000252a:	0001                	nop
8000252c:	40b2                	lw	ra,12(sp)
8000252e:	4422                	lw	s0,8(sp)
80002530:	0141                	addi	sp,sp,16
80002532:	8082                	ret

80002534 <main>:



//-- Main ----------------------------------------------------------------------
int main(void)
{
80002534:	1141                	addi	sp,sp,-16
80002536:	c606                	sw	ra,12(sp)
80002538:	c422                	sw	s0,8(sp)
8000253a:	0800                	addi	s0,sp,16
  periph_init();
8000253c:	39f9                	jal	8000221a <periph_init>
  printf("Hello World\r\n");
8000253e:	800077b7          	lui	a5,0x80007
80002542:	79078513          	addi	a0,a5,1936 # 80007790 <__data_source_start+0xfffffe48>
80002546:	e19fe0ef          	jal	ra,8000135e <puts>
  while(1)
  {
    __asm volatile("wfi");
8000254a:	10500073          	wfi
8000254e:	bff5                	j	8000254a <main+0x16>

80002550 <precedence>:

static char expr[EXPR_MAX_LEN];
static int  expr_len = 0;

static int precedence(char op)
{
80002550:	1101                	addi	sp,sp,-32
80002552:	ce22                	sw	s0,28(sp)
80002554:	1000                	addi	s0,sp,32
80002556:	87aa                	mv	a5,a0
80002558:	fef407a3          	sb	a5,-17(s0)
  if (op == '+' || op == '-') return 1;
8000255c:	fef44703          	lbu	a4,-17(s0)
80002560:	02b00793          	li	a5,43
80002564:	00f70863          	beq	a4,a5,80002574 <precedence+0x24>
80002568:	fef44703          	lbu	a4,-17(s0)
8000256c:	02d00793          	li	a5,45
80002570:	00f71463          	bne	a4,a5,80002578 <precedence+0x28>
80002574:	4785                	li	a5,1
80002576:	a005                	j	80002596 <precedence+0x46>
  if (op == '*' || op == '/') return 2;
80002578:	fef44703          	lbu	a4,-17(s0)
8000257c:	02a00793          	li	a5,42
80002580:	00f70863          	beq	a4,a5,80002590 <precedence+0x40>
80002584:	fef44703          	lbu	a4,-17(s0)
80002588:	02f00793          	li	a5,47
8000258c:	00f71463          	bne	a4,a5,80002594 <precedence+0x44>
80002590:	4789                	li	a5,2
80002592:	a011                	j	80002596 <precedence+0x46>
  return 0;
80002594:	4781                	li	a5,0
}
80002596:	853e                	mv	a0,a5
80002598:	4472                	lw	s0,28(sp)
8000259a:	6105                	addi	sp,sp,32
8000259c:	8082                	ret

8000259e <parse_to_rpn>:

static int parse_to_rpn(const char *expr_str, Token *out, int *out_len)
{
8000259e:	7159                	addi	sp,sp,-112
800025a0:	d686                	sw	ra,108(sp)
800025a2:	d4a2                	sw	s0,104(sp)
800025a4:	d2a6                	sw	s1,100(sp)
800025a6:	1880                	addi	s0,sp,112
800025a8:	f8a42e23          	sw	a0,-100(s0)
800025ac:	f8b42c23          	sw	a1,-104(s0)
800025b0:	f8c42a23          	sw	a2,-108(s0)
  char op_stack[MAX_TOKENS];
  int  op_top = 0;
800025b4:	fe042623          	sw	zero,-20(s0)
  int  i = 0;
800025b8:	fe042423          	sw	zero,-24(s0)

  *out_len = 0;
800025bc:	f9442783          	lw	a5,-108(s0)
800025c0:	0007a023          	sw	zero,0(a5)

  while (expr_str[i] != '\0') {
800025c4:	ac29                	j	800027de <parse_to_rpn+0x240>
    char c = expr_str[i];
800025c6:	fe842783          	lw	a5,-24(s0)
800025ca:	f9c42703          	lw	a4,-100(s0)
800025ce:	97ba                	add	a5,a5,a4
800025d0:	0007c783          	lbu	a5,0(a5)
800025d4:	fef401a3          	sb	a5,-29(s0)

    if (c == ' ' || c == '\t') {
800025d8:	fe344703          	lbu	a4,-29(s0)
800025dc:	02000793          	li	a5,32
800025e0:	00f70763          	beq	a4,a5,800025ee <parse_to_rpn+0x50>
800025e4:	fe344703          	lbu	a4,-29(s0)
800025e8:	47a5                	li	a5,9
800025ea:	00f71863          	bne	a4,a5,800025fa <parse_to_rpn+0x5c>
      i++;
800025ee:	fe842783          	lw	a5,-24(s0)
800025f2:	0785                	addi	a5,a5,1
800025f4:	fef42423          	sw	a5,-24(s0)
      continue;
800025f8:	a2dd                	j	800027de <parse_to_rpn+0x240>
    }

    // Число (подряд идущие цифры)
    if (c >= '0' && c <= '9') {
800025fa:	fe344703          	lbu	a4,-29(s0)
800025fe:	02f00793          	li	a5,47
80002602:	0ce7fa63          	bgeu	a5,a4,800026d6 <parse_to_rpn+0x138>
80002606:	fe344703          	lbu	a4,-29(s0)
8000260a:	03900793          	li	a5,57
8000260e:	0ce7e463          	bltu	a5,a4,800026d6 <parse_to_rpn+0x138>
      int value = 0;
80002612:	fe042223          	sw	zero,-28(s0)
      while (expr_str[i] >= '0' && expr_str[i] <= '9') {
80002616:	a80d                	j	80002648 <parse_to_rpn+0xaa>
        value = value * 10 + (expr_str[i] - '0');
80002618:	fe442703          	lw	a4,-28(s0)
8000261c:	87ba                	mv	a5,a4
8000261e:	078a                	slli	a5,a5,0x2
80002620:	97ba                	add	a5,a5,a4
80002622:	0786                	slli	a5,a5,0x1
80002624:	86be                	mv	a3,a5
80002626:	fe842783          	lw	a5,-24(s0)
8000262a:	f9c42703          	lw	a4,-100(s0)
8000262e:	97ba                	add	a5,a5,a4
80002630:	0007c783          	lbu	a5,0(a5)
80002634:	fd078793          	addi	a5,a5,-48
80002638:	97b6                	add	a5,a5,a3
8000263a:	fef42223          	sw	a5,-28(s0)
        i++;
8000263e:	fe842783          	lw	a5,-24(s0)
80002642:	0785                	addi	a5,a5,1
80002644:	fef42423          	sw	a5,-24(s0)
      while (expr_str[i] >= '0' && expr_str[i] <= '9') {
80002648:	fe842783          	lw	a5,-24(s0)
8000264c:	f9c42703          	lw	a4,-100(s0)
80002650:	97ba                	add	a5,a5,a4
80002652:	0007c703          	lbu	a4,0(a5)
80002656:	02f00793          	li	a5,47
8000265a:	00e7fd63          	bgeu	a5,a4,80002674 <parse_to_rpn+0xd6>
8000265e:	fe842783          	lw	a5,-24(s0)
80002662:	f9c42703          	lw	a4,-100(s0)
80002666:	97ba                	add	a5,a5,a4
80002668:	0007c703          	lbu	a4,0(a5)
8000266c:	03900793          	li	a5,57
80002670:	fae7f4e3          	bgeu	a5,a4,80002618 <parse_to_rpn+0x7a>
      }
      if (*out_len >= MAX_TOKENS) return -1;
80002674:	f9442783          	lw	a5,-108(s0)
80002678:	4398                	lw	a4,0(a5)
8000267a:	03f00793          	li	a5,63
8000267e:	00e7d463          	bge	a5,a4,80002686 <parse_to_rpn+0xe8>
80002682:	57fd                	li	a5,-1
80002684:	a2f5                	j	80002870 <parse_to_rpn+0x2d2>
      out[*out_len].type  = 'n';
80002686:	f9442783          	lw	a5,-108(s0)
8000268a:	439c                	lw	a5,0(a5)
8000268c:	873e                	mv	a4,a5
8000268e:	87ba                	mv	a5,a4
80002690:	0786                	slli	a5,a5,0x1
80002692:	97ba                	add	a5,a5,a4
80002694:	078a                	slli	a5,a5,0x2
80002696:	873e                	mv	a4,a5
80002698:	f9842783          	lw	a5,-104(s0)
8000269c:	97ba                	add	a5,a5,a4
8000269e:	06e00713          	li	a4,110
800026a2:	00e78023          	sb	a4,0(a5)
      out[*out_len].value = value;
800026a6:	f9442783          	lw	a5,-108(s0)
800026aa:	439c                	lw	a5,0(a5)
800026ac:	873e                	mv	a4,a5
800026ae:	87ba                	mv	a5,a4
800026b0:	0786                	slli	a5,a5,0x1
800026b2:	97ba                	add	a5,a5,a4
800026b4:	078a                	slli	a5,a5,0x2
800026b6:	873e                	mv	a4,a5
800026b8:	f9842783          	lw	a5,-104(s0)
800026bc:	97ba                	add	a5,a5,a4
800026be:	fe442703          	lw	a4,-28(s0)
800026c2:	c3d8                	sw	a4,4(a5)
      (*out_len)++;
800026c4:	f9442783          	lw	a5,-108(s0)
800026c8:	439c                	lw	a5,0(a5)
800026ca:	00178713          	addi	a4,a5,1
800026ce:	f9442783          	lw	a5,-108(s0)
800026d2:	c398                	sw	a4,0(a5)
      continue;
800026d4:	a229                	j	800027de <parse_to_rpn+0x240>
    }

    // Оператор
    if (c == '+' || c == '-' || c == '*' || c == '/') {
800026d6:	fe344703          	lbu	a4,-29(s0)
800026da:	02b00793          	li	a5,43
800026de:	08f70f63          	beq	a4,a5,8000277c <parse_to_rpn+0x1de>
800026e2:	fe344703          	lbu	a4,-29(s0)
800026e6:	02d00793          	li	a5,45
800026ea:	08f70963          	beq	a4,a5,8000277c <parse_to_rpn+0x1de>
800026ee:	fe344703          	lbu	a4,-29(s0)
800026f2:	02a00793          	li	a5,42
800026f6:	08f70363          	beq	a4,a5,8000277c <parse_to_rpn+0x1de>
800026fa:	fe344703          	lbu	a4,-29(s0)
800026fe:	02f00793          	li	a5,47
80002702:	0cf71c63          	bne	a4,a5,800027da <parse_to_rpn+0x23c>
      while (op_top > 0 &&
80002706:	a89d                	j	8000277c <parse_to_rpn+0x1de>
             precedence(op_stack[op_top - 1]) >= precedence(c)) {
        if (*out_len >= MAX_TOKENS) return -1;
80002708:	f9442783          	lw	a5,-108(s0)
8000270c:	4398                	lw	a4,0(a5)
8000270e:	03f00793          	li	a5,63
80002712:	00e7d463          	bge	a5,a4,8000271a <parse_to_rpn+0x17c>
80002716:	57fd                	li	a5,-1
80002718:	aaa1                	j	80002870 <parse_to_rpn+0x2d2>
        out[*out_len].type = 'o';
8000271a:	f9442783          	lw	a5,-108(s0)
8000271e:	439c                	lw	a5,0(a5)
80002720:	873e                	mv	a4,a5
80002722:	87ba                	mv	a5,a4
80002724:	0786                	slli	a5,a5,0x1
80002726:	97ba                	add	a5,a5,a4
80002728:	078a                	slli	a5,a5,0x2
8000272a:	873e                	mv	a4,a5
8000272c:	f9842783          	lw	a5,-104(s0)
80002730:	97ba                	add	a5,a5,a4
80002732:	06f00713          	li	a4,111
80002736:	00e78023          	sb	a4,0(a5)
        out[*out_len].op   = op_stack[--op_top];
8000273a:	fec42783          	lw	a5,-20(s0)
8000273e:	17fd                	addi	a5,a5,-1
80002740:	fef42623          	sw	a5,-20(s0)
80002744:	f9442783          	lw	a5,-108(s0)
80002748:	439c                	lw	a5,0(a5)
8000274a:	873e                	mv	a4,a5
8000274c:	87ba                	mv	a5,a4
8000274e:	0786                	slli	a5,a5,0x1
80002750:	97ba                	add	a5,a5,a4
80002752:	078a                	slli	a5,a5,0x2
80002754:	873e                	mv	a4,a5
80002756:	f9842783          	lw	a5,-104(s0)
8000275a:	97ba                	add	a5,a5,a4
8000275c:	fec42703          	lw	a4,-20(s0)
80002760:	1741                	addi	a4,a4,-16
80002762:	9722                	add	a4,a4,s0
80002764:	fb074703          	lbu	a4,-80(a4)
80002768:	00e78423          	sb	a4,8(a5)
        (*out_len)++;
8000276c:	f9442783          	lw	a5,-108(s0)
80002770:	439c                	lw	a5,0(a5)
80002772:	00178713          	addi	a4,a5,1
80002776:	f9442783          	lw	a5,-108(s0)
8000277a:	c398                	sw	a4,0(a5)
      while (op_top > 0 &&
8000277c:	fec42783          	lw	a5,-20(s0)
80002780:	02f05363          	blez	a5,800027a6 <parse_to_rpn+0x208>
             precedence(op_stack[op_top - 1]) >= precedence(c)) {
80002784:	fec42783          	lw	a5,-20(s0)
80002788:	17fd                	addi	a5,a5,-1
8000278a:	17c1                	addi	a5,a5,-16
8000278c:	97a2                	add	a5,a5,s0
8000278e:	fb07c783          	lbu	a5,-80(a5)
80002792:	853e                	mv	a0,a5
80002794:	3b75                	jal	80002550 <precedence>
80002796:	84aa                	mv	s1,a0
80002798:	fe344783          	lbu	a5,-29(s0)
8000279c:	853e                	mv	a0,a5
8000279e:	3b4d                	jal	80002550 <precedence>
800027a0:	87aa                	mv	a5,a0
      while (op_top > 0 &&
800027a2:	f6f4d3e3          	bge	s1,a5,80002708 <parse_to_rpn+0x16a>
      }
      if (op_top >= MAX_TOKENS) return -2;
800027a6:	fec42703          	lw	a4,-20(s0)
800027aa:	03f00793          	li	a5,63
800027ae:	00e7d463          	bge	a5,a4,800027b6 <parse_to_rpn+0x218>
800027b2:	57f9                	li	a5,-2
800027b4:	a875                	j	80002870 <parse_to_rpn+0x2d2>
      op_stack[op_top++] = c;
800027b6:	fec42783          	lw	a5,-20(s0)
800027ba:	00178713          	addi	a4,a5,1
800027be:	fee42623          	sw	a4,-20(s0)
800027c2:	17c1                	addi	a5,a5,-16
800027c4:	97a2                	add	a5,a5,s0
800027c6:	fe344703          	lbu	a4,-29(s0)
800027ca:	fae78823          	sb	a4,-80(a5)
      i++;
800027ce:	fe842783          	lw	a5,-24(s0)
800027d2:	0785                	addi	a5,a5,1
800027d4:	fef42423          	sw	a5,-24(s0)
      continue;
800027d8:	a019                	j	800027de <parse_to_rpn+0x240>
    }

    // Неизвестный символ
    return -3;
800027da:	57f5                	li	a5,-3
800027dc:	a851                	j	80002870 <parse_to_rpn+0x2d2>
  while (expr_str[i] != '\0') {
800027de:	fe842783          	lw	a5,-24(s0)
800027e2:	f9c42703          	lw	a4,-100(s0)
800027e6:	97ba                	add	a5,a5,a4
800027e8:	0007c783          	lbu	a5,0(a5)
800027ec:	dc079de3          	bnez	a5,800025c6 <parse_to_rpn+0x28>
  }

  // Выталкиваем оставшиеся операторы
  while (op_top > 0) {
800027f0:	a89d                	j	80002866 <parse_to_rpn+0x2c8>
    if (*out_len >= MAX_TOKENS) return -1;
800027f2:	f9442783          	lw	a5,-108(s0)
800027f6:	4398                	lw	a4,0(a5)
800027f8:	03f00793          	li	a5,63
800027fc:	00e7d463          	bge	a5,a4,80002804 <parse_to_rpn+0x266>
80002800:	57fd                	li	a5,-1
80002802:	a0bd                	j	80002870 <parse_to_rpn+0x2d2>
    out[*out_len].type = 'o';
80002804:	f9442783          	lw	a5,-108(s0)
80002808:	439c                	lw	a5,0(a5)
8000280a:	873e                	mv	a4,a5
8000280c:	87ba                	mv	a5,a4
8000280e:	0786                	slli	a5,a5,0x1
80002810:	97ba                	add	a5,a5,a4
80002812:	078a                	slli	a5,a5,0x2
80002814:	873e                	mv	a4,a5
80002816:	f9842783          	lw	a5,-104(s0)
8000281a:	97ba                	add	a5,a5,a4
8000281c:	06f00713          	li	a4,111
80002820:	00e78023          	sb	a4,0(a5)
    out[*out_len].op   = op_stack[--op_top];
80002824:	fec42783          	lw	a5,-20(s0)
80002828:	17fd                	addi	a5,a5,-1
8000282a:	fef42623          	sw	a5,-20(s0)
8000282e:	f9442783          	lw	a5,-108(s0)
80002832:	439c                	lw	a5,0(a5)
80002834:	873e                	mv	a4,a5
80002836:	87ba                	mv	a5,a4
80002838:	0786                	slli	a5,a5,0x1
8000283a:	97ba                	add	a5,a5,a4
8000283c:	078a                	slli	a5,a5,0x2
8000283e:	873e                	mv	a4,a5
80002840:	f9842783          	lw	a5,-104(s0)
80002844:	97ba                	add	a5,a5,a4
80002846:	fec42703          	lw	a4,-20(s0)
8000284a:	1741                	addi	a4,a4,-16
8000284c:	9722                	add	a4,a4,s0
8000284e:	fb074703          	lbu	a4,-80(a4)
80002852:	00e78423          	sb	a4,8(a5)
    (*out_len)++;
80002856:	f9442783          	lw	a5,-108(s0)
8000285a:	439c                	lw	a5,0(a5)
8000285c:	00178713          	addi	a4,a5,1
80002860:	f9442783          	lw	a5,-108(s0)
80002864:	c398                	sw	a4,0(a5)
  while (op_top > 0) {
80002866:	fec42783          	lw	a5,-20(s0)
8000286a:	f8f044e3          	bgtz	a5,800027f2 <parse_to_rpn+0x254>
  }

  return 0;
8000286e:	4781                	li	a5,0
}
80002870:	853e                	mv	a0,a5
80002872:	50b6                	lw	ra,108(sp)
80002874:	5426                	lw	s0,104(sp)
80002876:	5496                	lw	s1,100(sp)
80002878:	6165                	addi	sp,sp,112
8000287a:	8082                	ret

8000287c <eval_rpn>:

static int eval_rpn(const Token *rpn, int len, int *result)
{
8000287c:	7129                	addi	sp,sp,-320
8000287e:	12812e23          	sw	s0,316(sp)
80002882:	0280                	addi	s0,sp,320
80002884:	eca42623          	sw	a0,-308(s0)
80002888:	ecb42423          	sw	a1,-312(s0)
8000288c:	ecc42223          	sw	a2,-316(s0)
  int stack[MAX_TOKENS];
  int sp = 0;
80002890:	fe042623          	sw	zero,-20(s0)

  for (int i = 0; i < len; i++) {
80002894:	fe042423          	sw	zero,-24(s0)
80002898:	a271                	j	80002a24 <eval_rpn+0x1a8>
    if (rpn[i].type == 'n') {
8000289a:	fe842703          	lw	a4,-24(s0)
8000289e:	87ba                	mv	a5,a4
800028a0:	0786                	slli	a5,a5,0x1
800028a2:	97ba                	add	a5,a5,a4
800028a4:	078a                	slli	a5,a5,0x2
800028a6:	873e                	mv	a4,a5
800028a8:	ecc42783          	lw	a5,-308(s0)
800028ac:	97ba                	add	a5,a5,a4
800028ae:	0007c703          	lbu	a4,0(a5)
800028b2:	06e00793          	li	a5,110
800028b6:	04f71163          	bne	a4,a5,800028f8 <eval_rpn+0x7c>
      if (sp >= MAX_TOKENS) return -1;
800028ba:	fec42703          	lw	a4,-20(s0)
800028be:	03f00793          	li	a5,63
800028c2:	00e7d463          	bge	a5,a4,800028ca <eval_rpn+0x4e>
800028c6:	57fd                	li	a5,-1
800028c8:	a249                	j	80002a4a <eval_rpn+0x1ce>
      stack[sp++] = rpn[i].value;
800028ca:	fe842703          	lw	a4,-24(s0)
800028ce:	87ba                	mv	a5,a4
800028d0:	0786                	slli	a5,a5,0x1
800028d2:	97ba                	add	a5,a5,a4
800028d4:	078a                	slli	a5,a5,0x2
800028d6:	873e                	mv	a4,a5
800028d8:	ecc42783          	lw	a5,-308(s0)
800028dc:	973e                	add	a4,a4,a5
800028de:	fec42783          	lw	a5,-20(s0)
800028e2:	00178693          	addi	a3,a5,1
800028e6:	fed42623          	sw	a3,-20(s0)
800028ea:	4358                	lw	a4,4(a4)
800028ec:	078a                	slli	a5,a5,0x2
800028ee:	17c1                	addi	a5,a5,-16
800028f0:	97a2                	add	a5,a5,s0
800028f2:	eee7a623          	sw	a4,-276(a5)
800028f6:	a215                	j	80002a1a <eval_rpn+0x19e>
    } else if (rpn[i].type == 'o') {
800028f8:	fe842703          	lw	a4,-24(s0)
800028fc:	87ba                	mv	a5,a4
800028fe:	0786                	slli	a5,a5,0x1
80002900:	97ba                	add	a5,a5,a4
80002902:	078a                	slli	a5,a5,0x2
80002904:	873e                	mv	a4,a5
80002906:	ecc42783          	lw	a5,-308(s0)
8000290a:	97ba                	add	a5,a5,a4
8000290c:	0007c703          	lbu	a4,0(a5)
80002910:	06f00793          	li	a5,111
80002914:	10f71163          	bne	a4,a5,80002a16 <eval_rpn+0x19a>
      if (sp < 2) return -2;
80002918:	fec42703          	lw	a4,-20(s0)
8000291c:	4785                	li	a5,1
8000291e:	00e7c463          	blt	a5,a4,80002926 <eval_rpn+0xaa>
80002922:	57f9                	li	a5,-2
80002924:	a21d                	j	80002a4a <eval_rpn+0x1ce>
      int b = stack[--sp];
80002926:	fec42783          	lw	a5,-20(s0)
8000292a:	17fd                	addi	a5,a5,-1
8000292c:	fef42623          	sw	a5,-20(s0)
80002930:	fec42783          	lw	a5,-20(s0)
80002934:	078a                	slli	a5,a5,0x2
80002936:	17c1                	addi	a5,a5,-16
80002938:	97a2                	add	a5,a5,s0
8000293a:	eec7a783          	lw	a5,-276(a5)
8000293e:	fef42023          	sw	a5,-32(s0)
      int a = stack[--sp];
80002942:	fec42783          	lw	a5,-20(s0)
80002946:	17fd                	addi	a5,a5,-1
80002948:	fef42623          	sw	a5,-20(s0)
8000294c:	fec42783          	lw	a5,-20(s0)
80002950:	078a                	slli	a5,a5,0x2
80002952:	17c1                	addi	a5,a5,-16
80002954:	97a2                	add	a5,a5,s0
80002956:	eec7a783          	lw	a5,-276(a5)
8000295a:	fcf42e23          	sw	a5,-36(s0)
      int r;

      switch (rpn[i].op) {
8000295e:	fe842703          	lw	a4,-24(s0)
80002962:	87ba                	mv	a5,a4
80002964:	0786                	slli	a5,a5,0x1
80002966:	97ba                	add	a5,a5,a4
80002968:	078a                	slli	a5,a5,0x2
8000296a:	873e                	mv	a4,a5
8000296c:	ecc42783          	lw	a5,-308(s0)
80002970:	97ba                	add	a5,a5,a4
80002972:	0087c783          	lbu	a5,8(a5)
80002976:	02f00713          	li	a4,47
8000297a:	06e78063          	beq	a5,a4,800029da <eval_rpn+0x15e>
8000297e:	02f00713          	li	a4,47
80002982:	06f74a63          	blt	a4,a5,800029f6 <eval_rpn+0x17a>
80002986:	02d00713          	li	a4,45
8000298a:	02e78663          	beq	a5,a4,800029b6 <eval_rpn+0x13a>
8000298e:	02d00713          	li	a4,45
80002992:	06f74263          	blt	a4,a5,800029f6 <eval_rpn+0x17a>
80002996:	02a00713          	li	a4,42
8000299a:	02e78763          	beq	a5,a4,800029c8 <eval_rpn+0x14c>
8000299e:	02b00713          	li	a4,43
800029a2:	04e79a63          	bne	a5,a4,800029f6 <eval_rpn+0x17a>
      case '+': r = a + b; break;
800029a6:	fdc42703          	lw	a4,-36(s0)
800029aa:	fe042783          	lw	a5,-32(s0)
800029ae:	97ba                	add	a5,a5,a4
800029b0:	fef42223          	sw	a5,-28(s0)
800029b4:	a099                	j	800029fa <eval_rpn+0x17e>
      case '-': r = a - b; break;
800029b6:	fdc42703          	lw	a4,-36(s0)
800029ba:	fe042783          	lw	a5,-32(s0)
800029be:	40f707b3          	sub	a5,a4,a5
800029c2:	fef42223          	sw	a5,-28(s0)
800029c6:	a815                	j	800029fa <eval_rpn+0x17e>
      case '*': r = a * b; break;
800029c8:	fdc42703          	lw	a4,-36(s0)
800029cc:	fe042783          	lw	a5,-32(s0)
800029d0:	02f707b3          	mul	a5,a4,a5
800029d4:	fef42223          	sw	a5,-28(s0)
800029d8:	a00d                	j	800029fa <eval_rpn+0x17e>
      case '/':
        if (b == 0) return -3;
800029da:	fe042783          	lw	a5,-32(s0)
800029de:	e399                	bnez	a5,800029e4 <eval_rpn+0x168>
800029e0:	57f5                	li	a5,-3
800029e2:	a0a5                	j	80002a4a <eval_rpn+0x1ce>
        r = a / b;
800029e4:	fdc42703          	lw	a4,-36(s0)
800029e8:	fe042783          	lw	a5,-32(s0)
800029ec:	02f747b3          	div	a5,a4,a5
800029f0:	fef42223          	sw	a5,-28(s0)
        break;
800029f4:	a019                	j	800029fa <eval_rpn+0x17e>
      default:
        return -4;
800029f6:	57f1                	li	a5,-4
800029f8:	a889                	j	80002a4a <eval_rpn+0x1ce>
      }

      stack[sp++] = r;
800029fa:	fec42783          	lw	a5,-20(s0)
800029fe:	00178713          	addi	a4,a5,1
80002a02:	fee42623          	sw	a4,-20(s0)
80002a06:	078a                	slli	a5,a5,0x2
80002a08:	17c1                	addi	a5,a5,-16
80002a0a:	97a2                	add	a5,a5,s0
80002a0c:	fe442703          	lw	a4,-28(s0)
80002a10:	eee7a623          	sw	a4,-276(a5)
80002a14:	a019                	j	80002a1a <eval_rpn+0x19e>
    } else {
      return -5;
80002a16:	57ed                	li	a5,-5
80002a18:	a80d                	j	80002a4a <eval_rpn+0x1ce>
  for (int i = 0; i < len; i++) {
80002a1a:	fe842783          	lw	a5,-24(s0)
80002a1e:	0785                	addi	a5,a5,1
80002a20:	fef42423          	sw	a5,-24(s0)
80002a24:	fe842703          	lw	a4,-24(s0)
80002a28:	ec842783          	lw	a5,-312(s0)
80002a2c:	e6f747e3          	blt	a4,a5,8000289a <eval_rpn+0x1e>
    }
  }

  if (sp != 1) return -6;
80002a30:	fec42703          	lw	a4,-20(s0)
80002a34:	4785                	li	a5,1
80002a36:	00f70463          	beq	a4,a5,80002a3e <eval_rpn+0x1c2>
80002a3a:	57e9                	li	a5,-6
80002a3c:	a039                	j	80002a4a <eval_rpn+0x1ce>
  *result = stack[0];
80002a3e:	edc42703          	lw	a4,-292(s0)
80002a42:	ec442783          	lw	a5,-316(s0)
80002a46:	c398                	sw	a4,0(a5)
  return 0;
80002a48:	4781                	li	a5,0
}
80002a4a:	853e                	mv	a0,a5
80002a4c:	13c12403          	lw	s0,316(sp)
80002a50:	6131                	addi	sp,sp,320
80002a52:	8082                	ret

80002a54 <on_key_pressed>:

void on_key_pressed(key_id_t key)
{
80002a54:	cc010113          	addi	sp,sp,-832
80002a58:	32112e23          	sw	ra,828(sp)
80002a5c:	32812c23          	sw	s0,824(sp)
80002a60:	0680                	addi	s0,sp,832
80002a62:	cca42623          	sw	a0,-820(s0)
  switch (key) {
80002a66:	ccc42703          	lw	a4,-820(s0)
80002a6a:	47bd                	li	a5,15
80002a6c:	1af70263          	beq	a4,a5,80002c10 <on_key_pressed+0x1bc>
80002a70:	ccc42703          	lw	a4,-820(s0)
80002a74:	47bd                	li	a5,15
80002a76:	26e7e163          	bltu	a5,a4,80002cd8 <on_key_pressed+0x284>
80002a7a:	ccc42703          	lw	a4,-820(s0)
80002a7e:	47b9                	li	a5,14
80002a80:	14f70e63          	beq	a4,a5,80002bdc <on_key_pressed+0x188>
80002a84:	ccc42703          	lw	a4,-820(s0)
80002a88:	47b9                	li	a5,14
80002a8a:	24e7e763          	bltu	a5,a4,80002cd8 <on_key_pressed+0x284>
80002a8e:	ccc42703          	lw	a4,-820(s0)
80002a92:	47a5                	li	a5,9
80002a94:	00e7fa63          	bgeu	a5,a4,80002aa8 <on_key_pressed+0x54>
80002a98:	ccc42783          	lw	a5,-820(s0)
80002a9c:	ff678713          	addi	a4,a5,-10
80002aa0:	478d                	li	a5,3
80002aa2:	22e7eb63          	bltu	a5,a4,80002cd8 <on_key_pressed+0x284>
80002aa6:	a8a1                	j	80002afe <on_key_pressed+0xaa>
  case KEY_0: case KEY_1: case KEY_2: case KEY_3:
  case KEY_4: case KEY_5: case KEY_6: case KEY_7:
  case KEY_8: case KEY_9: {
    char c = '0' + (key - KEY_0);
80002aa8:	ccc42783          	lw	a5,-820(s0)
80002aac:	0ff7f793          	zext.b	a5,a5
80002ab0:	03078793          	addi	a5,a5,48
80002ab4:	fef40323          	sb	a5,-26(s0)
    if (expr_len < EXPR_MAX_LEN - 1) {
80002ab8:	ee81a703          	lw	a4,-280(gp) # 40000668 <expr_len>
80002abc:	03e00793          	li	a5,62
80002ac0:	02e7c663          	blt	a5,a4,80002aec <on_key_pressed+0x98>
      expr[expr_len++] = c;
80002ac4:	ee81a783          	lw	a5,-280(gp) # 40000668 <expr_len>
80002ac8:	00178693          	addi	a3,a5,1
80002acc:	eed1a423          	sw	a3,-280(gp) # 40000668 <expr_len>
80002ad0:	ea818713          	addi	a4,gp,-344 # 40000628 <expr>
80002ad4:	97ba                	add	a5,a5,a4
80002ad6:	fe644703          	lbu	a4,-26(s0)
80002ada:	00e78023          	sb	a4,0(a5)
      expr[expr_len] = '\0';
80002ade:	ee81a783          	lw	a5,-280(gp) # 40000668 <expr_len>
80002ae2:	ea818713          	addi	a4,gp,-344 # 40000628 <expr>
80002ae6:	97ba                	add	a5,a5,a4
80002ae8:	00078023          	sb	zero,0(a5)
    }
    printf("EXPR: %s\r\n", expr);
80002aec:	ea818593          	addi	a1,gp,-344 # 40000628 <expr>
80002af0:	800077b7          	lui	a5,0x80007
80002af4:	7ac78513          	addi	a0,a5,1964 # 800077ac <__data_source_start+0xfffffe64>
80002af8:	fc4fe0ef          	jal	ra,800012bc <printf>
    break;
80002afc:	a2dd                	j	80002ce2 <on_key_pressed+0x28e>
  }

  case KEY_PLUS: case KEY_MINUS: case KEY_MUL: case KEY_DIV: {
    // Нельзя ставить оператор первым символом
    if (expr_len == 0) {
80002afe:	ee81a783          	lw	a5,-280(gp) # 40000668 <expr_len>
80002b02:	1c078d63          	beqz	a5,80002cdc <on_key_pressed+0x288>
      break;
    }

    // Нельзя ставить два оператора подряд
    char last = expr[expr_len - 1];
80002b06:	ee81a783          	lw	a5,-280(gp) # 40000668 <expr_len>
80002b0a:	17fd                	addi	a5,a5,-1
80002b0c:	ea818713          	addi	a4,gp,-344 # 40000628 <expr>
80002b10:	97ba                	add	a5,a5,a4
80002b12:	0007c783          	lbu	a5,0(a5)
80002b16:	fef403a3          	sb	a5,-25(s0)
    if (last == '+' || last == '-' || last == '*' || last == '/') {
80002b1a:	fe744703          	lbu	a4,-25(s0)
80002b1e:	02b00793          	li	a5,43
80002b22:	1cf70063          	beq	a4,a5,80002ce2 <on_key_pressed+0x28e>
80002b26:	fe744703          	lbu	a4,-25(s0)
80002b2a:	02d00793          	li	a5,45
80002b2e:	1af70a63          	beq	a4,a5,80002ce2 <on_key_pressed+0x28e>
80002b32:	fe744703          	lbu	a4,-25(s0)
80002b36:	02a00793          	li	a5,42
80002b3a:	1af70463          	beq	a4,a5,80002ce2 <on_key_pressed+0x28e>
80002b3e:	fe744703          	lbu	a4,-25(s0)
80002b42:	02f00793          	li	a5,47
80002b46:	18f70e63          	beq	a4,a5,80002ce2 <on_key_pressed+0x28e>
      break;
    }

    char c = 0;
80002b4a:	fe0407a3          	sb	zero,-17(s0)
    if (key == KEY_PLUS)  c = '+';
80002b4e:	ccc42703          	lw	a4,-820(s0)
80002b52:	47a9                	li	a5,10
80002b54:	00f71663          	bne	a4,a5,80002b60 <on_key_pressed+0x10c>
80002b58:	02b00793          	li	a5,43
80002b5c:	fef407a3          	sb	a5,-17(s0)
    if (key == KEY_MINUS) c = '-';
80002b60:	ccc42703          	lw	a4,-820(s0)
80002b64:	47ad                	li	a5,11
80002b66:	00f71663          	bne	a4,a5,80002b72 <on_key_pressed+0x11e>
80002b6a:	02d00793          	li	a5,45
80002b6e:	fef407a3          	sb	a5,-17(s0)
    if (key == KEY_MUL)   c = '*';
80002b72:	ccc42703          	lw	a4,-820(s0)
80002b76:	47b1                	li	a5,12
80002b78:	00f71663          	bne	a4,a5,80002b84 <on_key_pressed+0x130>
80002b7c:	02a00793          	li	a5,42
80002b80:	fef407a3          	sb	a5,-17(s0)
    if (key == KEY_DIV)   c = '/';
80002b84:	ccc42703          	lw	a4,-820(s0)
80002b88:	47b5                	li	a5,13
80002b8a:	00f71663          	bne	a4,a5,80002b96 <on_key_pressed+0x142>
80002b8e:	02f00793          	li	a5,47
80002b92:	fef407a3          	sb	a5,-17(s0)

    if (expr_len < EXPR_MAX_LEN - 1) {
80002b96:	ee81a703          	lw	a4,-280(gp) # 40000668 <expr_len>
80002b9a:	03e00793          	li	a5,62
80002b9e:	02e7c663          	blt	a5,a4,80002bca <on_key_pressed+0x176>
      expr[expr_len++] = c;
80002ba2:	ee81a783          	lw	a5,-280(gp) # 40000668 <expr_len>
80002ba6:	00178693          	addi	a3,a5,1
80002baa:	eed1a423          	sw	a3,-280(gp) # 40000668 <expr_len>
80002bae:	ea818713          	addi	a4,gp,-344 # 40000628 <expr>
80002bb2:	97ba                	add	a5,a5,a4
80002bb4:	fef44703          	lbu	a4,-17(s0)
80002bb8:	00e78023          	sb	a4,0(a5)
      expr[expr_len] = '\0';
80002bbc:	ee81a783          	lw	a5,-280(gp) # 40000668 <expr_len>
80002bc0:	ea818713          	addi	a4,gp,-344 # 40000628 <expr>
80002bc4:	97ba                	add	a5,a5,a4
80002bc6:	00078023          	sb	zero,0(a5)
    }
    printf("EXPR: %s\r\n", expr);
80002bca:	ea818593          	addi	a1,gp,-344 # 40000628 <expr>
80002bce:	800077b7          	lui	a5,0x80007
80002bd2:	7ac78513          	addi	a0,a5,1964 # 800077ac <__data_source_start+0xfffffe64>
80002bd6:	ee6fe0ef          	jal	ra,800012bc <printf>
    break;
80002bda:	a221                	j	80002ce2 <on_key_pressed+0x28e>
  }

  case KEY_DEL:
    if (expr_len > 0) {
80002bdc:	ee81a783          	lw	a5,-280(gp) # 40000668 <expr_len>
80002be0:	00f05f63          	blez	a5,80002bfe <on_key_pressed+0x1aa>
      expr[--expr_len] = '\0';
80002be4:	ee81a783          	lw	a5,-280(gp) # 40000668 <expr_len>
80002be8:	fff78713          	addi	a4,a5,-1
80002bec:	eee1a423          	sw	a4,-280(gp) # 40000668 <expr_len>
80002bf0:	ee81a783          	lw	a5,-280(gp) # 40000668 <expr_len>
80002bf4:	ea818713          	addi	a4,gp,-344 # 40000628 <expr>
80002bf8:	97ba                	add	a5,a5,a4
80002bfa:	00078023          	sb	zero,0(a5)
    }
    printf("EXPR: %s\r\n", expr);
80002bfe:	ea818593          	addi	a1,gp,-344 # 40000628 <expr>
80002c02:	800077b7          	lui	a5,0x80007
80002c06:	7ac78513          	addi	a0,a5,1964 # 800077ac <__data_source_start+0xfffffe64>
80002c0a:	eb2fe0ef          	jal	ra,800012bc <printf>
    break;
80002c0e:	a8d1                	j	80002ce2 <on_key_pressed+0x28e>

  case KEY_EQ: {
    if (expr_len == 0){
80002c10:	ee81a783          	lw	a5,-280(gp) # 40000668 <expr_len>
80002c14:	c7f1                	beqz	a5,80002ce0 <on_key_pressed+0x28c>
      break;
    }

    char last = expr[expr_len - 1];
80002c16:	ee81a783          	lw	a5,-280(gp) # 40000668 <expr_len>
80002c1a:	17fd                	addi	a5,a5,-1
80002c1c:	ea818713          	addi	a4,gp,-344 # 40000628 <expr>
80002c20:	97ba                	add	a5,a5,a4
80002c22:	0007c783          	lbu	a5,0(a5)
80002c26:	fef40723          	sb	a5,-18(s0)
    if (last == '+' || last == '-' || last == '*' || last == '/') {
80002c2a:	fee44703          	lbu	a4,-18(s0)
80002c2e:	02b00793          	li	a5,43
80002c32:	0af70763          	beq	a4,a5,80002ce0 <on_key_pressed+0x28c>
80002c36:	fee44703          	lbu	a4,-18(s0)
80002c3a:	02d00793          	li	a5,45
80002c3e:	0af70163          	beq	a4,a5,80002ce0 <on_key_pressed+0x28c>
80002c42:	fee44703          	lbu	a4,-18(s0)
80002c46:	02a00793          	li	a5,42
80002c4a:	08f70b63          	beq	a4,a5,80002ce0 <on_key_pressed+0x28c>
80002c4e:	fee44703          	lbu	a4,-18(s0)
80002c52:	02f00793          	li	a5,47
80002c56:	08f70563          	beq	a4,a5,80002ce0 <on_key_pressed+0x28c>
        break;
    }

    Token rpn[MAX_TOKENS];
    int rpn_len;
    int rc = parse_to_rpn(expr, rpn, &rpn_len);
80002c5a:	fe040713          	addi	a4,s0,-32
80002c5e:	cdc40793          	addi	a5,s0,-804
80002c62:	863a                	mv	a2,a4
80002c64:	85be                	mv	a1,a5
80002c66:	ea818513          	addi	a0,gp,-344 # 40000628 <expr>
80002c6a:	3a15                	jal	8000259e <parse_to_rpn>
80002c6c:	fea42423          	sw	a0,-24(s0)
    if (rc != 0) {
80002c70:	fe842783          	lw	a5,-24(s0)
80002c74:	cb91                	beqz	a5,80002c88 <on_key_pressed+0x234>
      printf("Parse error: %d\r\n", rc);
80002c76:	fe842583          	lw	a1,-24(s0)
80002c7a:	800077b7          	lui	a5,0x80007
80002c7e:	7b878513          	addi	a0,a5,1976 # 800077b8 <__data_source_start+0xfffffe70>
80002c82:	e3afe0ef          	jal	ra,800012bc <printf>
      return;
80002c86:	a8b1                	j	80002ce2 <on_key_pressed+0x28e>
    }

    int result;
    rc = eval_rpn(rpn, rpn_len, &result);
80002c88:	fe042703          	lw	a4,-32(s0)
80002c8c:	fdc40693          	addi	a3,s0,-36
80002c90:	cdc40793          	addi	a5,s0,-804
80002c94:	8636                	mv	a2,a3
80002c96:	85ba                	mv	a1,a4
80002c98:	853e                	mv	a0,a5
80002c9a:	36cd                	jal	8000287c <eval_rpn>
80002c9c:	fea42423          	sw	a0,-24(s0)
    if (rc != 0) {
80002ca0:	fe842783          	lw	a5,-24(s0)
80002ca4:	cb91                	beqz	a5,80002cb8 <on_key_pressed+0x264>
      printf("Eval error: %d\r\n", rc);
80002ca6:	fe842583          	lw	a1,-24(s0)
80002caa:	800077b7          	lui	a5,0x80007
80002cae:	7cc78513          	addi	a0,a5,1996 # 800077cc <__data_source_start+0xfffffe84>
80002cb2:	e0afe0ef          	jal	ra,800012bc <printf>
      return;
80002cb6:	a035                	j	80002ce2 <on_key_pressed+0x28e>
    }

    printf("RESULT: %d\r\n", result);
80002cb8:	fdc42783          	lw	a5,-36(s0)
80002cbc:	85be                	mv	a1,a5
80002cbe:	800077b7          	lui	a5,0x80007
80002cc2:	7e078513          	addi	a0,a5,2016 # 800077e0 <__data_source_start+0xfffffe98>
80002cc6:	df6fe0ef          	jal	ra,800012bc <printf>

    // Очистить выражение после вычисления
    expr_len = 0;
80002cca:	ee01a423          	sw	zero,-280(gp) # 40000668 <expr_len>
    expr[0] = '\0';
80002cce:	ea818793          	addi	a5,gp,-344 # 40000628 <expr>
80002cd2:	00078023          	sb	zero,0(a5)
    break;
80002cd6:	a031                	j	80002ce2 <on_key_pressed+0x28e>
  }

  default:
    break;
80002cd8:	0001                	nop
80002cda:	a021                	j	80002ce2 <on_key_pressed+0x28e>
      break;
80002cdc:	0001                	nop
80002cde:	a011                	j	80002ce2 <on_key_pressed+0x28e>
      break;
80002ce0:	0001                	nop
  }
}
80002ce2:	33c12083          	lw	ra,828(sp)
80002ce6:	33812403          	lw	s0,824(sp)
80002cea:	34010113          	addi	sp,sp,832
80002cee:	8082                	ret

80002cf0 <GPIO_SetBits>:
  * @param   GPIOx  Выбор порта, где x=A|B|C
  * @param   Pin  Выбор пина
  * @retval  void
  */
__STATIC_INLINE void GPIO_SetBits(GPIO_TypeDef* GPIOx, uint32_t Pin)
{
80002cf0:	1101                	addi	sp,sp,-32
80002cf2:	ce22                	sw	s0,28(sp)
80002cf4:	1000                	addi	s0,sp,32
80002cf6:	fea42623          	sw	a0,-20(s0)
80002cfa:	feb42423          	sw	a1,-24(s0)
    assert_param(IS_GPIO_PERIPH(GPIOx));
    assert_param(IS_GPIO_PIN(Pin));

    WRITE_REG(GPIOx->DATAOUTSET, Pin);
80002cfe:	fec42783          	lw	a5,-20(s0)
80002d02:	fe842703          	lw	a4,-24(s0)
80002d06:	c798                	sw	a4,8(a5)
}
80002d08:	0001                	nop
80002d0a:	4472                	lw	s0,28(sp)
80002d0c:	6105                	addi	sp,sp,32
80002d0e:	8082                	ret

80002d10 <GPIO_ClearBits>:
  * @param   GPIOx  Выбор порта, где x=A|B|C
  * @param   Pin  Выбор пина
  * @retval  void
  */
__STATIC_INLINE void GPIO_ClearBits(GPIO_TypeDef* GPIOx, uint32_t Pin)
{
80002d10:	1101                	addi	sp,sp,-32
80002d12:	ce22                	sw	s0,28(sp)
80002d14:	1000                	addi	s0,sp,32
80002d16:	fea42623          	sw	a0,-20(s0)
80002d1a:	feb42423          	sw	a1,-24(s0)
    assert_param(IS_GPIO_PERIPH(GPIOx));
    assert_param(IS_GPIO_PIN(Pin));

    WRITE_REG(GPIOx->DATAOUTCLR, Pin);
80002d1e:	fec42783          	lw	a5,-20(s0)
80002d22:	fe842703          	lw	a4,-24(s0)
80002d26:	c7d8                	sw	a4,12(a5)
}
80002d28:	0001                	nop
80002d2a:	4472                	lw	s0,28(sp)
80002d2c:	6105                	addi	sp,sp,32
80002d2e:	8082                	ret

80002d30 <eeprom_is_busy>:
// Простейший статус для SPI-ветки (чтобы config.c мог вызывать eeprom_is_busy/eeprom_had_error)
static volatile bool g_eeprom_spi_busy  = false;
static volatile bool g_eeprom_spi_error = false;

bool eeprom_is_busy(void)
{
80002d30:	1141                	addi	sp,sp,-16
80002d32:	c622                	sw	s0,12(sp)
80002d34:	0800                	addi	s0,sp,16
    return g_eeprom_spi_busy;
80002d36:	eec1c783          	lbu	a5,-276(gp) # 4000066c <g_eeprom_spi_busy>
80002d3a:	0ff7f793          	zext.b	a5,a5
}
80002d3e:	853e                	mv	a0,a5
80002d40:	4432                	lw	s0,12(sp)
80002d42:	0141                	addi	sp,sp,16
80002d44:	8082                	ret

80002d46 <eeprom_had_error>:

bool eeprom_had_error(void)
{
80002d46:	1141                	addi	sp,sp,-16
80002d48:	c622                	sw	s0,12(sp)
80002d4a:	0800                	addi	s0,sp,16
    return g_eeprom_spi_error;
80002d4c:	eed1c783          	lbu	a5,-275(gp) # 4000066d <g_eeprom_spi_error>
80002d50:	0ff7f793          	zext.b	a5,a5
}
80002d54:	853e                	mv	a0,a5
80002d56:	4432                	lw	s0,12(sp)
80002d58:	0141                	addi	sp,sp,16
80002d5a:	8082                	ret

80002d5c <eeprom_spi_cs_low>:

void eeprom_spi_cs_low(void)
{
80002d5c:	1141                	addi	sp,sp,-16
80002d5e:	c606                	sw	ra,12(sp)
80002d60:	c422                	sw	s0,8(sp)
80002d62:	0800                	addi	s0,sp,16
    GPIO_ClearBits(CS_PORT, CS_PIN);
80002d64:	4589                	li	a1,2
80002d66:	28001537          	lui	a0,0x28001
80002d6a:	375d                	jal	80002d10 <GPIO_ClearBits>
}
80002d6c:	0001                	nop
80002d6e:	40b2                	lw	ra,12(sp)
80002d70:	4422                	lw	s0,8(sp)
80002d72:	0141                	addi	sp,sp,16
80002d74:	8082                	ret

80002d76 <eeprom_spi_cs_high>:

void eeprom_spi_cs_high(void)
{
80002d76:	1141                	addi	sp,sp,-16
80002d78:	c606                	sw	ra,12(sp)
80002d7a:	c422                	sw	s0,8(sp)
80002d7c:	0800                	addi	s0,sp,16
    GPIO_SetBits(CS_PORT, CS_PIN);
80002d7e:	4589                	li	a1,2
80002d80:	28001537          	lui	a0,0x28001
80002d84:	37b5                	jal	80002cf0 <GPIO_SetBits>
}
80002d86:	0001                	nop
80002d88:	40b2                	lw	ra,12(sp)
80002d8a:	4422                	lw	s0,8(sp)
80002d8c:	0141                	addi	sp,sp,16
80002d8e:	8082                	ret

80002d90 <eeprom_init>:

void eeprom_init(void)
{
80002d90:	1141                	addi	sp,sp,-16
80002d92:	c606                	sw	ra,12(sp)
80002d94:	c422                	sw	s0,8(sp)
80002d96:	0800                	addi	s0,sp,16
    spi0_init();
80002d98:	2031                	jal	80002da4 <spi0_init>
}
80002d9a:	0001                	nop
80002d9c:	40b2                	lw	ra,12(sp)
80002d9e:	4422                	lw	s0,8(sp)
80002da0:	0141                	addi	sp,sp,16
80002da2:	8082                	ret

80002da4 <spi0_init>:

static void spi0_init(void)
{
80002da4:	1141                	addi	sp,sp,-16
80002da6:	c606                	sw	ra,12(sp)
80002da8:	c422                	sw	s0,8(sp)
80002daa:	0800                	addi	s0,sp,16
    RCU->CGCFGAHB_bit.GPIOBEN = 1;                                                                                                 // Разрешение тактирования порта GPIOB
80002dac:	3000e7b7          	lui	a5,0x3000e
80002db0:	0007d703          	lhu	a4,0(a5) # 3000e000 <STACK_SIZE+0x3000d800>
80002db4:	20076713          	ori	a4,a4,512
80002db8:	00e79023          	sh	a4,0(a5)
    RCU->RSTDISAHB_bit.GPIOBEN = 1;                                                                                                // Вывод из состояния сброса порта GPIOB
80002dbc:	3000e7b7          	lui	a5,0x3000e
80002dc0:	0107d703          	lhu	a4,16(a5) # 3000e010 <STACK_SIZE+0x3000d810>
80002dc4:	20076713          	ori	a4,a4,512
80002dc8:	00e79823          	sh	a4,16(a5)
    RCU->CGCFGAHB_bit.SPI0EN = 1;                                                                                                  // Разрешение тактирования SPI0
80002dcc:	3000e7b7          	lui	a5,0x3000e
80002dd0:	0007d703          	lhu	a4,0(a5) # 3000e000 <STACK_SIZE+0x3000d800>
80002dd4:	02076713          	ori	a4,a4,32
80002dd8:	00e79023          	sh	a4,0(a5)
    RCU->RSTDISAHB_bit.SPI0EN = 1;                                                                                                 // Вывод из состояния сброса SPI0
80002ddc:	3000e7b7          	lui	a5,0x3000e
80002de0:	0107d703          	lhu	a4,16(a5) # 3000e010 <STACK_SIZE+0x3000d810>
80002de4:	02076713          	ori	a4,a4,32
80002de8:	00e79823          	sh	a4,16(a5)
    RCU->SPICLKCFG[0].SPICLKCFG_bit.CLKSEL = RCU_SPICLKCFG_CLKSEL_HSE;                                                             // Источник сигнала внешний кварц
80002dec:	3000e7b7          	lui	a5,0x3000e
80002df0:	0947a683          	lw	a3,148(a5) # 3000e094 <STACK_SIZE+0x3000d894>
80002df4:	fffd0737          	lui	a4,0xfffd0
80002df8:	177d                	addi	a4,a4,-1 # fffcffff <__data_source_start+0x7ffc86b7>
80002dfa:	8ef9                	and	a3,a3,a4
80002dfc:	6741                	lui	a4,0x10
80002dfe:	8f55                	or	a4,a4,a3
80002e00:	08e7aa23          	sw	a4,148(a5)
    RCU->SPICLKCFG[0].SPICLKCFG_bit.CLKEN = 1;                                                                                     // Разрешение тактирования
80002e04:	3000e7b7          	lui	a5,0x3000e
80002e08:	0947a703          	lw	a4,148(a5) # 3000e094 <STACK_SIZE+0x3000d894>
80002e0c:	00176713          	ori	a4,a4,1
80002e10:	08e7aa23          	sw	a4,148(a5)
    RCU->SPICLKCFG[0].SPICLKCFG_bit.RSTDIS = 1;                                                                                    // Вывод из сброса
80002e14:	3000e7b7          	lui	a5,0x3000e
80002e18:	0947a703          	lw	a4,148(a5) # 3000e094 <STACK_SIZE+0x3000d894>
80002e1c:	10076713          	ori	a4,a4,256
80002e20:	08e7aa23          	sw	a4,148(a5)
    SPI0->CPSR_bit.CPSDVSR = 8;                                                                                                    // Коэффициент деления первого делителя
80002e24:	200507b7          	lui	a5,0x20050
80002e28:	4721                	li	a4,8
80002e2a:	00e78823          	sb	a4,16(a5) # 20050010 <STACK_SIZE+0x2004f810>
    SPI0->CR0_bit.SCR = 1;                                                                                                         // Коэффициент деления второго делителя. Результирующий коэффициент SCK/((SCR+1)*CPSDVSR) 16/((1+1)*8)=1МГц
80002e2e:	200507b7          	lui	a5,0x20050
80002e32:	4705                	li	a4,1
80002e34:	00e780a3          	sb	a4,1(a5) # 20050001 <STACK_SIZE+0x2004f801>
    SPI0->CR0_bit.SPO = 0;                                                                                                         // Полярность сигнала. В режиме ожидания линия в состоянии логического нуля.
80002e38:	200507b7          	lui	a5,0x20050
80002e3c:	0007d703          	lhu	a4,0(a5) # 20050000 <STACK_SIZE+0x2004f800>
80002e40:	fbf77713          	andi	a4,a4,-65
80002e44:	00e79023          	sh	a4,0(a5)
    SPI0->CR0_bit.SPH = 0;                                                                                                         // Фаза: выборка на первом фронте (CPHA=0)
80002e48:	200507b7          	lui	a5,0x20050
80002e4c:	0007d703          	lhu	a4,0(a5) # 20050000 <STACK_SIZE+0x2004f800>
80002e50:	f7f77713          	andi	a4,a4,-129
80002e54:	00e79023          	sh	a4,0(a5)
    SPI0->CR0_bit.FRF = 0;                                                                                                         // Выбор протокола обмена информацией 0-SPI
80002e58:	200507b7          	lui	a5,0x20050
80002e5c:	0007d703          	lhu	a4,0(a5) # 20050000 <STACK_SIZE+0x2004f800>
80002e60:	fcf77713          	andi	a4,a4,-49
80002e64:	00e79023          	sh	a4,0(a5)
    SPI0->CR0_bit.DSS = 7;                                                                                                         // Размер слова данных 8 бит
80002e68:	200507b7          	lui	a5,0x20050
80002e6c:	0007d703          	lhu	a4,0(a5) # 20050000 <STACK_SIZE+0x2004f800>
80002e70:	9b41                	andi	a4,a4,-16
80002e72:	00776713          	ori	a4,a4,7
80002e76:	00e79023          	sh	a4,0(a5)
    SPI0->CR1_bit.MS = 0;                                                                                                          // Режим работы - Мастер
80002e7a:	200507b7          	lui	a5,0x20050
80002e7e:	0047d703          	lhu	a4,4(a5) # 20050004 <STACK_SIZE+0x2004f804>
80002e82:	9b6d                	andi	a4,a4,-5
80002e84:	00e79223          	sh	a4,4(a5)
    gpio_init_spi_pins();
80002e88:	2091                	jal	80002ecc <gpio_init_spi_pins>
    SPI0->IMSC = 0x1;                                                                                                                    // Разрешаем прерывания по переполнению приемного буфера
80002e8a:	200507b7          	lui	a5,0x20050
80002e8e:	4705                	li	a4,1
80002e90:	cbd8                	sw	a4,20(a5)
    // Настраиваем обработчик прерывания для SPI0
    PLIC_SetIrqHandler(Plic_Mach_Target, IsrVect_IRQ_SPI0, SPI0_IRQHandler);
80002e92:	800037b7          	lui	a5,0x80003
80002e96:	1f678613          	addi	a2,a5,502 # 800031f6 <__data_source_start+0xffffb8ae>
80002e9a:	45ad                	li	a1,11
80002e9c:	4501                	li	a0,0
80002e9e:	865fd0ef          	jal	ra,80000702 <PLIC_SetIrqHandler>
    PLIC_SetPriority(IsrVect_IRQ_SPI0, 0x1);
80002ea2:	4585                	li	a1,1
80002ea4:	452d                	li	a0,11
80002ea6:	8a9fd0ef          	jal	ra,8000074e <PLIC_SetPriority>
    PLIC_IntEnable(Plic_Mach_Target, IsrVect_IRQ_SPI0);
80002eaa:	45ad                	li	a1,11
80002eac:	4501                	li	a0,0
80002eae:	8cbfd0ef          	jal	ra,80000778 <PLIC_IntEnable>

    SPI0->CR1_bit.SSE = 1; // Разрешение работы приемопередатчика
80002eb2:	200507b7          	lui	a5,0x20050
80002eb6:	0047d703          	lhu	a4,4(a5) # 20050004 <STACK_SIZE+0x2004f804>
80002eba:	00276713          	ori	a4,a4,2
80002ebe:	00e79223          	sh	a4,4(a5)
}
80002ec2:	0001                	nop
80002ec4:	40b2                	lw	ra,12(sp)
80002ec6:	4422                	lw	s0,8(sp)
80002ec8:	0141                	addi	sp,sp,16
80002eca:	8082                	ret

80002ecc <gpio_init_spi_pins>:

static void gpio_init_spi_pins(void)
{
80002ecc:	7179                	addi	sp,sp,-48
80002ece:	d606                	sw	ra,44(sp)
80002ed0:	d422                	sw	s0,40(sp)
80002ed2:	1800                	addi	s0,sp,48
    GPIOB->ALTFUNCSET = GPIO_ALTFUNCSET_PIN0_Msk |  // SCK
80002ed4:	280017b7          	lui	a5,0x28001
80002ed8:	4735                	li	a4,13
80002eda:	dbd8                	sw	a4,52(a5)
                        GPIO_ALTFUNCSET_PIN2_Msk |  // MISO (RX)
                        GPIO_ALTFUNCSET_PIN3_Msk;   // MOSI (TX)
    GPIOB->ALTFUNCNUM = (GPIO_ALTFUNCNUM_PIN0_AF1 << GPIO_ALTFUNCNUM_PIN0_Pos) |
80002edc:	280017b7          	lui	a5,0x28001
80002ee0:	05100713          	li	a4,81
80002ee4:	dfd8                	sw	a4,60(a5)
                        (GPIO_ALTFUNCNUM_PIN2_AF1 << GPIO_ALTFUNCNUM_PIN2_Pos) |
                        (GPIO_ALTFUNCNUM_PIN3_AF1 << GPIO_ALTFUNCNUM_PIN3_Pos);

    // CS (PB1) как GPIO выход, держим в "1"
    GPIO_Init_TypeDef gpio;
    GPIO_StructInit(&gpio);
80002ee6:	fd840793          	addi	a5,s0,-40
80002eea:	853e                	mv	a0,a5
80002eec:	460020ef          	jal	ra,8000534c <GPIO_StructInit>
    gpio.Out = ENABLE;
80002ef0:	4785                	li	a5,1
80002ef2:	fcf42e23          	sw	a5,-36(s0)
    gpio.AltFunc = DISABLE;
80002ef6:	fe042023          	sw	zero,-32(s0)
    gpio.Pin = CS_PIN;
80002efa:	4789                	li	a5,2
80002efc:	fcf42c23          	sw	a5,-40(s0)
    GPIO_Init(CS_PORT, &gpio);
80002f00:	fd840793          	addi	a5,s0,-40
80002f04:	85be                	mv	a1,a5
80002f06:	28001537          	lui	a0,0x28001
80002f0a:	3ba020ef          	jal	ra,800052c4 <GPIO_Init>
    GPIO_SetBits(CS_PORT, CS_PIN);
80002f0e:	4589                	li	a1,2
80002f10:	28001537          	lui	a0,0x28001
80002f14:	3bf1                	jal	80002cf0 <GPIO_SetBits>
}
80002f16:	0001                	nop
80002f18:	50b2                	lw	ra,44(sp)
80002f1a:	5422                	lw	s0,40(sp)
80002f1c:	6145                	addi	sp,sp,48
80002f1e:	8082                	ret

80002f20 <eeprom_spi_xfer>:

uint8_t eeprom_spi_xfer(uint8_t byte)
{
80002f20:	1101                	addi	sp,sp,-32
80002f22:	ce22                	sw	s0,28(sp)
80002f24:	1000                	addi	s0,sp,32
80002f26:	87aa                	mv	a5,a0
80002f28:	fef407a3          	sb	a5,-17(s0)
    // Ждём свободное место в TX FIFO
    while (!(SPI0->SR & SPI_SR_TNF_Msk)) {
80002f2c:	0001                	nop
80002f2e:	200507b7          	lui	a5,0x20050
80002f32:	47dc                	lw	a5,12(a5)
80002f34:	8b89                	andi	a5,a5,2
80002f36:	dfe5                	beqz	a5,80002f2e <eeprom_spi_xfer+0xe>
    }
    SPI0->DR = byte;
80002f38:	200507b7          	lui	a5,0x20050
80002f3c:	fef44703          	lbu	a4,-17(s0)
80002f40:	c798                	sw	a4,8(a5)

    // Ждём байт в RX FIFO
    while (!(SPI0->SR & SPI_SR_RNE_Msk)) {
80002f42:	0001                	nop
80002f44:	200507b7          	lui	a5,0x20050
80002f48:	47dc                	lw	a5,12(a5)
80002f4a:	8b91                	andi	a5,a5,4
80002f4c:	dfe5                	beqz	a5,80002f44 <eeprom_spi_xfer+0x24>
    }
    return (uint8_t)SPI0->DR;
80002f4e:	200507b7          	lui	a5,0x20050
80002f52:	479c                	lw	a5,8(a5)
80002f54:	0ff7f793          	zext.b	a5,a5
}
80002f58:	853e                	mv	a0,a5
80002f5a:	4472                	lw	s0,28(sp)
80002f5c:	6105                	addi	sp,sp,32
80002f5e:	8082                	ret

80002f60 <eeprom_spi_read_status>:

uint8_t eeprom_spi_read_status(void)
{
80002f60:	1101                	addi	sp,sp,-32
80002f62:	ce06                	sw	ra,28(sp)
80002f64:	cc22                	sw	s0,24(sp)
80002f66:	1000                	addi	s0,sp,32
    eeprom_spi_cs_low();
80002f68:	3bd5                	jal	80002d5c <eeprom_spi_cs_low>
    eeprom_spi_xfer(SPI_CMD_RDSR);
80002f6a:	4515                	li	a0,5
80002f6c:	3f55                	jal	80002f20 <eeprom_spi_xfer>
    uint8_t sr = eeprom_spi_xfer(0xFF);
80002f6e:	0ff00513          	li	a0,255
80002f72:	377d                	jal	80002f20 <eeprom_spi_xfer>
80002f74:	87aa                	mv	a5,a0
80002f76:	fef407a3          	sb	a5,-17(s0)
    eeprom_spi_cs_high();
80002f7a:	3bf5                	jal	80002d76 <eeprom_spi_cs_high>
    return sr;
80002f7c:	fef44783          	lbu	a5,-17(s0)
}
80002f80:	853e                	mv	a0,a5
80002f82:	40f2                	lw	ra,28(sp)
80002f84:	4462                	lw	s0,24(sp)
80002f86:	6105                	addi	sp,sp,32
80002f88:	8082                	ret

80002f8a <eeprom_spi_wait_ready>:

bool eeprom_spi_wait_ready(uint32_t timeout_ms)
{
80002f8a:	7139                	addi	sp,sp,-64
80002f8c:	de06                	sw	ra,60(sp)
80002f8e:	dc22                	sw	s0,56(sp)
80002f90:	0080                	addi	s0,sp,64
80002f92:	fca42623          	sw	a0,-52(s0)
    extern uint32_t SystemCoreClock;
    uint32_t cpu_hz = SystemCoreClock;
80002f96:	e201a783          	lw	a5,-480(gp) # 400005a0 <SystemCoreClock>
80002f9a:	fef42423          	sw	a5,-24(s0)
    
    const uint32_t cycles_per_iter = 30u;
80002f9e:	47f9                	li	a5,30
80002fa0:	fef42223          	sw	a5,-28(s0)
    uint32_t total_cycles = (cpu_hz / 1000u) * timeout_ms;
80002fa4:	fe842703          	lw	a4,-24(s0)
80002fa8:	3e800793          	li	a5,1000
80002fac:	02f757b3          	divu	a5,a4,a5
80002fb0:	fcc42703          	lw	a4,-52(s0)
80002fb4:	02f707b3          	mul	a5,a4,a5
80002fb8:	fef42023          	sw	a5,-32(s0)
    uint32_t iters = total_cycles / cycles_per_iter;
80002fbc:	fe042703          	lw	a4,-32(s0)
80002fc0:	fe442783          	lw	a5,-28(s0)
80002fc4:	02f757b3          	divu	a5,a4,a5
80002fc8:	fef42623          	sw	a5,-20(s0)
    if (iters == 0u) {
80002fcc:	fec42783          	lw	a5,-20(s0)
80002fd0:	ef99                	bnez	a5,80002fee <eeprom_spi_wait_ready+0x64>
        iters = 1u;
80002fd2:	4785                	li	a5,1
80002fd4:	fef42623          	sw	a5,-20(s0)
    }

    while (iters--) {
80002fd8:	a819                	j	80002fee <eeprom_spi_wait_ready+0x64>
        uint8_t sr = eeprom_spi_read_status();
80002fda:	3759                	jal	80002f60 <eeprom_spi_read_status>
80002fdc:	87aa                	mv	a5,a0
80002fde:	fcf40fa3          	sb	a5,-33(s0)
        if ((sr & SPI_STATUS_BUSY) == 0u) {
80002fe2:	fdf44783          	lbu	a5,-33(s0)
80002fe6:	8b85                	andi	a5,a5,1
80002fe8:	e399                	bnez	a5,80002fee <eeprom_spi_wait_ready+0x64>
            return true;
80002fea:	4785                	li	a5,1
80002fec:	a809                	j	80002ffe <eeprom_spi_wait_ready+0x74>
    while (iters--) {
80002fee:	fec42783          	lw	a5,-20(s0)
80002ff2:	fff78713          	addi	a4,a5,-1 # 2004ffff <STACK_SIZE+0x2004f7ff>
80002ff6:	fee42623          	sw	a4,-20(s0)
80002ffa:	f3e5                	bnez	a5,80002fda <eeprom_spi_wait_ready+0x50>
        }
    }
    return false;
80002ffc:	4781                	li	a5,0
}
80002ffe:	853e                	mv	a0,a5
80003000:	50f2                	lw	ra,60(sp)
80003002:	5462                	lw	s0,56(sp)
80003004:	6121                	addi	sp,sp,64
80003006:	8082                	ret

80003008 <eeprom_spi_write_enable>:


static void eeprom_spi_write_enable(void)
{
80003008:	1141                	addi	sp,sp,-16
8000300a:	c606                	sw	ra,12(sp)
8000300c:	c422                	sw	s0,8(sp)
8000300e:	0800                	addi	s0,sp,16
    eeprom_spi_cs_low();
80003010:	33b1                	jal	80002d5c <eeprom_spi_cs_low>
    eeprom_spi_xfer(SPI_CMD_WREN);
80003012:	4519                	li	a0,6
80003014:	3731                	jal	80002f20 <eeprom_spi_xfer>
    eeprom_spi_cs_high();
80003016:	3385                	jal	80002d76 <eeprom_spi_cs_high>
}
80003018:	0001                	nop
8000301a:	40b2                	lw	ra,12(sp)
8000301c:	4422                	lw	s0,8(sp)
8000301e:	0141                	addi	sp,sp,16
80003020:	8082                	ret

80003022 <eeprom_write_bytes>:

void eeprom_write_bytes(uint16_t addr, const uint8_t* data, size_t len)
{
80003022:	7179                	addi	sp,sp,-48
80003024:	d606                	sw	ra,44(sp)
80003026:	d422                	sw	s0,40(sp)
80003028:	1800                	addi	s0,sp,48
8000302a:	87aa                	mv	a5,a0
8000302c:	fcb42c23          	sw	a1,-40(s0)
80003030:	fcc42a23          	sw	a2,-44(s0)
80003034:	fcf41f23          	sh	a5,-34(s0)
    if (!data || !len) {
80003038:	fd842783          	lw	a5,-40(s0)
8000303c:	10078263          	beqz	a5,80003140 <eeprom_write_bytes+0x11e>
80003040:	fd442783          	lw	a5,-44(s0)
80003044:	0e078e63          	beqz	a5,80003140 <eeprom_write_bytes+0x11e>
        return;
    }
    if (g_eeprom_spi_busy) {
80003048:	eec1c783          	lbu	a5,-276(gp) # 4000066c <g_eeprom_spi_busy>
8000304c:	0ff7f793          	zext.b	a5,a5
80003050:	0e079a63          	bnez	a5,80003144 <eeprom_write_bytes+0x122>
        return;
    }

    g_eeprom_spi_error = false;
80003054:	ee0186a3          	sb	zero,-275(gp) # 4000066d <g_eeprom_spi_error>
    g_eeprom_spi_busy  = true;
80003058:	4705                	li	a4,1
8000305a:	eee18623          	sb	a4,-276(gp) # 4000066c <g_eeprom_spi_busy>

    while (len) {
8000305e:	a8d1                	j	80003132 <eeprom_write_bytes+0x110>
        size_t page_off = addr % EEPROM_PAGE_SIZE;
80003060:	fde45783          	lhu	a5,-34(s0)
80003064:	03f7f793          	andi	a5,a5,63
80003068:	fef42223          	sw	a5,-28(s0)
        size_t chunk = EEPROM_PAGE_SIZE - page_off;
8000306c:	04000713          	li	a4,64
80003070:	fe442783          	lw	a5,-28(s0)
80003074:	40f707b3          	sub	a5,a4,a5
80003078:	fef42623          	sw	a5,-20(s0)
        if (chunk > len) {
8000307c:	fec42703          	lw	a4,-20(s0)
80003080:	fd442783          	lw	a5,-44(s0)
80003084:	00e7f663          	bgeu	a5,a4,80003090 <eeprom_write_bytes+0x6e>
            chunk = len;
80003088:	fd442783          	lw	a5,-44(s0)
8000308c:	fef42623          	sw	a5,-20(s0)
        }

        eeprom_spi_write_enable();
80003090:	3fa5                	jal	80003008 <eeprom_spi_write_enable>

        eeprom_spi_cs_low();
80003092:	31e9                	jal	80002d5c <eeprom_spi_cs_low>
        eeprom_spi_xfer(SPI_CMD_WRITE);
80003094:	4509                	li	a0,2
80003096:	3569                	jal	80002f20 <eeprom_spi_xfer>
        eeprom_spi_xfer(addr >> 8);
80003098:	fde45783          	lhu	a5,-34(s0)
8000309c:	83a1                	srli	a5,a5,0x8
8000309e:	07c2                	slli	a5,a5,0x10
800030a0:	83c1                	srli	a5,a5,0x10
800030a2:	0ff7f793          	zext.b	a5,a5
800030a6:	853e                	mv	a0,a5
800030a8:	3da5                	jal	80002f20 <eeprom_spi_xfer>
        eeprom_spi_xfer(addr & 0xFF);
800030aa:	fde45783          	lhu	a5,-34(s0)
800030ae:	0ff7f793          	zext.b	a5,a5
800030b2:	853e                	mv	a0,a5
800030b4:	35b5                	jal	80002f20 <eeprom_spi_xfer>
        for (size_t i = 0; i < chunk; ++i) {
800030b6:	fe042423          	sw	zero,-24(s0)
800030ba:	a839                	j	800030d8 <eeprom_write_bytes+0xb6>
            eeprom_spi_xfer(data[i]);
800030bc:	fd842703          	lw	a4,-40(s0)
800030c0:	fe842783          	lw	a5,-24(s0)
800030c4:	97ba                	add	a5,a5,a4
800030c6:	0007c783          	lbu	a5,0(a5)
800030ca:	853e                	mv	a0,a5
800030cc:	3d91                	jal	80002f20 <eeprom_spi_xfer>
        for (size_t i = 0; i < chunk; ++i) {
800030ce:	fe842783          	lw	a5,-24(s0)
800030d2:	0785                	addi	a5,a5,1
800030d4:	fef42423          	sw	a5,-24(s0)
800030d8:	fe842703          	lw	a4,-24(s0)
800030dc:	fec42783          	lw	a5,-20(s0)
800030e0:	fcf76ee3          	bltu	a4,a5,800030bc <eeprom_write_bytes+0x9a>
        }
        eeprom_spi_cs_high();
800030e4:	3949                	jal	80002d76 <eeprom_spi_cs_high>

        if (!eeprom_spi_wait_ready(EEPROM_SPI_TIMEOUT_MS)) {
800030e6:	4551                	li	a0,20
800030e8:	354d                	jal	80002f8a <eeprom_spi_wait_ready>
800030ea:	87aa                	mv	a5,a0
800030ec:	0017c793          	xori	a5,a5,1
800030f0:	0ff7f793          	zext.b	a5,a5
800030f4:	c799                	beqz	a5,80003102 <eeprom_write_bytes+0xe0>
            // не дождались — выходим, чтобы не повиснуть
            g_eeprom_spi_error = true;
800030f6:	4705                	li	a4,1
800030f8:	eee186a3          	sb	a4,-275(gp) # 4000066d <g_eeprom_spi_error>
            g_eeprom_spi_busy  = false;
800030fc:	ee018623          	sb	zero,-276(gp) # 4000066c <g_eeprom_spi_busy>
            return;
80003100:	a099                	j	80003146 <eeprom_write_bytes+0x124>
        }

        addr += (uint16_t)chunk;
80003102:	fec42783          	lw	a5,-20(s0)
80003106:	07c2                	slli	a5,a5,0x10
80003108:	83c1                	srli	a5,a5,0x10
8000310a:	fde45703          	lhu	a4,-34(s0)
8000310e:	97ba                	add	a5,a5,a4
80003110:	fcf41f23          	sh	a5,-34(s0)
        data += chunk;
80003114:	fd842703          	lw	a4,-40(s0)
80003118:	fec42783          	lw	a5,-20(s0)
8000311c:	97ba                	add	a5,a5,a4
8000311e:	fcf42c23          	sw	a5,-40(s0)
        len  -= chunk;
80003122:	fd442703          	lw	a4,-44(s0)
80003126:	fec42783          	lw	a5,-20(s0)
8000312a:	40f707b3          	sub	a5,a4,a5
8000312e:	fcf42a23          	sw	a5,-44(s0)
    while (len) {
80003132:	fd442783          	lw	a5,-44(s0)
80003136:	f20795e3          	bnez	a5,80003060 <eeprom_write_bytes+0x3e>
    }

    g_eeprom_spi_busy = false;
8000313a:	ee018623          	sb	zero,-276(gp) # 4000066c <g_eeprom_spi_busy>
8000313e:	a021                	j	80003146 <eeprom_write_bytes+0x124>
        return;
80003140:	0001                	nop
80003142:	a011                	j	80003146 <eeprom_write_bytes+0x124>
        return;
80003144:	0001                	nop
}
80003146:	50b2                	lw	ra,44(sp)
80003148:	5422                	lw	s0,40(sp)
8000314a:	6145                	addi	sp,sp,48
8000314c:	8082                	ret

8000314e <eeprom_read_bytes>:

void eeprom_read_bytes(uint16_t addr, uint8_t* data, size_t len)
{
8000314e:	7179                	addi	sp,sp,-48
80003150:	d606                	sw	ra,44(sp)
80003152:	d422                	sw	s0,40(sp)
80003154:	d226                	sw	s1,36(sp)
80003156:	1800                	addi	s0,sp,48
80003158:	87aa                	mv	a5,a0
8000315a:	fcb42c23          	sw	a1,-40(s0)
8000315e:	fcc42a23          	sw	a2,-44(s0)
80003162:	fcf41f23          	sh	a5,-34(s0)
    if (!data || !len) {
80003166:	fd842783          	lw	a5,-40(s0)
8000316a:	cfb5                	beqz	a5,800031e6 <eeprom_read_bytes+0x98>
8000316c:	fd442783          	lw	a5,-44(s0)
80003170:	cbbd                	beqz	a5,800031e6 <eeprom_read_bytes+0x98>
        return;
    }

    if (g_eeprom_spi_busy) {
80003172:	eec1c783          	lbu	a5,-276(gp) # 4000066c <g_eeprom_spi_busy>
80003176:	0ff7f793          	zext.b	a5,a5
8000317a:	eba5                	bnez	a5,800031ea <eeprom_read_bytes+0x9c>
        return;
    }

    g_eeprom_spi_error = false;
8000317c:	ee0186a3          	sb	zero,-275(gp) # 4000066d <g_eeprom_spi_error>
    g_eeprom_spi_busy  = true;
80003180:	4705                	li	a4,1
80003182:	eee18623          	sb	a4,-276(gp) # 4000066c <g_eeprom_spi_busy>

    eeprom_spi_cs_low();
80003186:	3ed9                	jal	80002d5c <eeprom_spi_cs_low>
    eeprom_spi_xfer(SPI_CMD_READ);
80003188:	450d                	li	a0,3
8000318a:	3b59                	jal	80002f20 <eeprom_spi_xfer>
    eeprom_spi_xfer(addr >> 8);
8000318c:	fde45783          	lhu	a5,-34(s0)
80003190:	83a1                	srli	a5,a5,0x8
80003192:	07c2                	slli	a5,a5,0x10
80003194:	83c1                	srli	a5,a5,0x10
80003196:	0ff7f793          	zext.b	a5,a5
8000319a:	853e                	mv	a0,a5
8000319c:	3351                	jal	80002f20 <eeprom_spi_xfer>
    eeprom_spi_xfer(addr & 0xFF);
8000319e:	fde45783          	lhu	a5,-34(s0)
800031a2:	0ff7f793          	zext.b	a5,a5
800031a6:	853e                	mv	a0,a5
800031a8:	3ba5                	jal	80002f20 <eeprom_spi_xfer>
    for (size_t i = 0; i < len; ++i) {
800031aa:	fe042623          	sw	zero,-20(s0)
800031ae:	a015                	j	800031d2 <eeprom_read_bytes+0x84>
        data[i] = eeprom_spi_xfer(0xFF);
800031b0:	fd842703          	lw	a4,-40(s0)
800031b4:	fec42783          	lw	a5,-20(s0)
800031b8:	00f704b3          	add	s1,a4,a5
800031bc:	0ff00513          	li	a0,255
800031c0:	3385                	jal	80002f20 <eeprom_spi_xfer>
800031c2:	87aa                	mv	a5,a0
800031c4:	00f48023          	sb	a5,0(s1)
    for (size_t i = 0; i < len; ++i) {
800031c8:	fec42783          	lw	a5,-20(s0)
800031cc:	0785                	addi	a5,a5,1
800031ce:	fef42623          	sw	a5,-20(s0)
800031d2:	fec42703          	lw	a4,-20(s0)
800031d6:	fd442783          	lw	a5,-44(s0)
800031da:	fcf76be3          	bltu	a4,a5,800031b0 <eeprom_read_bytes+0x62>
    }
    eeprom_spi_cs_high();
800031de:	3e61                	jal	80002d76 <eeprom_spi_cs_high>

    g_eeprom_spi_busy = false;
800031e0:	ee018623          	sb	zero,-276(gp) # 4000066c <g_eeprom_spi_busy>
800031e4:	a021                	j	800031ec <eeprom_read_bytes+0x9e>
        return;
800031e6:	0001                	nop
800031e8:	a011                	j	800031ec <eeprom_read_bytes+0x9e>
        return;
800031ea:	0001                	nop
}
800031ec:	50b2                	lw	ra,44(sp)
800031ee:	5422                	lw	s0,40(sp)
800031f0:	5492                	lw	s1,36(sp)
800031f2:	6145                	addi	sp,sp,48
800031f4:	8082                	ret

800031f6 <SPI0_IRQHandler>:

static void SPI0_IRQHandler(void)
{
800031f6:	1141                	addi	sp,sp,-16
800031f8:	c622                	sw	s0,12(sp)
800031fa:	0800                	addi	s0,sp,16
    SPI0->ICR = 0x3;
800031fc:	200507b7          	lui	a5,0x20050
80003200:	470d                	li	a4,3
80003202:	d398                	sw	a4,32(a5)
}
80003204:	0001                	nop
80003206:	4432                	lw	s0,12(sp)
80003208:	0141                	addi	sp,sp,16
8000320a:	8082                	ret

8000320c <GPIO_OutCmd>:
  * @param   Pin  Выбор пинов. Любая совокупность значений значений GPIO_Pin_x (@ref GPIO_Pin_Define).
  * @param   State  Выбор состояния
  * @retval  void
  */
__STATIC_INLINE void GPIO_OutCmd(GPIO_TypeDef* GPIOx, uint32_t Pin, FunctionalState State)
{
8000320c:	1101                	addi	sp,sp,-32
8000320e:	ce22                	sw	s0,28(sp)
80003210:	1000                	addi	s0,sp,32
80003212:	fea42623          	sw	a0,-20(s0)
80003216:	feb42423          	sw	a1,-24(s0)
8000321a:	fec42223          	sw	a2,-28(s0)
    assert_param(IS_GPIO_PERIPH(GPIOx));
    assert_param(IS_GPIO_PIN(Pin));
    assert_param(IS_FUNCTIONAL_STATE(State));

    if (State == ENABLE)
8000321e:	fe442703          	lw	a4,-28(s0)
80003222:	4785                	li	a5,1
80003224:	00f71863          	bne	a4,a5,80003234 <GPIO_OutCmd+0x28>
        WRITE_REG(GPIOx->OUTENSET, Pin);
80003228:	fec42783          	lw	a5,-20(s0)
8000322c:	fe842703          	lw	a4,-24(s0)
80003230:	d7d8                	sw	a4,44(a5)
    else
        WRITE_REG(GPIOx->OUTENCLR, Pin);
}
80003232:	a031                	j	8000323e <GPIO_OutCmd+0x32>
        WRITE_REG(GPIOx->OUTENCLR, Pin);
80003234:	fec42783          	lw	a5,-20(s0)
80003238:	fe842703          	lw	a4,-24(s0)
8000323c:	db98                	sw	a4,48(a5)
}
8000323e:	0001                	nop
80003240:	4472                	lw	s0,28(sp)
80003242:	6105                	addi	sp,sp,32
80003244:	8082                	ret

80003246 <GPIO_AltFuncCmd>:
  * @param   Pin  Выбор пинов. Любая совокупность значений значений GPIO_Pin_x (@ref GPIO_Pin_Define).
  * @param   State  Выбор состояния
  * @retval  void
  */
__STATIC_INLINE void GPIO_AltFuncCmd(GPIO_TypeDef* GPIOx, uint32_t Pin, FunctionalState State)
{
80003246:	1101                	addi	sp,sp,-32
80003248:	ce22                	sw	s0,28(sp)
8000324a:	1000                	addi	s0,sp,32
8000324c:	fea42623          	sw	a0,-20(s0)
80003250:	feb42423          	sw	a1,-24(s0)
80003254:	fec42223          	sw	a2,-28(s0)
    assert_param(IS_GPIO_PERIPH(GPIOx));
    assert_param(IS_GPIO_PIN(Pin));
    assert_param(IS_FUNCTIONAL_STATE(State));

    if (State == ENABLE)
80003258:	fe442703          	lw	a4,-28(s0)
8000325c:	4785                	li	a5,1
8000325e:	00f71863          	bne	a4,a5,8000326e <GPIO_AltFuncCmd+0x28>
        WRITE_REG(GPIOx->ALTFUNCSET, Pin);
80003262:	fec42783          	lw	a5,-20(s0)
80003266:	fe842703          	lw	a4,-24(s0)
8000326a:	dbd8                	sw	a4,52(a5)
    else
        WRITE_REG(GPIOx->ALTFUNCCLR, Pin);
}
8000326c:	a031                	j	80003278 <GPIO_AltFuncCmd+0x32>
        WRITE_REG(GPIOx->ALTFUNCCLR, Pin);
8000326e:	fec42783          	lw	a5,-20(s0)
80003272:	fe842703          	lw	a4,-24(s0)
80003276:	df98                	sw	a4,56(a5)
}
80003278:	0001                	nop
8000327a:	4472                	lw	s0,28(sp)
8000327c:	6105                	addi	sp,sp,32
8000327e:	8082                	ret

80003280 <GPIO_ReadBit>:
  * @param   GPIOx  Выбор порта, где x=A|B|C
  * @param   Pin  Выбор пина
  * @retval  State  Состояние Если выбрано несколько пинов, то результат соответсвует логическому ИЛИ их состояний.
  */
__STATIC_INLINE BitState GPIO_ReadBit(GPIO_TypeDef* GPIOx, uint32_t Pin)
{
80003280:	1101                	addi	sp,sp,-32
80003282:	ce22                	sw	s0,28(sp)
80003284:	1000                	addi	s0,sp,32
80003286:	fea42623          	sw	a0,-20(s0)
8000328a:	feb42423          	sw	a1,-24(s0)
    assert_param(IS_GPIO_PERIPH(GPIOx));
    assert_param(IS_GET_GPIO_PIN(Pin));

    return (BitState)READ_BIT(GPIOx->DATA, (uint32_t)Pin);
8000328e:	fec42783          	lw	a5,-20(s0)
80003292:	4398                	lw	a4,0(a5)
80003294:	fe842783          	lw	a5,-24(s0)
80003298:	8ff9                	and	a5,a5,a4
8000329a:	c399                	beqz	a5,800032a0 <GPIO_ReadBit+0x20>
8000329c:	4785                	li	a5,1
8000329e:	a011                	j	800032a2 <GPIO_ReadBit+0x22>
800032a0:	4781                	li	a5,0
}
800032a2:	853e                	mv	a0,a5
800032a4:	4472                	lw	s0,28(sp)
800032a6:	6105                	addi	sp,sp,32
800032a8:	8082                	ret

800032aa <GPIO_SetBits>:
  * @param   GPIOx  Выбор порта, где x=A|B|C
  * @param   Pin  Выбор пина
  * @retval  void
  */
__STATIC_INLINE void GPIO_SetBits(GPIO_TypeDef* GPIOx, uint32_t Pin)
{
800032aa:	1101                	addi	sp,sp,-32
800032ac:	ce22                	sw	s0,28(sp)
800032ae:	1000                	addi	s0,sp,32
800032b0:	fea42623          	sw	a0,-20(s0)
800032b4:	feb42423          	sw	a1,-24(s0)
    assert_param(IS_GPIO_PERIPH(GPIOx));
    assert_param(IS_GPIO_PIN(Pin));

    WRITE_REG(GPIOx->DATAOUTSET, Pin);
800032b8:	fec42783          	lw	a5,-20(s0)
800032bc:	fe842703          	lw	a4,-24(s0)
800032c0:	c798                	sw	a4,8(a5)
}
800032c2:	0001                	nop
800032c4:	4472                	lw	s0,28(sp)
800032c6:	6105                	addi	sp,sp,32
800032c8:	8082                	ret

800032ca <GPIO_ClearBits>:
  * @param   GPIOx  Выбор порта, где x=A|B|C
  * @param   Pin  Выбор пина
  * @retval  void
  */
__STATIC_INLINE void GPIO_ClearBits(GPIO_TypeDef* GPIOx, uint32_t Pin)
{
800032ca:	1101                	addi	sp,sp,-32
800032cc:	ce22                	sw	s0,28(sp)
800032ce:	1000                	addi	s0,sp,32
800032d0:	fea42623          	sw	a0,-20(s0)
800032d4:	feb42423          	sw	a1,-24(s0)
    assert_param(IS_GPIO_PERIPH(GPIOx));
    assert_param(IS_GPIO_PIN(Pin));

    WRITE_REG(GPIOx->DATAOUTCLR, Pin);
800032d8:	fec42783          	lw	a5,-20(s0)
800032dc:	fe842703          	lw	a4,-24(s0)
800032e0:	c7d8                	sw	a4,12(a5)
}
800032e2:	0001                	nop
800032e4:	4472                	lw	s0,28(sp)
800032e6:	6105                	addi	sp,sp,32
800032e8:	8082                	ret

800032ea <GPIO_QualModeConfig>:
  * @param   Pin  Выбор пинов. Любая совокупность значений значений GPIO_Pin_x (@ref GPIO_Pin_Define).
  * @param   Mode  Выбор режима
  * @retval  void
  */
__STATIC_INLINE void GPIO_QualModeConfig(GPIO_TypeDef* GPIOx, uint32_t Pin, GPIO_QualMode_TypeDef Mode)
{
800032ea:	1101                	addi	sp,sp,-32
800032ec:	ce22                	sw	s0,28(sp)
800032ee:	1000                	addi	s0,sp,32
800032f0:	fea42623          	sw	a0,-20(s0)
800032f4:	feb42423          	sw	a1,-24(s0)
800032f8:	fec42223          	sw	a2,-28(s0)
    assert_param(IS_GPIO_PERIPH(GPIOx));
    assert_param(IS_GPIO_PIN(Pin));
    assert_param(IS_GPIO_QUAL_MODE(Mode));

    if (Mode == GPIO_QualMode_6Sample)
800032fc:	fe442703          	lw	a4,-28(s0)
80003300:	4785                	li	a5,1
80003302:	00f71863          	bne	a4,a5,80003312 <GPIO_QualModeConfig+0x28>
        WRITE_REG(GPIOx->QUALMODESET, Pin);
80003306:	fec42783          	lw	a5,-20(s0)
8000330a:	fe842703          	lw	a4,-24(s0)
8000330e:	cbf8                	sw	a4,84(a5)
    else
        WRITE_REG(GPIOx->QUALMODECLR, Pin);
}
80003310:	a031                	j	8000331c <GPIO_QualModeConfig+0x32>
        WRITE_REG(GPIOx->QUALMODECLR, Pin);
80003312:	fec42783          	lw	a5,-20(s0)
80003316:	fe842703          	lw	a4,-24(s0)
8000331a:	cfb8                	sw	a4,88(a5)
}
8000331c:	0001                	nop
8000331e:	4472                	lw	s0,28(sp)
80003320:	6105                	addi	sp,sp,32
80003322:	8082                	ret

80003324 <GPIO_QualSampleConfig>:
  * @param   GPIOx  Выбор порта, где x=A|B|C
  * @param   SamplePerod  Количество тактов системной частоты между отсчетами фильтра
  * @retval  void
  */
__STATIC_INLINE void GPIO_QualSampleConfig(GPIO_TypeDef* GPIOx, uint32_t SamplePerod)
{
80003324:	1101                	addi	sp,sp,-32
80003326:	ce22                	sw	s0,28(sp)
80003328:	1000                	addi	s0,sp,32
8000332a:	fea42623          	sw	a0,-20(s0)
8000332e:	feb42423          	sw	a1,-24(s0)
    assert_param(IS_GPIO_PERIPH(GPIOx));
    assert_param(IS_GPIO_QUAL_PERIOD(SamplePerod));

    WRITE_REG(GPIOx->QUALSAMPLE, SamplePerod);
80003332:	fec42783          	lw	a5,-20(s0)
80003336:	fe842703          	lw	a4,-24(s0)
8000333a:	cff8                	sw	a4,92(a5)
}
8000333c:	0001                	nop
8000333e:	4472                	lw	s0,28(sp)
80003340:	6105                	addi	sp,sp,32
80003342:	8082                	ret

80003344 <GPIO_QualCmd>:
  * @param   Pin  Выбор пинов. Любая совокупность значений значений GPIO_Pin_x (@ref GPIO_Pin_Define).
  * @param   State  Выбор состояния
  * @retval  void
  */
__STATIC_INLINE void GPIO_QualCmd(GPIO_TypeDef* GPIOx, uint32_t Pin, FunctionalState State)
{
80003344:	1101                	addi	sp,sp,-32
80003346:	ce22                	sw	s0,28(sp)
80003348:	1000                	addi	s0,sp,32
8000334a:	fea42623          	sw	a0,-20(s0)
8000334e:	feb42423          	sw	a1,-24(s0)
80003352:	fec42223          	sw	a2,-28(s0)
    assert_param(IS_GPIO_PERIPH(GPIOx));
    assert_param(IS_GPIO_PIN(Pin));
    assert_param(IS_FUNCTIONAL_STATE(State));

    if (State == ENABLE)
80003356:	fe442703          	lw	a4,-28(s0)
8000335a:	4785                	li	a5,1
8000335c:	00f71863          	bne	a4,a5,8000336c <GPIO_QualCmd+0x28>
        WRITE_REG(GPIOx->QUALSET, Pin);
80003360:	fec42783          	lw	a5,-20(s0)
80003364:	fe842703          	lw	a4,-24(s0)
80003368:	c7f8                	sw	a4,76(a5)
    else
        WRITE_REG(GPIOx->QUALCLR, Pin);
}
8000336a:	a031                	j	80003376 <GPIO_QualCmd+0x32>
        WRITE_REG(GPIOx->QUALCLR, Pin);
8000336c:	fec42783          	lw	a5,-20(s0)
80003370:	fe842703          	lw	a4,-24(s0)
80003374:	cbb8                	sw	a4,80(a5)
}
80003376:	0001                	nop
80003378:	4472                	lw	s0,28(sp)
8000337a:	6105                	addi	sp,sp,32
8000337c:	8082                	ret

8000337e <GPIO_SyncCmd>:
  * @param   Pin  Выбор пинов. Любая совокупность значений значений GPIO_Pin_x (@ref GPIO_Pin_Define).
  * @param   State  Выбор состояния
  * @retval  void
  */
__STATIC_INLINE void GPIO_SyncCmd(GPIO_TypeDef* GPIOx, uint32_t Pin, FunctionalState State)
{
8000337e:	1101                	addi	sp,sp,-32
80003380:	ce22                	sw	s0,28(sp)
80003382:	1000                	addi	s0,sp,32
80003384:	fea42623          	sw	a0,-20(s0)
80003388:	feb42423          	sw	a1,-24(s0)
8000338c:	fec42223          	sw	a2,-28(s0)
    assert_param(IS_GPIO_PERIPH(GPIOx));
    assert_param(IS_GPIO_PIN(Pin));
    assert_param(IS_FUNCTIONAL_STATE(State));

    if (State == ENABLE)
80003390:	fe442703          	lw	a4,-28(s0)
80003394:	4785                	li	a5,1
80003396:	00f71863          	bne	a4,a5,800033a6 <GPIO_SyncCmd+0x28>
        WRITE_REG(GPIOx->SYNCSET, Pin);
8000339a:	fec42783          	lw	a5,-20(s0)
8000339e:	fe842703          	lw	a4,-24(s0)
800033a2:	c3f8                	sw	a4,68(a5)
    else
        WRITE_REG(GPIOx->SYNCCLR, Pin);
}
800033a4:	a031                	j	800033b0 <GPIO_SyncCmd+0x32>
        WRITE_REG(GPIOx->SYNCCLR, Pin);
800033a6:	fec42783          	lw	a5,-20(s0)
800033aa:	fe842703          	lw	a4,-24(s0)
800033ae:	c7b8                	sw	a4,72(a5)
}
800033b0:	0001                	nop
800033b2:	4472                	lw	s0,28(sp)
800033b4:	6105                	addi	sp,sp,32
800033b6:	8082                	ret

800033b8 <GPIO_ITTypeConfig>:
  * @param   Pin  Выбор пинов. Любая совокупность значений значений GPIO_Pin_x (@ref GPIO_Pin_Define).
  * @param   IntType  Выбор режима генерации
  * @retval  void
  */
__STATIC_INLINE void GPIO_ITTypeConfig(GPIO_TypeDef* GPIOx, uint32_t Pin, GPIO_IntType_TypeDef IntType)
{
800033b8:	1101                	addi	sp,sp,-32
800033ba:	ce22                	sw	s0,28(sp)
800033bc:	1000                	addi	s0,sp,32
800033be:	fea42623          	sw	a0,-20(s0)
800033c2:	feb42423          	sw	a1,-24(s0)
800033c6:	fec42223          	sw	a2,-28(s0)
    assert_param(IS_GPIO_PERIPH(GPIOx));
    assert_param(IS_GPIO_PIN(Pin));
    assert_param(IS_GPIO_INT_TYPE(IntType));

    if (IntType == GPIO_IntType_Edge)
800033ca:	fe442703          	lw	a4,-28(s0)
800033ce:	4785                	li	a5,1
800033d0:	00f71863          	bne	a4,a5,800033e0 <GPIO_ITTypeConfig+0x28>
        WRITE_REG(GPIOx->INTTYPESET, Pin);
800033d4:	fec42783          	lw	a5,-20(s0)
800033d8:	fe842703          	lw	a4,-24(s0)
800033dc:	d7b8                	sw	a4,104(a5)
    else
        WRITE_REG(GPIOx->INTTYPECLR, Pin);
}
800033de:	a031                	j	800033ea <GPIO_ITTypeConfig+0x32>
        WRITE_REG(GPIOx->INTTYPECLR, Pin);
800033e0:	fec42783          	lw	a5,-20(s0)
800033e4:	fe842703          	lw	a4,-24(s0)
800033e8:	d7f8                	sw	a4,108(a5)
}
800033ea:	0001                	nop
800033ec:	4472                	lw	s0,28(sp)
800033ee:	6105                	addi	sp,sp,32
800033f0:	8082                	ret

800033f2 <GPIO_ITPolConfig>:
  * @param   Pin  Выбор пинов. Любая совокупность значений значений GPIO_Pin_x (@ref GPIO_Pin_Define).
  * @param   IntPol  Выбор полярности
  * @retval  void
  */
__STATIC_INLINE void GPIO_ITPolConfig(GPIO_TypeDef* GPIOx, uint32_t Pin, GPIO_IntPol_TypeDef IntPol)
{
800033f2:	1101                	addi	sp,sp,-32
800033f4:	ce22                	sw	s0,28(sp)
800033f6:	1000                	addi	s0,sp,32
800033f8:	fea42623          	sw	a0,-20(s0)
800033fc:	feb42423          	sw	a1,-24(s0)
80003400:	fec42223          	sw	a2,-28(s0)
    assert_param(IS_GPIO_PERIPH(GPIOx));
    assert_param(IS_GPIO_PIN(Pin));
    assert_param(IS_GPIO_INT_POL(IntPol));

    if (IntPol == GPIO_IntPol_Positive)
80003404:	fe442703          	lw	a4,-28(s0)
80003408:	4785                	li	a5,1
8000340a:	00f71863          	bne	a4,a5,8000341a <GPIO_ITPolConfig+0x28>
        WRITE_REG(GPIOx->INTPOLSET, Pin);
8000340e:	fec42783          	lw	a5,-20(s0)
80003412:	fe842703          	lw	a4,-24(s0)
80003416:	dbb8                	sw	a4,112(a5)
    else
        WRITE_REG(GPIOx->INTPOLCLR, Pin);
}
80003418:	a031                	j	80003424 <GPIO_ITPolConfig+0x32>
        WRITE_REG(GPIOx->INTPOLCLR, Pin);
8000341a:	fec42783          	lw	a5,-20(s0)
8000341e:	fe842703          	lw	a4,-24(s0)
80003422:	dbf8                	sw	a4,116(a5)
}
80003424:	0001                	nop
80003426:	4472                	lw	s0,28(sp)
80003428:	6105                	addi	sp,sp,32
8000342a:	8082                	ret

8000342c <GPIO_ITEdgeConfig>:
  * @param   Pin  Выбор пинов. Любая совокупность значений значений GPIO_Pin_x (@ref GPIO_Pin_Define).
  * @param   IntEdge  Выбор режима
  * @retval  void
  */
__STATIC_INLINE void GPIO_ITEdgeConfig(GPIO_TypeDef* GPIOx, uint32_t Pin, GPIO_IntEdge_TypeDef IntEdge)
{
8000342c:	1101                	addi	sp,sp,-32
8000342e:	ce22                	sw	s0,28(sp)
80003430:	1000                	addi	s0,sp,32
80003432:	fea42623          	sw	a0,-20(s0)
80003436:	feb42423          	sw	a1,-24(s0)
8000343a:	fec42223          	sw	a2,-28(s0)
    assert_param(IS_GPIO_PERIPH(GPIOx));
    assert_param(IS_GPIO_PIN(Pin));
    assert_param(IS_GPIO_INT_EDGE(IntEdge));

    if (IntEdge == GPIO_IntEdge_Any)
8000343e:	fe442703          	lw	a4,-28(s0)
80003442:	4785                	li	a5,1
80003444:	00f71863          	bne	a4,a5,80003454 <GPIO_ITEdgeConfig+0x28>
        WRITE_REG(GPIOx->INTEDGESET, Pin);
80003448:	fec42783          	lw	a5,-20(s0)
8000344c:	fe842703          	lw	a4,-24(s0)
80003450:	dfb8                	sw	a4,120(a5)
    else
        WRITE_REG(GPIOx->INTEDGECLR, Pin);
}
80003452:	a031                	j	8000345e <GPIO_ITEdgeConfig+0x32>
        WRITE_REG(GPIOx->INTEDGECLR, Pin);
80003454:	fec42783          	lw	a5,-20(s0)
80003458:	fe842703          	lw	a4,-24(s0)
8000345c:	dff8                	sw	a4,124(a5)
}
8000345e:	0001                	nop
80003460:	4472                	lw	s0,28(sp)
80003462:	6105                	addi	sp,sp,32
80003464:	8082                	ret

80003466 <GPIO_ITCmd>:
  * @param   Pin  Выбор пинов. Любая совокупность значений значений GPIO_Pin_x (@ref GPIO_Pin_Define).
  * @param   State  Выбор состояния
  * @retval  void
  */
__STATIC_INLINE void GPIO_ITCmd(GPIO_TypeDef* GPIOx, uint32_t Pin, FunctionalState State)
{
80003466:	1101                	addi	sp,sp,-32
80003468:	ce22                	sw	s0,28(sp)
8000346a:	1000                	addi	s0,sp,32
8000346c:	fea42623          	sw	a0,-20(s0)
80003470:	feb42423          	sw	a1,-24(s0)
80003474:	fec42223          	sw	a2,-28(s0)
    assert_param(IS_GPIO_PERIPH(GPIOx));
    assert_param(IS_GPIO_PIN(Pin));
    assert_param(IS_FUNCTIONAL_STATE(State));

    if (State == ENABLE)
80003478:	fe442703          	lw	a4,-28(s0)
8000347c:	4785                	li	a5,1
8000347e:	00f71863          	bne	a4,a5,8000348e <GPIO_ITCmd+0x28>
        WRITE_REG(GPIOx->INTENSET, Pin);
80003482:	fec42783          	lw	a5,-20(s0)
80003486:	fe842703          	lw	a4,-24(s0)
8000348a:	d3b8                	sw	a4,96(a5)
    else
        WRITE_REG(GPIOx->INTENCLR, Pin);
}
8000348c:	a031                	j	80003498 <GPIO_ITCmd+0x32>
        WRITE_REG(GPIOx->INTENCLR, Pin);
8000348e:	fec42783          	lw	a5,-20(s0)
80003492:	fe842703          	lw	a4,-24(s0)
80003496:	d3f8                	sw	a4,100(a5)
}
80003498:	0001                	nop
8000349a:	4472                	lw	s0,28(sp)
8000349c:	6105                	addi	sp,sp,32
8000349e:	8082                	ret

800034a0 <GPIO_ITStatusClear>:
  * @param   GPIOx  выбор порта, где x=A|B|C    
  * @param   Pin  Выбор пинов
  * @retval  void
  */
__STATIC_INLINE void GPIO_ITStatusClear(GPIO_TypeDef* GPIOx, uint32_t Pin)
{
800034a0:	1101                	addi	sp,sp,-32
800034a2:	ce22                	sw	s0,28(sp)
800034a4:	1000                	addi	s0,sp,32
800034a6:	fea42623          	sw	a0,-20(s0)
800034aa:	feb42423          	sw	a1,-24(s0)
    assert_param(IS_GPIO_PIN(Pin));

    WRITE_REG(GPIOx->INTSTATUS, Pin);
800034ae:	fec42783          	lw	a5,-20(s0)
800034b2:	fe842703          	lw	a4,-24(s0)
800034b6:	08e7a023          	sw	a4,128(a5) # 20050080 <STACK_SIZE+0x2004f880>
}
800034ba:	0001                	nop
800034bc:	4472                	lw	s0,28(sp)
800034be:	6105                	addi	sp,sp,32
800034c0:	8082                	ret

800034c2 <gpio_reset_pin>:
#include "gpio_helpers.h"
#include <stddef.h>

void gpio_reset_pin(GPIO_TypeDef* GPIOx, uint32_t Pin)
{
800034c2:	1101                	addi	sp,sp,-32
800034c4:	ce06                	sw	ra,28(sp)
800034c6:	cc22                	sw	s0,24(sp)
800034c8:	1000                	addi	s0,sp,32
800034ca:	fea42623          	sw	a0,-20(s0)
800034ce:	feb42423          	sw	a1,-24(s0)
    // 1. Отключить выход (OUTENCLR)
    GPIO_OutCmd(GPIOx, Pin, DISABLE);
800034d2:	4601                	li	a2,0
800034d4:	fe842583          	lw	a1,-24(s0)
800034d8:	fec42503          	lw	a0,-20(s0)
800034dc:	3b05                	jal	8000320c <GPIO_OutCmd>
    // 2. Очистить данные выхода (DATAOUTCLR)
    GPIO_ClearBits(GPIOx, Pin);
800034de:	fe842583          	lw	a1,-24(s0)
800034e2:	fec42503          	lw	a0,-20(s0)
800034e6:	33d5                	jal	800032ca <GPIO_ClearBits>
    // 3. Отключить альтернативную функцию (ALTFUNCCLR)
    GPIO_AltFuncCmd(GPIOx, Pin, DISABLE); 
800034e8:	4601                	li	a2,0
800034ea:	fe842583          	lw	a1,-24(s0)
800034ee:	fec42503          	lw	a0,-20(s0)
800034f2:	3b91                	jal	80003246 <GPIO_AltFuncCmd>
    // 4. Сбросить номер альтернативной функции (ALTFUNCNUM = 0)
    GPIO_AltFuncNumConfig(GPIOx, Pin, GPIO_AltFuncNum_None);
800034f4:	4601                	li	a2,0
800034f6:	fe842583          	lw	a1,-24(s0)
800034fa:	fec42503          	lw	a0,-20(s0)
800034fe:	4d3010ef          	jal	ra,800051d0 <GPIO_AltFuncNumConfig>
    // 5. Сбросить режимы в значения по умолчанию
    // В новой версии PLIB нет отдельного InMode, поэтому ограничимся
    // отключением подтяжки и установкой push‑pull для выхода.
    GPIO_PullModeConfig(GPIOx, Pin, GPIO_PullMode_Disable);
80003502:	4601                	li	a2,0
80003504:	fe842583          	lw	a1,-24(s0)
80003508:	fec42503          	lw	a0,-20(s0)
8000350c:	477010ef          	jal	ra,80005182 <GPIO_PullModeConfig>
    GPIO_OutModeConfig(GPIOx, Pin, GPIO_OutMode_PP);
80003510:	4601                	li	a2,0
80003512:	fe842583          	lw	a1,-24(s0)
80003516:	fec42503          	lw	a0,-20(s0)
8000351a:	437010ef          	jal	ra,80005150 <GPIO_OutModeConfig>
    // 6. Отключить прерывания, если были включены
    GPIO_ITCmd(GPIOx, Pin, DISABLE);
8000351e:	4601                	li	a2,0
80003520:	fe842583          	lw	a1,-24(s0)
80003524:	fec42503          	lw	a0,-20(s0)
80003528:	3f3d                	jal	80003466 <GPIO_ITCmd>
    GPIO_ITStatusClear(GPIOx, Pin);
8000352a:	fe842583          	lw	a1,-24(s0)
8000352e:	fec42503          	lw	a0,-20(s0)
80003532:	37bd                	jal	800034a0 <GPIO_ITStatusClear>
    // 7. Отключить квалификатор входа
    GPIO_QualCmd(GPIOx, Pin, DISABLE);
80003534:	4601                	li	a2,0
80003536:	fe842583          	lw	a1,-24(s0)
8000353a:	fec42503          	lw	a0,-20(s0)
8000353e:	3519                	jal	80003344 <GPIO_QualCmd>
    GPIO_SyncCmd(GPIOx, Pin, DISABLE);
80003540:	4601                	li	a2,0
80003542:	fe842583          	lw	a1,-24(s0)
80003546:	fec42503          	lw	a0,-20(s0)
8000354a:	3d15                	jal	8000337e <GPIO_SyncCmd>
}
8000354c:	0001                	nop
8000354e:	40f2                	lw	ra,28(sp)
80003550:	4462                	lw	s0,24(sp)
80003552:	6105                	addi	sp,sp,32
80003554:	8082                	ret

80003556 <gpio_init_output>:

void gpio_init_output(GPIO_TypeDef* GPIOx, uint32_t Pin, uint8_t initial_state)
{
80003556:	7139                	addi	sp,sp,-64
80003558:	de06                	sw	ra,60(sp)
8000355a:	dc22                	sw	s0,56(sp)
8000355c:	0080                	addi	s0,sp,64
8000355e:	fca42623          	sw	a0,-52(s0)
80003562:	fcb42423          	sw	a1,-56(s0)
80003566:	87b2                	mv	a5,a2
80003568:	fcf403a3          	sb	a5,-57(s0)
    // Сначала сбрасываем состояние пина
    gpio_reset_pin(GPIOx, Pin);
8000356c:	fc842583          	lw	a1,-56(s0)
80003570:	fcc42503          	lw	a0,-52(s0)
80003574:	37b9                	jal	800034c2 <gpio_reset_pin>
    
    GPIO_Init_TypeDef gpio;
    GPIO_StructInit(&gpio);
80003576:	fd840793          	addi	a5,s0,-40
8000357a:	853e                	mv	a0,a5
8000357c:	5d1010ef          	jal	ra,8000534c <GPIO_StructInit>
    gpio.Pin = Pin;
80003580:	fc842783          	lw	a5,-56(s0)
80003584:	fcf42c23          	sw	a5,-40(s0)
    gpio.Out = ENABLE;                // включить выход
80003588:	4785                	li	a5,1
8000358a:	fcf42e23          	sw	a5,-36(s0)
    gpio.AltFunc = DISABLE;           // обычный GPIO
8000358e:	fe042023          	sw	zero,-32(s0)
    gpio.AltFuncNum = GPIO_AltFuncNum_None;
80003592:	fe042223          	sw	zero,-28(s0)
    gpio.OutMode = GPIO_OutMode_PP;   // push-pull
80003596:	fe042423          	sw	zero,-24(s0)
    gpio.PullMode = GPIO_PullMode_Disable;
8000359a:	fe042623          	sw	zero,-20(s0)
    GPIO_Init(GPIOx, &gpio);
8000359e:	fd840793          	addi	a5,s0,-40
800035a2:	85be                	mv	a1,a5
800035a4:	fcc42503          	lw	a0,-52(s0)
800035a8:	51d010ef          	jal	ra,800052c4 <GPIO_Init>
    
    // Устанавливаем начальное состояние
    if (initial_state) {
800035ac:	fc744783          	lbu	a5,-57(s0)
800035b0:	c799                	beqz	a5,800035be <gpio_init_output+0x68>
      GPIO_SetBits(GPIOx, Pin);
800035b2:	fc842583          	lw	a1,-56(s0)
800035b6:	fcc42503          	lw	a0,-52(s0)
800035ba:	39c5                	jal	800032aa <GPIO_SetBits>
    } else {
      GPIO_ClearBits(GPIOx, Pin);
    }
}
800035bc:	a031                	j	800035c8 <gpio_init_output+0x72>
      GPIO_ClearBits(GPIOx, Pin);
800035be:	fc842583          	lw	a1,-56(s0)
800035c2:	fcc42503          	lw	a0,-52(s0)
800035c6:	3311                	jal	800032ca <GPIO_ClearBits>
}
800035c8:	0001                	nop
800035ca:	50f2                	lw	ra,60(sp)
800035cc:	5462                	lw	s0,56(sp)
800035ce:	6121                	addi	sp,sp,64
800035d0:	8082                	ret

800035d2 <gpio_init_input>:

static uint8_t gpio_qual_initialized = 0;

void gpio_init_input(GPIO_TypeDef* GPIOx, uint32_t Pin, GPIO_PullMode_TypeDef pull_mode)
{
800035d2:	7139                	addi	sp,sp,-64
800035d4:	de06                	sw	ra,60(sp)
800035d6:	dc22                	sw	s0,56(sp)
800035d8:	0080                	addi	s0,sp,64
800035da:	fca42623          	sw	a0,-52(s0)
800035de:	fcb42423          	sw	a1,-56(s0)
800035e2:	fcc42223          	sw	a2,-60(s0)
    // Сначала сбрасываем состояние пина
    gpio_reset_pin(GPIOx, Pin);
800035e6:	fc842583          	lw	a1,-56(s0)
800035ea:	fcc42503          	lw	a0,-52(s0)
800035ee:	3dd1                	jal	800034c2 <gpio_reset_pin>
    
    GPIO_Init_TypeDef gpio;
    GPIO_StructInit(&gpio);
800035f0:	fd840793          	addi	a5,s0,-40
800035f4:	853e                	mv	a0,a5
800035f6:	557010ef          	jal	ra,8000534c <GPIO_StructInit>
    gpio.Pin = Pin;
800035fa:	fc842783          	lw	a5,-56(s0)
800035fe:	fcf42c23          	sw	a5,-40(s0)
    gpio.Out = DISABLE;
80003602:	fc042e23          	sw	zero,-36(s0)
    gpio.AltFunc = DISABLE;
80003606:	fe042023          	sw	zero,-32(s0)
    gpio.AltFuncNum = GPIO_AltFuncNum_None;
8000360a:	fe042223          	sw	zero,-28(s0)
    gpio.OutMode = GPIO_OutMode_PP;
8000360e:	fe042423          	sw	zero,-24(s0)
    gpio.PullMode = pull_mode;
80003612:	fc442783          	lw	a5,-60(s0)
80003616:	fef42623          	sw	a5,-20(s0)
    GPIO_Init(GPIOx, &gpio);
8000361a:	fd840793          	addi	a5,s0,-40
8000361e:	85be                	mv	a1,a5
80003620:	fcc42503          	lw	a0,-52(s0)
80003624:	4a1010ef          	jal	ra,800052c4 <GPIO_Init>

    // Аппаратная фильтрация дребезга: пересинхронизация + квалификатор входа
    GPIO_SyncCmd(GPIOx, Pin, ENABLE);
80003628:	4605                	li	a2,1
8000362a:	fc842583          	lw	a1,-56(s0)
8000362e:	fcc42503          	lw	a0,-52(s0)
80003632:	33b1                	jal	8000337e <GPIO_SyncCmd>

    // Устанавливаем период выборки фильтра один раз на порт (по сути, можно
    // делать и каждый раз, но оставим лёгкую оптимизацию по флагу).
    if (!gpio_qual_initialized) {
80003634:	eee1c783          	lbu	a5,-274(gp) # 4000066e <gpio_qual_initialized>
80003638:	eb89                	bnez	a5,8000364a <gpio_init_input+0x78>
      GPIO_QualSampleConfig(GPIOx, 1000); // период дискретизации в тактах SystemCoreClock
8000363a:	3e800593          	li	a1,1000
8000363e:	fcc42503          	lw	a0,-52(s0)
80003642:	31cd                	jal	80003324 <GPIO_QualSampleConfig>
      gpio_qual_initialized = 1;
80003644:	4705                	li	a4,1
80003646:	eee18723          	sb	a4,-274(gp) # 4000066e <gpio_qual_initialized>
    }

    GPIO_QualModeConfig(GPIOx, Pin, GPIO_QualMode_6Sample); // более жёсткая фильтрация
8000364a:	4605                	li	a2,1
8000364c:	fc842583          	lw	a1,-56(s0)
80003650:	fcc42503          	lw	a0,-52(s0)
80003654:	3959                	jal	800032ea <GPIO_QualModeConfig>
    GPIO_QualCmd(GPIOx, Pin, ENABLE);
80003656:	4605                	li	a2,1
80003658:	fc842583          	lw	a1,-56(s0)
8000365c:	fcc42503          	lw	a0,-52(s0)
80003660:	31d5                	jal	80003344 <GPIO_QualCmd>
}
80003662:	0001                	nop
80003664:	50f2                	lw	ra,60(sp)
80003666:	5462                	lw	s0,56(sp)
80003668:	6121                	addi	sp,sp,64
8000366a:	8082                	ret

8000366c <gpio_init_input_irq>:

void gpio_init_input_irq(GPIO_TypeDef* GPIOx, uint32_t Pin, GPIO_PullMode_TypeDef pull_mode, volatile uint8_t* last_state)
{
8000366c:	1101                	addi	sp,sp,-32
8000366e:	ce06                	sw	ra,28(sp)
80003670:	cc22                	sw	s0,24(sp)
80003672:	1000                	addi	s0,sp,32
80003674:	fea42623          	sw	a0,-20(s0)
80003678:	feb42423          	sw	a1,-24(s0)
8000367c:	fec42223          	sw	a2,-28(s0)
80003680:	fed42023          	sw	a3,-32(s0)
    // Сначала инициализируем как обычный вход
    gpio_init_input(GPIOx, Pin, pull_mode);
80003684:	fe442603          	lw	a2,-28(s0)
80003688:	fe842583          	lw	a1,-24(s0)
8000368c:	fec42503          	lw	a0,-20(s0)
80003690:	3789                	jal	800035d2 <gpio_init_input>
    
    // Настраиваем прерывания
    GPIO_ITTypeConfig(GPIOx, Pin, GPIO_IntType_Edge);
80003692:	4605                	li	a2,1
80003694:	fe842583          	lw	a1,-24(s0)
80003698:	fec42503          	lw	a0,-20(s0)
8000369c:	3b31                	jal	800033b8 <GPIO_ITTypeConfig>
    GPIO_ITPolConfig(GPIOx, Pin, GPIO_IntPol_Negative);
8000369e:	4601                	li	a2,0
800036a0:	fe842583          	lw	a1,-24(s0)
800036a4:	fec42503          	lw	a0,-20(s0)
800036a8:	33a9                	jal	800033f2 <GPIO_ITPolConfig>
    GPIO_ITEdgeConfig(GPIOx, Pin, GPIO_IntEdge_Any); // прерывание по обоим фронтам
800036aa:	4605                	li	a2,1
800036ac:	fe842583          	lw	a1,-24(s0)
800036b0:	fec42503          	lw	a0,-20(s0)
800036b4:	3ba5                	jal	8000342c <GPIO_ITEdgeConfig>
    GPIO_ITStatusClear(GPIOx, Pin);
800036b6:	fe842583          	lw	a1,-24(s0)
800036ba:	fec42503          	lw	a0,-20(s0)
800036be:	33cd                	jal	800034a0 <GPIO_ITStatusClear>
    
    // Инициализировать предыдущее состояние кнопки (отпущена = 1)
    if (last_state != NULL) {
800036c0:	fe042783          	lw	a5,-32(s0)
800036c4:	c385                	beqz	a5,800036e4 <gpio_init_input_irq+0x78>
      *last_state = GPIO_ReadBit(GPIOx, Pin) ? 1 : 0;
800036c6:	fe842583          	lw	a1,-24(s0)
800036ca:	fec42503          	lw	a0,-20(s0)
800036ce:	3e4d                	jal	80003280 <GPIO_ReadBit>
800036d0:	87aa                	mv	a5,a0
800036d2:	00f037b3          	snez	a5,a5
800036d6:	0ff7f793          	zext.b	a5,a5
800036da:	873e                	mv	a4,a5
800036dc:	fe042783          	lw	a5,-32(s0)
800036e0:	00e78023          	sb	a4,0(a5)
    }
    
    // Включить прерывание
    GPIO_ITCmd(GPIOx, Pin, ENABLE);
800036e4:	4605                	li	a2,1
800036e6:	fe842583          	lw	a1,-24(s0)
800036ea:	fec42503          	lw	a0,-20(s0)
800036ee:	3ba5                	jal	80003466 <GPIO_ITCmd>
}
800036f0:	0001                	nop
800036f2:	40f2                	lw	ra,28(sp)
800036f4:	4462                	lw	s0,24(sp)
800036f6:	6105                	addi	sp,sp,32
800036f8:	8082                	ret

800036fa <RCU_ADCSARRstCmd>:
  * @brief   Cнятие сброса АЦП
  * @param   State  Выбор состояния
  * @retval  void
  */
__STATIC_INLINE void RCU_ADCSARRstCmd(FunctionalState State)
{
800036fa:	1101                	addi	sp,sp,-32
800036fc:	ce22                	sw	s0,28(sp)
800036fe:	1000                	addi	s0,sp,32
80003700:	fea42623          	sw	a0,-20(s0)
    assert_param(IS_FUNCTIONAL_STATE(State));

    WRITE_REG(RCU->ADCSARCLKCFG_bit.RSTDIS, State);
80003704:	3000e7b7          	lui	a5,0x3000e
80003708:	fec42703          	lw	a4,-20(s0)
8000370c:	8b05                	andi	a4,a4,1
8000370e:	0ff77713          	zext.b	a4,a4
80003712:	8b05                	andi	a4,a4,1
80003714:	0722                	slli	a4,a4,0x8
80003716:	0b07a683          	lw	a3,176(a5) # 3000e0b0 <STACK_SIZE+0x3000d8b0>
8000371a:	eff6f693          	andi	a3,a3,-257
8000371e:	8f55                	or	a4,a4,a3
80003720:	0ae7a823          	sw	a4,176(a5)
}
80003724:	0001                	nop
80003726:	4472                	lw	s0,28(sp)
80003728:	6105                	addi	sp,sp,32
8000372a:	8082                	ret

8000372c <ADCSAR_SEQ_SwStartEnCmd>:
  * @param   SEQ_Num  Выбор секвенсора
  * @param   State  Выбор состояния
  * @retval  void
  */
__STATIC_INLINE void ADCSAR_SEQ_SwStartEnCmd(ADCSAR_SEQ_Num_TypeDef SEQ_Num, FunctionalState State)
{
8000372c:	1101                	addi	sp,sp,-32
8000372e:	ce22                	sw	s0,28(sp)
80003730:	1000                	addi	s0,sp,32
80003732:	fea42623          	sw	a0,-20(s0)
80003736:	feb42423          	sw	a1,-24(s0)
    assert_param(IS_ADCSAR_SEQ_NUM(SEQ_Num));
    assert_param(IS_FUNCTIONAL_STATE(State));

    MODIFY_REG(ADCSAR->SEQSYNC, 1 << (uint32_t)SEQ_Num, State << (uint32_t)SEQ_Num);
8000373a:	300107b7          	lui	a5,0x30010
8000373e:	43dc                	lw	a5,4(a5)
80003740:	fec42703          	lw	a4,-20(s0)
80003744:	4685                	li	a3,1
80003746:	00e69733          	sll	a4,a3,a4
8000374a:	fff74713          	not	a4,a4
8000374e:	00e7f6b3          	and	a3,a5,a4
80003752:	fec42783          	lw	a5,-20(s0)
80003756:	fe842703          	lw	a4,-24(s0)
8000375a:	00f71733          	sll	a4,a4,a5
8000375e:	300107b7          	lui	a5,0x30010
80003762:	8f55                	or	a4,a4,a3
80003764:	c3d8                	sw	a4,4(a5)
}
80003766:	0001                	nop
80003768:	4472                	lw	s0,28(sp)
8000376a:	6105                	addi	sp,sp,32
8000376c:	8082                	ret

8000376e <ADCSAR_SEQ_StartEventConfig>:
  * @param   SEQ_Num  Выбор секвенсора
  * @param   StartEvent  Выбор события
  * @retval  void
  */
__STATIC_INLINE void ADCSAR_SEQ_StartEventConfig(ADCSAR_SEQ_Num_TypeDef SEQ_Num, ADCSAR_SEQ_StartEvent_TypeDef StartEvent)
{
8000376e:	1101                	addi	sp,sp,-32
80003770:	ce22                	sw	s0,28(sp)
80003772:	1000                	addi	s0,sp,32
80003774:	fea42623          	sw	a0,-20(s0)
80003778:	feb42423          	sw	a1,-24(s0)
    assert_param(IS_ADCSAR_SEQ_NUM(SEQ_Num));

    MODIFY_REG(ADCSAR->EMUX, 0xF << ((uint32_t)SEQ_Num * 4), StartEvent << ((uint32_t)SEQ_Num * 4));
8000377c:	300107b7          	lui	a5,0x30010
80003780:	4fdc                	lw	a5,28(a5)
80003782:	fec42703          	lw	a4,-20(s0)
80003786:	070a                	slli	a4,a4,0x2
80003788:	46bd                	li	a3,15
8000378a:	00e69733          	sll	a4,a3,a4
8000378e:	fff74713          	not	a4,a4
80003792:	00e7f6b3          	and	a3,a5,a4
80003796:	fec42783          	lw	a5,-20(s0)
8000379a:	078a                	slli	a5,a5,0x2
8000379c:	fe842703          	lw	a4,-24(s0)
800037a0:	00f71733          	sll	a4,a4,a5
800037a4:	300107b7          	lui	a5,0x30010
800037a8:	8f55                	or	a4,a4,a3
800037aa:	cfd8                	sw	a4,28(a5)
}
800037ac:	0001                	nop
800037ae:	4472                	lw	s0,28(sp)
800037b0:	6105                	addi	sp,sp,32
800037b2:	8082                	ret

800037b4 <ADCSAR_SEQ_ReqMaxConfig>:
  * @param   SEQ_Num  Выбор секвенсора
  * @param   ReqNumMax  Номер последнего запроса
  * @retval  void
  */
__STATIC_INLINE void ADCSAR_SEQ_ReqMaxConfig(ADCSAR_SEQ_Num_TypeDef SEQ_Num, ADCSAR_SEQ_ReqNum_TypeDef ReqNumMax)
{
800037b4:	1101                	addi	sp,sp,-32
800037b6:	ce22                	sw	s0,28(sp)
800037b8:	1000                	addi	s0,sp,32
800037ba:	fea42623          	sw	a0,-20(s0)
800037be:	feb42423          	sw	a1,-24(s0)
    assert_param(IS_ADCSAR_SEQ_NUM(SEQ_Num));
    assert_param(IS_ADCSAR_SEQ_REQ_NUM(ReqNumMax));

    WRITE_REG(ADCSAR->SEQ[SEQ_Num].SRQCTL_bit.RQMAX, ReqNumMax);
800037c2:	30010637          	lui	a2,0x30010
800037c6:	fe842783          	lw	a5,-24(s0)
800037ca:	8b9d                	andi	a5,a5,7
800037cc:	0ff7f693          	zext.b	a3,a5
800037d0:	fec42703          	lw	a4,-20(s0)
800037d4:	87ba                	mv	a5,a4
800037d6:	0792                	slli	a5,a5,0x4
800037d8:	8f99                	sub	a5,a5,a4
800037da:	078a                	slli	a5,a5,0x2
800037dc:	97b2                	add	a5,a5,a2
800037de:	0076f713          	andi	a4,a3,7
800037e2:	0587d683          	lhu	a3,88(a5) # 30010058 <STACK_SIZE+0x3000f858>
800037e6:	9ae1                	andi	a3,a3,-8
800037e8:	8f55                	or	a4,a4,a3
800037ea:	04e79c23          	sh	a4,88(a5)
}
800037ee:	0001                	nop
800037f0:	4472                	lw	s0,28(sp)
800037f2:	6105                	addi	sp,sp,32
800037f4:	8082                	ret

800037f6 <ADCSAR_SEQ_ReqAverageConfig>:
  * @param   SEQ_Num  Выбор секвенсора
  * @param   Average  Выбор режима усреднения
  * @retval  void
  */
__STATIC_INLINE void ADCSAR_SEQ_ReqAverageConfig(ADCSAR_SEQ_Num_TypeDef SEQ_Num, ADCSAR_SEQ_Average_TypeDef Average)
{
800037f6:	1101                	addi	sp,sp,-32
800037f8:	ce22                	sw	s0,28(sp)
800037fa:	1000                	addi	s0,sp,32
800037fc:	fea42623          	sw	a0,-20(s0)
80003800:	feb42423          	sw	a1,-24(s0)
    assert_param(IS_ADCSAR_SEQ_NUM(SEQ_Num));
    assert_param(IS_ADCSAR_SEQ_AVERAGE(Average));

    WRITE_REG(ADCSAR->SEQ[SEQ_Num].SRQCTL_bit.QAVGVAL, Average);
80003804:	30010637          	lui	a2,0x30010
80003808:	fe842783          	lw	a5,-24(s0)
8000380c:	8b9d                	andi	a5,a5,7
8000380e:	0ff7f693          	zext.b	a3,a5
80003812:	fec42703          	lw	a4,-20(s0)
80003816:	87ba                	mv	a5,a4
80003818:	0792                	slli	a5,a5,0x4
8000381a:	8f99                	sub	a5,a5,a4
8000381c:	078a                	slli	a5,a5,0x2
8000381e:	97b2                	add	a5,a5,a2
80003820:	0076f713          	andi	a4,a3,7
80003824:	00971613          	slli	a2,a4,0x9
80003828:	0587d703          	lhu	a4,88(a5)
8000382c:	86ba                	mv	a3,a4
8000382e:	777d                	lui	a4,0xfffff
80003830:	1ff70713          	addi	a4,a4,511 # fffff1ff <__data_source_start+0x7fff78b7>
80003834:	8f75                	and	a4,a4,a3
80003836:	86ba                	mv	a3,a4
80003838:	8732                	mv	a4,a2
8000383a:	8f55                	or	a4,a4,a3
8000383c:	04e79c23          	sh	a4,88(a5)
}
80003840:	0001                	nop
80003842:	4472                	lw	s0,28(sp)
80003844:	6105                	addi	sp,sp,32
80003846:	8082                	ret

80003848 <ADCSAR_SEQ_ReqAverageCmd>:
  * @param   SEQ_Num  Выбор секвенсора
  * @param   State  Выбор состояния
  * @retval  void
  */
__STATIC_INLINE void ADCSAR_SEQ_ReqAverageCmd(ADCSAR_SEQ_Num_TypeDef SEQ_Num, FunctionalState State)
{
80003848:	1101                	addi	sp,sp,-32
8000384a:	ce22                	sw	s0,28(sp)
8000384c:	1000                	addi	s0,sp,32
8000384e:	fea42623          	sw	a0,-20(s0)
80003852:	feb42423          	sw	a1,-24(s0)
    assert_param(IS_ADCSAR_SEQ_NUM(SEQ_Num));
    assert_param(IS_FUNCTIONAL_STATE(State));

    WRITE_REG(ADCSAR->SEQ[SEQ_Num].SRQCTL_bit.QAVGEN, State);
80003856:	30010637          	lui	a2,0x30010
8000385a:	fe842783          	lw	a5,-24(s0)
8000385e:	8b85                	andi	a5,a5,1
80003860:	0ff7f693          	zext.b	a3,a5
80003864:	fec42703          	lw	a4,-20(s0)
80003868:	87ba                	mv	a5,a4
8000386a:	0792                	slli	a5,a5,0x4
8000386c:	8f99                	sub	a5,a5,a4
8000386e:	078a                	slli	a5,a5,0x2
80003870:	97b2                	add	a5,a5,a2
80003872:	0016f713          	andi	a4,a3,1
80003876:	0722                	slli	a4,a4,0x8
80003878:	0587d683          	lhu	a3,88(a5)
8000387c:	eff6f693          	andi	a3,a3,-257
80003880:	8f55                	or	a4,a4,a3
80003882:	04e79c23          	sh	a4,88(a5)
}
80003886:	0001                	nop
80003888:	4472                	lw	s0,28(sp)
8000388a:	6105                	addi	sp,sp,32
8000388c:	8082                	ret

8000388e <ADCSAR_SEQ_DMAConfig>:
  * @param   SEQ_Num  Выбор секвенсора
  * @param   DMAFIFOLevel  Выбор уровня заполнения буфера для генерации запросов DMA
  * @retval  void
  */
__STATIC_INLINE void ADCSAR_SEQ_DMAConfig(ADCSAR_SEQ_Num_TypeDef SEQ_Num, ADCSAR_SEQ_DMAFIFOLevel_TypeDef DMAFIFOLevel)
{
8000388e:	1101                	addi	sp,sp,-32
80003890:	ce22                	sw	s0,28(sp)
80003892:	1000                	addi	s0,sp,32
80003894:	fea42623          	sw	a0,-20(s0)
80003898:	feb42423          	sw	a1,-24(s0)
    assert_param(IS_ADCSAR_SEQ_NUM(SEQ_Num));
    assert_param(IS_ADCSAR_SEQ_DMA_FIFO_LEVEL(DMAFIFOLevel));

    WRITE_REG(ADCSAR->SEQ[SEQ_Num].SDMACTL_bit.WMARK, DMAFIFOLevel);
8000389c:	30010637          	lui	a2,0x30010
800038a0:	fe842783          	lw	a5,-24(s0)
800038a4:	8b9d                	andi	a5,a5,7
800038a6:	0ff7f693          	zext.b	a3,a5
800038aa:	fec42703          	lw	a4,-20(s0)
800038ae:	87ba                	mv	a5,a4
800038b0:	0792                	slli	a5,a5,0x4
800038b2:	8f99                	sub	a5,a5,a4
800038b4:	078a                	slli	a5,a5,0x2
800038b6:	97b2                	add	a5,a5,a2
800038b8:	0076f713          	andi	a4,a3,7
800038bc:	0722                	slli	a4,a4,0x8
800038be:	0607d683          	lhu	a3,96(a5)
800038c2:	8ff6f693          	andi	a3,a3,-1793
800038c6:	8f55                	or	a4,a4,a3
800038c8:	06e79023          	sh	a4,96(a5)
}
800038cc:	0001                	nop
800038ce:	4472                	lw	s0,28(sp)
800038d0:	6105                	addi	sp,sp,32
800038d2:	8082                	ret

800038d4 <ADCSAR_SEQ_DMACmd>:
  * @param   SEQ_Num  Выбор секвенсора
  * @param   State  Выбор состояния
  * @retval  void
  */
__STATIC_INLINE void ADCSAR_SEQ_DMACmd(ADCSAR_SEQ_Num_TypeDef SEQ_Num, FunctionalState State)
{
800038d4:	1101                	addi	sp,sp,-32
800038d6:	ce22                	sw	s0,28(sp)
800038d8:	1000                	addi	s0,sp,32
800038da:	fea42623          	sw	a0,-20(s0)
800038de:	feb42423          	sw	a1,-24(s0)
    assert_param(IS_ADCSAR_SEQ_NUM(SEQ_Num));
    assert_param(IS_FUNCTIONAL_STATE(State));

    WRITE_REG(ADCSAR->SEQ[SEQ_Num].SDMACTL_bit.DMAEN, State);
800038e2:	30010637          	lui	a2,0x30010
800038e6:	fe842783          	lw	a5,-24(s0)
800038ea:	8b85                	andi	a5,a5,1
800038ec:	0ff7f693          	zext.b	a3,a5
800038f0:	fec42703          	lw	a4,-20(s0)
800038f4:	87ba                	mv	a5,a4
800038f6:	0792                	slli	a5,a5,0x4
800038f8:	8f99                	sub	a5,a5,a4
800038fa:	078a                	slli	a5,a5,0x2
800038fc:	97b2                	add	a5,a5,a2
800038fe:	0016f713          	andi	a4,a3,1
80003902:	0607d683          	lhu	a3,96(a5)
80003906:	9af9                	andi	a3,a3,-2
80003908:	8f55                	or	a4,a4,a3
8000390a:	06e79023          	sh	a4,96(a5)
}
8000390e:	0001                	nop
80003910:	4472                	lw	s0,28(sp)
80003912:	6105                	addi	sp,sp,32
80003914:	8082                	ret

80003916 <ADCSAR_SEQ_RestartConfig>:
  * @param   RestartVal  Количество. 0x00 - без перезапусков,
  *                      0x01 - 1 перезапуск, 0xFF - 255 перезапусков.
  * @retval  void
  */
__STATIC_INLINE void ADCSAR_SEQ_RestartConfig(ADCSAR_SEQ_Num_TypeDef SEQ_Num, uint32_t RestartVal)
{
80003916:	1101                	addi	sp,sp,-32
80003918:	ce22                	sw	s0,28(sp)
8000391a:	1000                	addi	s0,sp,32
8000391c:	fea42623          	sw	a0,-20(s0)
80003920:	feb42423          	sw	a1,-24(s0)
    assert_param(IS_ADCSAR_SEQ_NUM(SEQ_Num));
    assert_param(IS_ADCSAR_SEQ_RESTART_VAL(RestartVal));

    WRITE_REG(ADCSAR->SEQ[SEQ_Num].SCCTL_bit.RCNT, RestartVal);
80003924:	30010637          	lui	a2,0x30010
80003928:	fe842783          	lw	a5,-24(s0)
8000392c:	0ff7f693          	zext.b	a3,a5
80003930:	fec42703          	lw	a4,-20(s0)
80003934:	87ba                	mv	a5,a4
80003936:	0792                	slli	a5,a5,0x4
80003938:	8f99                	sub	a5,a5,a4
8000393a:	078a                	slli	a5,a5,0x2
8000393c:	97b2                	add	a5,a5,a2
8000393e:	06d78223          	sb	a3,100(a5)
}
80003942:	0001                	nop
80003944:	4472                	lw	s0,28(sp)
80003946:	6105                	addi	sp,sp,32
80003948:	8082                	ret

8000394a <ADCSAR_SEQ_RestartAverageCmd>:
  * @param   SEQ_Num  Выбор секвенсора
  * @param   State  Выбор состояния
  * @retval  void
  */
__STATIC_INLINE void ADCSAR_SEQ_RestartAverageCmd(ADCSAR_SEQ_Num_TypeDef SEQ_Num, FunctionalState State)
{
8000394a:	1101                	addi	sp,sp,-32
8000394c:	ce22                	sw	s0,28(sp)
8000394e:	1000                	addi	s0,sp,32
80003950:	fea42623          	sw	a0,-20(s0)
80003954:	feb42423          	sw	a1,-24(s0)
    assert_param(IS_ADCSAR_SEQ_NUM(SEQ_Num));
    assert_param(IS_FUNCTIONAL_STATE(State));

    WRITE_REG(ADCSAR->SEQ[SEQ_Num].SCCTL_bit.RAVGEN, State);
80003958:	30010637          	lui	a2,0x30010
8000395c:	fe842783          	lw	a5,-24(s0)
80003960:	8b85                	andi	a5,a5,1
80003962:	0ff7f693          	zext.b	a3,a5
80003966:	fec42703          	lw	a4,-20(s0)
8000396a:	87ba                	mv	a5,a4
8000396c:	0792                	slli	a5,a5,0x4
8000396e:	8f99                	sub	a5,a5,a4
80003970:	078a                	slli	a5,a5,0x2
80003972:	97b2                	add	a5,a5,a2
80003974:	0016f713          	andi	a4,a3,1
80003978:	0722                	slli	a4,a4,0x8
8000397a:	53f4                	lw	a3,100(a5)
8000397c:	eff6f693          	andi	a3,a3,-257
80003980:	8f55                	or	a4,a4,a3
80003982:	d3f8                	sw	a4,100(a5)
}
80003984:	0001                	nop
80003986:	4472                	lw	s0,28(sp)
80003988:	6105                	addi	sp,sp,32
8000398a:	8082                	ret

8000398c <ADCSAR_SEQ_DCEnableCmd>:
  * @param   DC_Num  Выбор компаратора
  * @param   State  Выбор состояния
  * @retval  void
  */
__STATIC_INLINE void ADCSAR_SEQ_DCEnableCmd(ADCSAR_SEQ_Num_TypeDef SEQ_Num, ADCSAR_DC_Num_TypeDef DC_Num, FunctionalState State)
{
8000398c:	1101                	addi	sp,sp,-32
8000398e:	ce22                	sw	s0,28(sp)
80003990:	1000                	addi	s0,sp,32
80003992:	fea42623          	sw	a0,-20(s0)
80003996:	feb42423          	sw	a1,-24(s0)
8000399a:	fec42223          	sw	a2,-28(s0)
    assert_param(IS_ADCSAR_SEQ_NUM(SEQ_Num));
    assert_param(IS_ADCSAR_DC_NUM(DC_Num));
    assert_param(IS_FUNCTIONAL_STATE(State));

    MODIFY_REG(ADCSAR->SEQ[SEQ_Num].SDC, 1 << ((uint32_t)DC_Num), State << ((uint32_t)DC_Num));
8000399e:	300106b7          	lui	a3,0x30010
800039a2:	fec42703          	lw	a4,-20(s0)
800039a6:	87ba                	mv	a5,a4
800039a8:	0792                	slli	a5,a5,0x4
800039aa:	8f99                	sub	a5,a5,a4
800039ac:	078a                	slli	a5,a5,0x2
800039ae:	97b6                	add	a5,a5,a3
800039b0:	57fc                	lw	a5,108(a5)
800039b2:	fe842703          	lw	a4,-24(s0)
800039b6:	4685                	li	a3,1
800039b8:	00e69733          	sll	a4,a3,a4
800039bc:	fff74713          	not	a4,a4
800039c0:	8f7d                	and	a4,a4,a5
800039c2:	fe842783          	lw	a5,-24(s0)
800039c6:	fe442683          	lw	a3,-28(s0)
800039ca:	00f697b3          	sll	a5,a3,a5
800039ce:	30010637          	lui	a2,0x30010
800039d2:	00f766b3          	or	a3,a4,a5
800039d6:	fec42703          	lw	a4,-20(s0)
800039da:	87ba                	mv	a5,a4
800039dc:	0792                	slli	a5,a5,0x4
800039de:	8f99                	sub	a5,a5,a4
800039e0:	078a                	slli	a5,a5,0x2
800039e2:	97b2                	add	a5,a5,a2
800039e4:	d7f4                	sw	a3,108(a5)
}
800039e6:	0001                	nop
800039e8:	4472                	lw	s0,28(sp)
800039ea:	6105                	addi	sp,sp,32
800039ec:	8082                	ret

800039ee <ADCSAR_SEQ_SetRestartTimer>:
  * @param   SEQ_Num  Выбор секвенсора
  * @param   TimerVal  Значение. 0 - означает отсутствие задержки и немедленный перезапуск (если активен).
  * @retval  void
  */
__STATIC_INLINE void ADCSAR_SEQ_SetRestartTimer(ADCSAR_SEQ_Num_TypeDef SEQ_Num, uint32_t TimerVal)
{
800039ee:	1101                	addi	sp,sp,-32
800039f0:	ce22                	sw	s0,28(sp)
800039f2:	1000                	addi	s0,sp,32
800039f4:	fea42623          	sw	a0,-20(s0)
800039f8:	feb42423          	sw	a1,-24(s0)
    assert_param(IS_ADCSAR_SEQ_NUM(SEQ_Num));
    assert_param(IS_ADCSAR_SEQ_RESTART_TIMER_VAL(TimerVal));

    WRITE_REG(ADCSAR->SEQ[SEQ_Num].SRTMR_bit.VAL, TimerVal);
800039fc:	30010637          	lui	a2,0x30010
80003a00:	fe842703          	lw	a4,-24(s0)
80003a04:	010007b7          	lui	a5,0x1000
80003a08:	17fd                	addi	a5,a5,-1 # ffffff <STACK_SIZE+0xfff7ff>
80003a0a:	00f776b3          	and	a3,a4,a5
80003a0e:	fec42703          	lw	a4,-20(s0)
80003a12:	87ba                	mv	a5,a4
80003a14:	0792                	slli	a5,a5,0x4
80003a16:	8f99                	sub	a5,a5,a4
80003a18:	078a                	slli	a5,a5,0x2
80003a1a:	97b2                	add	a5,a5,a2
80003a1c:	01000737          	lui	a4,0x1000
80003a20:	177d                	addi	a4,a4,-1 # ffffff <STACK_SIZE+0xfff7ff>
80003a22:	8f75                	and	a4,a4,a3
80003a24:	5bb0                	lw	a2,112(a5)
80003a26:	ff0006b7          	lui	a3,0xff000
80003a2a:	8ef1                	and	a3,a3,a2
80003a2c:	8f55                	or	a4,a4,a3
80003a2e:	dbb8                	sw	a4,112(a5)
}
80003a30:	0001                	nop
80003a32:	4472                	lw	s0,28(sp)
80003a34:	6105                	addi	sp,sp,32
80003a36:	8082                	ret

80003a38 <ADCSAR_DC_OutputCmd>:
  * @param   DC_Num  Выбор компаратора
  * @param   State  Выбор состояния
  * @retval  void
  */
__STATIC_INLINE void ADCSAR_DC_OutputCmd(ADCSAR_DC_Num_TypeDef DC_Num, FunctionalState State)
{
80003a38:	1101                	addi	sp,sp,-32
80003a3a:	ce22                	sw	s0,28(sp)
80003a3c:	1000                	addi	s0,sp,32
80003a3e:	fea42623          	sw	a0,-20(s0)
80003a42:	feb42423          	sw	a1,-24(s0)
    assert_param(IS_ADCSAR_DC_NUM(DC_Num));
    assert_param(IS_FUNCTIONAL_STATE(State));

    WRITE_REG(ADCSAR->DC[DC_Num].DCTL_bit.CTE, State);
80003a46:	30010637          	lui	a2,0x30010
80003a4a:	fe842783          	lw	a5,-24(s0)
80003a4e:	8b85                	andi	a5,a5,1
80003a50:	0ff7f693          	zext.b	a3,a5
80003a54:	fec42703          	lw	a4,-20(s0)
80003a58:	87ba                	mv	a5,a4
80003a5a:	0786                	slli	a5,a5,0x1
80003a5c:	97ba                	add	a5,a5,a4
80003a5e:	078a                	slli	a5,a5,0x2
80003a60:	97b2                	add	a5,a5,a2
80003a62:	0016f713          	andi	a4,a3,1
80003a66:	0732                	slli	a4,a4,0xc
80003a68:	4007a603          	lw	a2,1024(a5)
80003a6c:	76fd                	lui	a3,0xfffff
80003a6e:	16fd                	addi	a3,a3,-1 # ffffefff <__data_source_start+0x7fff76b7>
80003a70:	8ef1                	and	a3,a3,a2
80003a72:	8f55                	or	a4,a4,a3
80003a74:	40e7a023          	sw	a4,1024(a5)
}
80003a78:	0001                	nop
80003a7a:	4472                	lw	s0,28(sp)
80003a7c:	6105                	addi	sp,sp,32
80003a7e:	8082                	ret

80003a80 <ADCSAR_DC_SourceConfig>:
  * @param   DC_Num  Выбор компаратора
  * @param   Source  Выбор источника
  * @retval  void
  */
__STATIC_INLINE void ADCSAR_DC_SourceConfig(ADCSAR_DC_Num_TypeDef DC_Num, ADCSAR_DC_Source_TypeDef Source)
{
80003a80:	1101                	addi	sp,sp,-32
80003a82:	ce22                	sw	s0,28(sp)
80003a84:	1000                	addi	s0,sp,32
80003a86:	fea42623          	sw	a0,-20(s0)
80003a8a:	feb42423          	sw	a1,-24(s0)
    assert_param(IS_ADCSAR_DC_NUM(DC_Num));
    assert_param(IS_ADCSAR_DC_SOURCE(Source));

    WRITE_REG(ADCSAR->DC[DC_Num].DCTL_bit.SRC, Source);
80003a8e:	30010637          	lui	a2,0x30010
80003a92:	fe842783          	lw	a5,-24(s0)
80003a96:	8b85                	andi	a5,a5,1
80003a98:	0ff7f693          	zext.b	a3,a5
80003a9c:	fec42703          	lw	a4,-20(s0)
80003aa0:	87ba                	mv	a5,a4
80003aa2:	0786                	slli	a5,a5,0x1
80003aa4:	97ba                	add	a5,a5,a4
80003aa6:	078a                	slli	a5,a5,0x2
80003aa8:	97b2                	add	a5,a5,a2
80003aaa:	0016f713          	andi	a4,a3,1
80003aae:	0762                	slli	a4,a4,0x18
80003ab0:	4007a603          	lw	a2,1024(a5)
80003ab4:	ff0006b7          	lui	a3,0xff000
80003ab8:	16fd                	addi	a3,a3,-1 # feffffff <__data_source_start+0x7eff86b7>
80003aba:	8ef1                	and	a3,a3,a2
80003abc:	8f55                	or	a4,a4,a3
80003abe:	40e7a023          	sw	a4,1024(a5)
}
80003ac2:	0001                	nop
80003ac4:	4472                	lw	s0,28(sp)
80003ac6:	6105                	addi	sp,sp,32
80003ac8:	8082                	ret

80003aca <ADCSAR_DC_ChannelConfig>:
  * @param   DC_Num  Выбор компаратора
  * @param   Source  Выбор источника
  * @retval  void
  */
__STATIC_INLINE void ADCSAR_DC_ChannelConfig(ADCSAR_DC_Num_TypeDef DC_Num, ADCSAR_CH_Num_TypeDef Channel_Num)
{
80003aca:	1101                	addi	sp,sp,-32
80003acc:	ce22                	sw	s0,28(sp)
80003ace:	1000                	addi	s0,sp,32
80003ad0:	fea42623          	sw	a0,-20(s0)
80003ad4:	feb42423          	sw	a1,-24(s0)
    assert_param(IS_ADCSAR_DC_NUM(DC_Num));
    assert_param(IS_ADCSAR_CH_NUM(Channel_Num));

    WRITE_REG(ADCSAR->DC[DC_Num].DCTL_bit.CHNL, Channel_Num);
80003ad8:	30010637          	lui	a2,0x30010
80003adc:	fe842783          	lw	a5,-24(s0)
80003ae0:	8b9d                	andi	a5,a5,7
80003ae2:	0ff7f693          	zext.b	a3,a5
80003ae6:	fec42703          	lw	a4,-20(s0)
80003aea:	87ba                	mv	a5,a4
80003aec:	0786                	slli	a5,a5,0x1
80003aee:	97ba                	add	a5,a5,a4
80003af0:	078a                	slli	a5,a5,0x2
80003af2:	97b2                	add	a5,a5,a2
80003af4:	0076f713          	andi	a4,a3,7
80003af8:	0742                	slli	a4,a4,0x10
80003afa:	4007a603          	lw	a2,1024(a5)
80003afe:	fff906b7          	lui	a3,0xfff90
80003b02:	16fd                	addi	a3,a3,-1 # fff8ffff <__data_source_start+0x7ff886b7>
80003b04:	8ef1                	and	a3,a3,a2
80003b06:	8f55                	or	a4,a4,a3
80003b08:	40e7a023          	sw	a4,1024(a5)
}
80003b0c:	0001                	nop
80003b0e:	4472                	lw	s0,28(sp)
80003b10:	6105                	addi	sp,sp,32
80003b12:	8082                	ret

80003b14 <ADCSAR_DC_Config>:
  * @param   Mode  Выбор режима
  * @param   Condition  Выбор условия
  * @retval  void
  */
__STATIC_INLINE void ADCSAR_DC_Config(ADCSAR_DC_Num_TypeDef DC_Num, ADCSAR_DC_Mode_TypeDef Mode, ADCSAR_DC_Condition_TypeDef Condition)
{
80003b14:	1101                	addi	sp,sp,-32
80003b16:	ce22                	sw	s0,28(sp)
80003b18:	1000                	addi	s0,sp,32
80003b1a:	fea42623          	sw	a0,-20(s0)
80003b1e:	feb42423          	sw	a1,-24(s0)
80003b22:	fec42223          	sw	a2,-28(s0)
    assert_param(IS_ADCSAR_DC_NUM(DC_Num));
    assert_param(IS_ADCSAR_DC_MODE(Mode));
    assert_param(IS_ADCSAR_DC_CONDITION(Condition));

    MODIFY_REG(ADCSAR->DC[DC_Num].DCTL, ADCSAR_DC_DCTL_CTC_Msk | ADCSAR_DC_DCTL_CTM_Msk,
80003b26:	300106b7          	lui	a3,0x30010
80003b2a:	fec42703          	lw	a4,-20(s0)
80003b2e:	87ba                	mv	a5,a4
80003b30:	0786                	slli	a5,a5,0x1
80003b32:	97ba                	add	a5,a5,a4
80003b34:	078a                	slli	a5,a5,0x2
80003b36:	97b6                	add	a5,a5,a3
80003b38:	4007a703          	lw	a4,1024(a5)
80003b3c:	77fd                	lui	a5,0xfffff
80003b3e:	0ff78793          	addi	a5,a5,255 # fffff0ff <__data_source_start+0x7fff77b7>
80003b42:	8f7d                	and	a4,a4,a5
80003b44:	fe842783          	lw	a5,-24(s0)
80003b48:	00879693          	slli	a3,a5,0x8
80003b4c:	fe442783          	lw	a5,-28(s0)
80003b50:	07aa                	slli	a5,a5,0xa
80003b52:	8fd5                	or	a5,a5,a3
80003b54:	30010637          	lui	a2,0x30010
80003b58:	00f766b3          	or	a3,a4,a5
80003b5c:	fec42703          	lw	a4,-20(s0)
80003b60:	87ba                	mv	a5,a4
80003b62:	0786                	slli	a5,a5,0x1
80003b64:	97ba                	add	a5,a5,a4
80003b66:	078a                	slli	a5,a5,0x2
80003b68:	97b2                	add	a5,a5,a2
80003b6a:	40d7a023          	sw	a3,1024(a5)
               ((Mode << ADCSAR_DC_DCTL_CTM_Pos) |
                (Condition << ADCSAR_DC_DCTL_CTC_Pos)));
}
80003b6e:	0001                	nop
80003b70:	4472                	lw	s0,28(sp)
80003b72:	6105                	addi	sp,sp,32
80003b74:	8082                	ret

80003b76 <ADCSAR_DC_SetThresholdLow>:
  * @param   DC_Num  Выбор компаратора
  * @param   Val  Значение. Диапазон 0-0xFFF.
  * @retval  void
  */
__STATIC_INLINE void ADCSAR_DC_SetThresholdLow(ADCSAR_DC_Num_TypeDef DC_Num, uint32_t Val)
{
80003b76:	1101                	addi	sp,sp,-32
80003b78:	ce22                	sw	s0,28(sp)
80003b7a:	1000                	addi	s0,sp,32
80003b7c:	fea42623          	sw	a0,-20(s0)
80003b80:	feb42423          	sw	a1,-24(s0)
    assert_param(IS_ADCSAR_DC_NUM(DC_Num));
    assert_param(IS_ADCSAR_DC_THRESHOLD(Val));

    WRITE_REG(ADCSAR->DC[DC_Num].DCMP_bit.CMPL, Val);
80003b84:	30010637          	lui	a2,0x30010
80003b88:	fe842783          	lw	a5,-24(s0)
80003b8c:	873e                	mv	a4,a5
80003b8e:	6785                	lui	a5,0x1
80003b90:	17fd                	addi	a5,a5,-1 # fff <STACK_SIZE+0x7ff>
80003b92:	8ff9                	and	a5,a5,a4
80003b94:	01079693          	slli	a3,a5,0x10
80003b98:	82c1                	srli	a3,a3,0x10
80003b9a:	fec42703          	lw	a4,-20(s0)
80003b9e:	87ba                	mv	a5,a4
80003ba0:	0786                	slli	a5,a5,0x1
80003ba2:	97ba                	add	a5,a5,a4
80003ba4:	078a                	slli	a5,a5,0x2
80003ba6:	97b2                	add	a5,a5,a2
80003ba8:	6705                	lui	a4,0x1
80003baa:	177d                	addi	a4,a4,-1 # fff <STACK_SIZE+0x7ff>
80003bac:	8f75                	and	a4,a4,a3
80003bae:	4047a603          	lw	a2,1028(a5)
80003bb2:	76fd                	lui	a3,0xfffff
80003bb4:	8ef1                	and	a3,a3,a2
80003bb6:	8f55                	or	a4,a4,a3
80003bb8:	40e7a223          	sw	a4,1028(a5)
}
80003bbc:	0001                	nop
80003bbe:	4472                	lw	s0,28(sp)
80003bc0:	6105                	addi	sp,sp,32
80003bc2:	8082                	ret

80003bc4 <ADCSAR_DC_SetThresholdHigh>:
  * @param   DC_Num  Выбор компаратора
  * @param   Val  Значение. Диапазон 0-0xFFF.
  * @retval  void
  */
__STATIC_INLINE void ADCSAR_DC_SetThresholdHigh(ADCSAR_DC_Num_TypeDef DC_Num, uint32_t Val)
{
80003bc4:	1101                	addi	sp,sp,-32
80003bc6:	ce22                	sw	s0,28(sp)
80003bc8:	1000                	addi	s0,sp,32
80003bca:	fea42623          	sw	a0,-20(s0)
80003bce:	feb42423          	sw	a1,-24(s0)
    assert_param(IS_ADCSAR_DC_NUM(DC_Num));
    assert_param(IS_ADCSAR_DC_THRESHOLD(Val));

    WRITE_REG(ADCSAR->DC[DC_Num].DCMP_bit.CMPH, Val);
80003bd2:	30010637          	lui	a2,0x30010
80003bd6:	fe842783          	lw	a5,-24(s0)
80003bda:	873e                	mv	a4,a5
80003bdc:	6785                	lui	a5,0x1
80003bde:	17fd                	addi	a5,a5,-1 # fff <STACK_SIZE+0x7ff>
80003be0:	8ff9                	and	a5,a5,a4
80003be2:	01079693          	slli	a3,a5,0x10
80003be6:	82c1                	srli	a3,a3,0x10
80003be8:	fec42703          	lw	a4,-20(s0)
80003bec:	87ba                	mv	a5,a4
80003bee:	0786                	slli	a5,a5,0x1
80003bf0:	97ba                	add	a5,a5,a4
80003bf2:	078a                	slli	a5,a5,0x2
80003bf4:	97b2                	add	a5,a5,a2
80003bf6:	6705                	lui	a4,0x1
80003bf8:	177d                	addi	a4,a4,-1 # fff <STACK_SIZE+0x7ff>
80003bfa:	8f75                	and	a4,a4,a3
80003bfc:	0742                	slli	a4,a4,0x10
80003bfe:	4047a603          	lw	a2,1028(a5)
80003c02:	f00106b7          	lui	a3,0xf0010
80003c06:	16fd                	addi	a3,a3,-1 # f000ffff <__data_source_start+0x700086b7>
80003c08:	8ef1                	and	a3,a3,a2
80003c0a:	8f55                	or	a4,a4,a3
80003c0c:	40e7a223          	sw	a4,1028(a5)
}
80003c10:	0001                	nop
80003c12:	4472                	lw	s0,28(sp)
80003c14:	6105                	addi	sp,sp,32
80003c16:	8082                	ret

80003c18 <ADCSAR_SEQ_ReqConfig>:
  * @param   ReqNum  Выбор запроса
  * @param   Channel_Num  Выбор канала
  * @retval  void
  */
void ADCSAR_SEQ_ReqConfig(ADCSAR_SEQ_Num_TypeDef SEQ_Num, ADCSAR_SEQ_ReqNum_TypeDef ReqNum, ADCSAR_CH_Num_TypeDef Channel_Num)
{
80003c18:	7179                	addi	sp,sp,-48
80003c1a:	d622                	sw	s0,44(sp)
80003c1c:	1800                	addi	s0,sp,48
80003c1e:	fca42e23          	sw	a0,-36(s0)
80003c22:	fcb42c23          	sw	a1,-40(s0)
80003c26:	fcc42a23          	sw	a2,-44(s0)

    assert_param(IS_ADCSAR_SEQ_NUM(SEQ_Num));
    assert_param(IS_ADCSAR_SEQ_REQ_NUM(ReqNum));
    assert_param(IS_ADCSAR_CH_NUM(Channel_Num));

    req_pos = ReqNum * 4;
80003c2a:	fd842783          	lw	a5,-40(s0)
80003c2e:	078a                	slli	a5,a5,0x2
80003c30:	fef42623          	sw	a5,-20(s0)

    MODIFY_REG(ADCSAR->SEQ[SEQ_Num].SRQSEL, 0x0F << req_pos, Channel_Num << req_pos); // srqsel2
80003c34:	300106b7          	lui	a3,0x30010
80003c38:	fdc42703          	lw	a4,-36(s0)
80003c3c:	87ba                	mv	a5,a4
80003c3e:	0792                	slli	a5,a5,0x4
80003c40:	8f99                	sub	a5,a5,a4
80003c42:	078a                	slli	a5,a5,0x2
80003c44:	97b6                	add	a5,a5,a3
80003c46:	43bc                	lw	a5,64(a5)
80003c48:	fec42703          	lw	a4,-20(s0)
80003c4c:	46bd                	li	a3,15
80003c4e:	00e69733          	sll	a4,a3,a4
80003c52:	fff74713          	not	a4,a4
80003c56:	8f7d                	and	a4,a4,a5
80003c58:	fec42783          	lw	a5,-20(s0)
80003c5c:	fd442683          	lw	a3,-44(s0)
80003c60:	00f697b3          	sll	a5,a3,a5
80003c64:	30010637          	lui	a2,0x30010
80003c68:	00f766b3          	or	a3,a4,a5
80003c6c:	fdc42703          	lw	a4,-36(s0)
80003c70:	87ba                	mv	a5,a4
80003c72:	0792                	slli	a5,a5,0x4
80003c74:	8f99                	sub	a5,a5,a4
80003c76:	078a                	slli	a5,a5,0x2
80003c78:	97b2                	add	a5,a5,a2
80003c7a:	c3b4                	sw	a3,64(a5)
}
80003c7c:	0001                	nop
80003c7e:	5432                	lw	s0,44(sp)
80003c80:	6145                	addi	sp,sp,48
80003c82:	8082                	ret

80003c84 <ADCSAR_DeInit>:
/**
  * @brief   Устанавливает все регистры ADCSAR значениями по умолчанию
  * @retval  void
  */
void ADCSAR_DeInit()
{
80003c84:	1141                	addi	sp,sp,-16
80003c86:	c606                	sw	ra,12(sp)
80003c88:	c422                	sw	s0,8(sp)
80003c8a:	0800                	addi	s0,sp,16
    RCU_ADCSARRstCmd(DISABLE);
80003c8c:	4501                	li	a0,0
80003c8e:	34b5                	jal	800036fa <RCU_ADCSARRstCmd>
    RCU_ADCSARRstCmd(ENABLE);
80003c90:	4505                	li	a0,1
80003c92:	34a5                	jal	800036fa <RCU_ADCSARRstCmd>
}
80003c94:	0001                	nop
80003c96:	40b2                	lw	ra,12(sp)
80003c98:	4422                	lw	s0,8(sp)
80003c9a:	0141                	addi	sp,sp,16
80003c9c:	8082                	ret

80003c9e <ADCSAR_SEQ_Init>:
  * @param   InitStruct  Указатель на структуру типа @ref ADCSAR_SEQ_Init_TypeDef,
  *                      которая содержит конфигурационную информацию
  * @retval  void
  */
void ADCSAR_SEQ_Init(ADCSAR_SEQ_Num_TypeDef SEQ_Num, ADCSAR_SEQ_Init_TypeDef* InitStruct)
{
80003c9e:	7179                	addi	sp,sp,-48
80003ca0:	d606                	sw	ra,44(sp)
80003ca2:	d422                	sw	s0,40(sp)
80003ca4:	1800                	addi	s0,sp,48
80003ca6:	fca42e23          	sw	a0,-36(s0)
80003caa:	fcb42c23          	sw	a1,-40(s0)
    ADCSAR_SEQ_StartEventConfig(SEQ_Num, InitStruct->StartEvent);
80003cae:	fd842783          	lw	a5,-40(s0)
80003cb2:	439c                	lw	a5,0(a5)
80003cb4:	85be                	mv	a1,a5
80003cb6:	fdc42503          	lw	a0,-36(s0)
80003cba:	3c55                	jal	8000376e <ADCSAR_SEQ_StartEventConfig>
    ADCSAR_SEQ_SwStartEnCmd(SEQ_Num, InitStruct->SWStartEn);
80003cbc:	fd842783          	lw	a5,-40(s0)
80003cc0:	43dc                	lw	a5,4(a5)
80003cc2:	85be                	mv	a1,a5
80003cc4:	fdc42503          	lw	a0,-36(s0)
80003cc8:	3495                	jal	8000372c <ADCSAR_SEQ_SwStartEnCmd>
    for (uint32_t i = 0; i < ADCSAR_SEQ_Req_Total; i++) {
80003cca:	fe042623          	sw	zero,-20(s0)
80003cce:	a01d                	j	80003cf4 <ADCSAR_SEQ_Init+0x56>
        ADCSAR_SEQ_ReqConfig(SEQ_Num, (ADCSAR_SEQ_ReqNum_TypeDef)i, InitStruct->Req[i]);
80003cd0:	fd842703          	lw	a4,-40(s0)
80003cd4:	fec42783          	lw	a5,-20(s0)
80003cd8:	078a                	slli	a5,a5,0x2
80003cda:	97ba                	add	a5,a5,a4
80003cdc:	479c                	lw	a5,8(a5)
80003cde:	863e                	mv	a2,a5
80003ce0:	fec42583          	lw	a1,-20(s0)
80003ce4:	fdc42503          	lw	a0,-36(s0)
80003ce8:	3f05                	jal	80003c18 <ADCSAR_SEQ_ReqConfig>
    for (uint32_t i = 0; i < ADCSAR_SEQ_Req_Total; i++) {
80003cea:	fec42783          	lw	a5,-20(s0)
80003cee:	0785                	addi	a5,a5,1
80003cf0:	fef42623          	sw	a5,-20(s0)
80003cf4:	fec42703          	lw	a4,-20(s0)
80003cf8:	479d                	li	a5,7
80003cfa:	fce7fbe3          	bgeu	a5,a4,80003cd0 <ADCSAR_SEQ_Init+0x32>
    }
    ADCSAR_SEQ_ReqMaxConfig(SEQ_Num, InitStruct->ReqMax);
80003cfe:	fd842783          	lw	a5,-40(s0)
80003d02:	579c                	lw	a5,40(a5)
80003d04:	85be                	mv	a1,a5
80003d06:	fdc42503          	lw	a0,-36(s0)
80003d0a:	346d                	jal	800037b4 <ADCSAR_SEQ_ReqMaxConfig>
    ADCSAR_SEQ_ReqAverageConfig(SEQ_Num, InitStruct->ReqAverage);
80003d0c:	fd842783          	lw	a5,-40(s0)
80003d10:	57dc                	lw	a5,44(a5)
80003d12:	85be                	mv	a1,a5
80003d14:	fdc42503          	lw	a0,-36(s0)
80003d18:	3cf9                	jal	800037f6 <ADCSAR_SEQ_ReqAverageConfig>
    ADCSAR_SEQ_ReqAverageCmd(SEQ_Num, InitStruct->ReqAverageEn);
80003d1a:	fd842783          	lw	a5,-40(s0)
80003d1e:	5b9c                	lw	a5,48(a5)
80003d20:	85be                	mv	a1,a5
80003d22:	fdc42503          	lw	a0,-36(s0)
80003d26:	360d                	jal	80003848 <ADCSAR_SEQ_ReqAverageCmd>
    ADCSAR_SEQ_RestartConfig(SEQ_Num, InitStruct->RestartCount);
80003d28:	fd842783          	lw	a5,-40(s0)
80003d2c:	5bdc                	lw	a5,52(a5)
80003d2e:	85be                	mv	a1,a5
80003d30:	fdc42503          	lw	a0,-36(s0)
80003d34:	36cd                	jal	80003916 <ADCSAR_SEQ_RestartConfig>
    ADCSAR_SEQ_RestartAverageCmd(SEQ_Num, InitStruct->RestartAverageEn);
80003d36:	fd842783          	lw	a5,-40(s0)
80003d3a:	5f9c                	lw	a5,56(a5)
80003d3c:	85be                	mv	a1,a5
80003d3e:	fdc42503          	lw	a0,-36(s0)
80003d42:	3121                	jal	8000394a <ADCSAR_SEQ_RestartAverageCmd>
    ADCSAR_SEQ_SetRestartTimer(SEQ_Num, InitStruct->RestartTimer);
80003d44:	fd842783          	lw	a5,-40(s0)
80003d48:	5fdc                	lw	a5,60(a5)
80003d4a:	85be                	mv	a1,a5
80003d4c:	fdc42503          	lw	a0,-36(s0)
80003d50:	3979                	jal	800039ee <ADCSAR_SEQ_SetRestartTimer>
    for (uint32_t i = 0; i < ADCSAR_DC_Total; i++) {
80003d52:	fe042423          	sw	zero,-24(s0)
80003d56:	a025                	j	80003d7e <ADCSAR_SEQ_Init+0xe0>
        ADCSAR_SEQ_DCEnableCmd(SEQ_Num, (ADCSAR_DC_Num_TypeDef)i, InitStruct->DCEn[i]);
80003d58:	fd842703          	lw	a4,-40(s0)
80003d5c:	fe842783          	lw	a5,-24(s0)
80003d60:	07c1                	addi	a5,a5,16
80003d62:	078a                	slli	a5,a5,0x2
80003d64:	97ba                	add	a5,a5,a4
80003d66:	439c                	lw	a5,0(a5)
80003d68:	863e                	mv	a2,a5
80003d6a:	fe842583          	lw	a1,-24(s0)
80003d6e:	fdc42503          	lw	a0,-36(s0)
80003d72:	3929                	jal	8000398c <ADCSAR_SEQ_DCEnableCmd>
    for (uint32_t i = 0; i < ADCSAR_DC_Total; i++) {
80003d74:	fe842783          	lw	a5,-24(s0)
80003d78:	0785                	addi	a5,a5,1
80003d7a:	fef42423          	sw	a5,-24(s0)
80003d7e:	fe842703          	lw	a4,-24(s0)
80003d82:	479d                	li	a5,7
80003d84:	fce7fae3          	bgeu	a5,a4,80003d58 <ADCSAR_SEQ_Init+0xba>
    }
    ADCSAR_SEQ_DMAConfig(SEQ_Num, InitStruct->DMAFIFOLevel);
80003d88:	fd842783          	lw	a5,-40(s0)
80003d8c:	53bc                	lw	a5,96(a5)
80003d8e:	85be                	mv	a1,a5
80003d90:	fdc42503          	lw	a0,-36(s0)
80003d94:	3ced                	jal	8000388e <ADCSAR_SEQ_DMAConfig>
    ADCSAR_SEQ_DMACmd(SEQ_Num, InitStruct->DMAEn);
80003d96:	fd842783          	lw	a5,-40(s0)
80003d9a:	53fc                	lw	a5,100(a5)
80003d9c:	85be                	mv	a1,a5
80003d9e:	fdc42503          	lw	a0,-36(s0)
80003da2:	3e0d                	jal	800038d4 <ADCSAR_SEQ_DMACmd>
}
80003da4:	0001                	nop
80003da6:	50b2                	lw	ra,44(sp)
80003da8:	5422                	lw	s0,40(sp)
80003daa:	6145                	addi	sp,sp,48
80003dac:	8082                	ret

80003dae <ADCSAR_SEQ_StructInit>:
  * @param   InitStruct  Указатель на структуру типа @ref ADCSAR_SEQ_Init_TypeDef,
  *                      которую необходимо проинициализировать
  * @retval  void
  */
void ADCSAR_SEQ_StructInit(ADCSAR_SEQ_Init_TypeDef* InitStruct)
{
80003dae:	7179                	addi	sp,sp,-48
80003db0:	d622                	sw	s0,44(sp)
80003db2:	1800                	addi	s0,sp,48
80003db4:	fca42e23          	sw	a0,-36(s0)
    InitStruct->StartEvent = ADCSAR_SEQ_StartEvent_SwReq;
80003db8:	fdc42783          	lw	a5,-36(s0)
80003dbc:	0007a023          	sw	zero,0(a5)
    InitStruct->SWStartEn = DISABLE;
80003dc0:	fdc42783          	lw	a5,-36(s0)
80003dc4:	0007a223          	sw	zero,4(a5)
    for (uint32_t i = 0; i < ADCSAR_SEQ_Req_Total; i++) {
80003dc8:	fe042623          	sw	zero,-20(s0)
80003dcc:	a831                	j	80003de8 <ADCSAR_SEQ_StructInit+0x3a>
        InitStruct->Req[i] = ADCSAR_CH_Num_0;
80003dce:	fdc42703          	lw	a4,-36(s0)
80003dd2:	fec42783          	lw	a5,-20(s0)
80003dd6:	078a                	slli	a5,a5,0x2
80003dd8:	97ba                	add	a5,a5,a4
80003dda:	0007a423          	sw	zero,8(a5)
    for (uint32_t i = 0; i < ADCSAR_SEQ_Req_Total; i++) {
80003dde:	fec42783          	lw	a5,-20(s0)
80003de2:	0785                	addi	a5,a5,1
80003de4:	fef42623          	sw	a5,-20(s0)
80003de8:	fec42703          	lw	a4,-20(s0)
80003dec:	479d                	li	a5,7
80003dee:	fee7f0e3          	bgeu	a5,a4,80003dce <ADCSAR_SEQ_StructInit+0x20>
    }
    InitStruct->ReqMax = ADCSAR_SEQ_ReqNum_0;
80003df2:	fdc42783          	lw	a5,-36(s0)
80003df6:	0207a423          	sw	zero,40(a5)
    InitStruct->ReqAverage = ADCSAR_SEQ_Average_2;
80003dfa:	fdc42783          	lw	a5,-36(s0)
80003dfe:	4705                	li	a4,1
80003e00:	d7d8                	sw	a4,44(a5)
    InitStruct->ReqAverageEn = DISABLE;
80003e02:	fdc42783          	lw	a5,-36(s0)
80003e06:	0207a823          	sw	zero,48(a5)
    InitStruct->RestartCount = 0;
80003e0a:	fdc42783          	lw	a5,-36(s0)
80003e0e:	0207aa23          	sw	zero,52(a5)
    InitStruct->RestartAverageEn = DISABLE;
80003e12:	fdc42783          	lw	a5,-36(s0)
80003e16:	0207ac23          	sw	zero,56(a5)
    InitStruct->RestartTimer = 0;
80003e1a:	fdc42783          	lw	a5,-36(s0)
80003e1e:	0207ae23          	sw	zero,60(a5)
    for (uint32_t i = 0; i < ADCSAR_DC_Total; i++) {
80003e22:	fe042423          	sw	zero,-24(s0)
80003e26:	a839                	j	80003e44 <ADCSAR_SEQ_StructInit+0x96>
        InitStruct->DCEn[i] = DISABLE;
80003e28:	fdc42703          	lw	a4,-36(s0)
80003e2c:	fe842783          	lw	a5,-24(s0)
80003e30:	07c1                	addi	a5,a5,16
80003e32:	078a                	slli	a5,a5,0x2
80003e34:	97ba                	add	a5,a5,a4
80003e36:	0007a023          	sw	zero,0(a5)
    for (uint32_t i = 0; i < ADCSAR_DC_Total; i++) {
80003e3a:	fe842783          	lw	a5,-24(s0)
80003e3e:	0785                	addi	a5,a5,1
80003e40:	fef42423          	sw	a5,-24(s0)
80003e44:	fe842703          	lw	a4,-24(s0)
80003e48:	479d                	li	a5,7
80003e4a:	fce7ffe3          	bgeu	a5,a4,80003e28 <ADCSAR_SEQ_StructInit+0x7a>
    }
    InitStruct->DMAFIFOLevel = ADCSAR_SEQ_DMAFIFOLevel_1;
80003e4e:	fdc42783          	lw	a5,-36(s0)
80003e52:	4705                	li	a4,1
80003e54:	d3b8                	sw	a4,96(a5)
    InitStruct->DMAEn = DISABLE;
80003e56:	fdc42783          	lw	a5,-36(s0)
80003e5a:	0607a223          	sw	zero,100(a5)
}
80003e5e:	0001                	nop
80003e60:	5432                	lw	s0,44(sp)
80003e62:	6145                	addi	sp,sp,48
80003e64:	8082                	ret

80003e66 <ADCSAR_DC_Init>:
  * @param   InitStruct  Указатель на структуру типа @ref ADCSAR_DC_Init_TypeDef,
  *                      которая содержит конфигурационную информацию
  * @retval  void
  */
void ADCSAR_DC_Init(ADCSAR_DC_Num_TypeDef DC_Num, ADCSAR_DC_Init_TypeDef* InitStruct)
{
80003e66:	1101                	addi	sp,sp,-32
80003e68:	ce06                	sw	ra,28(sp)
80003e6a:	cc22                	sw	s0,24(sp)
80003e6c:	1000                	addi	s0,sp,32
80003e6e:	fea42623          	sw	a0,-20(s0)
80003e72:	feb42423          	sw	a1,-24(s0)
    ADCSAR_DC_OutputCmd(DC_Num, InitStruct->DCOutput);
80003e76:	fe842783          	lw	a5,-24(s0)
80003e7a:	439c                	lw	a5,0(a5)
80003e7c:	85be                	mv	a1,a5
80003e7e:	fec42503          	lw	a0,-20(s0)
80003e82:	3e5d                	jal	80003a38 <ADCSAR_DC_OutputCmd>
    ADCSAR_DC_SetThresholdLow(DC_Num, InitStruct->ThresholdLow);
80003e84:	fe842783          	lw	a5,-24(s0)
80003e88:	43dc                	lw	a5,4(a5)
80003e8a:	85be                	mv	a1,a5
80003e8c:	fec42503          	lw	a0,-20(s0)
80003e90:	31dd                	jal	80003b76 <ADCSAR_DC_SetThresholdLow>
    ADCSAR_DC_SetThresholdHigh(DC_Num, InitStruct->ThresholdHigh);
80003e92:	fe842783          	lw	a5,-24(s0)
80003e96:	479c                	lw	a5,8(a5)
80003e98:	85be                	mv	a1,a5
80003e9a:	fec42503          	lw	a0,-20(s0)
80003e9e:	331d                	jal	80003bc4 <ADCSAR_DC_SetThresholdHigh>
    ADCSAR_DC_SourceConfig(DC_Num, InitStruct->Source);
80003ea0:	fe842783          	lw	a5,-24(s0)
80003ea4:	47dc                	lw	a5,12(a5)
80003ea6:	85be                	mv	a1,a5
80003ea8:	fec42503          	lw	a0,-20(s0)
80003eac:	3ed1                	jal	80003a80 <ADCSAR_DC_SourceConfig>
    ADCSAR_DC_ChannelConfig(DC_Num, InitStruct->Channel);
80003eae:	fe842783          	lw	a5,-24(s0)
80003eb2:	4b9c                	lw	a5,16(a5)
80003eb4:	85be                	mv	a1,a5
80003eb6:	fec42503          	lw	a0,-20(s0)
80003eba:	3901                	jal	80003aca <ADCSAR_DC_ChannelConfig>
    ADCSAR_DC_Config(DC_Num, InitStruct->Mode, InitStruct->Condition);
80003ebc:	fe842783          	lw	a5,-24(s0)
80003ec0:	4bd8                	lw	a4,20(a5)
80003ec2:	fe842783          	lw	a5,-24(s0)
80003ec6:	4f9c                	lw	a5,24(a5)
80003ec8:	863e                	mv	a2,a5
80003eca:	85ba                	mv	a1,a4
80003ecc:	fec42503          	lw	a0,-20(s0)
80003ed0:	3191                	jal	80003b14 <ADCSAR_DC_Config>
}
80003ed2:	0001                	nop
80003ed4:	40f2                	lw	ra,28(sp)
80003ed6:	4462                	lw	s0,24(sp)
80003ed8:	6105                	addi	sp,sp,32
80003eda:	8082                	ret

80003edc <ADCSAR_DC_StructInit>:
  * @param   InitStruct  Указатель на структуру типа @ref ADCSAR_DC_Init_TypeDef,
  *                      которую необходимо проинициализировать
  * @retval  void
  */
void ADCSAR_DC_StructInit(ADCSAR_DC_Init_TypeDef* InitStruct)
{
80003edc:	1101                	addi	sp,sp,-32
80003ede:	ce22                	sw	s0,28(sp)
80003ee0:	1000                	addi	s0,sp,32
80003ee2:	fea42623          	sw	a0,-20(s0)
    InitStruct->DCOutput = DISABLE;
80003ee6:	fec42783          	lw	a5,-20(s0)
80003eea:	0007a023          	sw	zero,0(a5)
    InitStruct->ThresholdLow = 0;
80003eee:	fec42783          	lw	a5,-20(s0)
80003ef2:	0007a223          	sw	zero,4(a5)
    InitStruct->ThresholdHigh = 0;
80003ef6:	fec42783          	lw	a5,-20(s0)
80003efa:	0007a423          	sw	zero,8(a5)
    InitStruct->Source = ADCSAR_DC_Source_EOC;
80003efe:	fec42783          	lw	a5,-20(s0)
80003f02:	0007a623          	sw	zero,12(a5)
    InitStruct->Channel = ADCSAR_CH_Num_0;
80003f06:	fec42783          	lw	a5,-20(s0)
80003f0a:	0007a823          	sw	zero,16(a5)
    InitStruct->Mode = ADCSAR_DC_Mode_Multiple;
80003f0e:	fec42783          	lw	a5,-20(s0)
80003f12:	0007aa23          	sw	zero,20(a5)
    InitStruct->Condition = ADCSAR_DC_Condition_Low;
80003f16:	fec42783          	lw	a5,-20(s0)
80003f1a:	0007ac23          	sw	zero,24(a5)
}
80003f1e:	0001                	nop
80003f20:	4472                	lw	s0,28(sp)
80003f22:	6105                	addi	sp,sp,32
80003f24:	8082                	ret

80003f26 <RCU_ADCSDRstCmd>:
  * @brief   Cнятие сброса АЦП сигма-дельта
  * @param   State  Выбор состояния
  * @retval  void
  */
__STATIC_INLINE void RCU_ADCSDRstCmd(FunctionalState State)
{
80003f26:	1101                	addi	sp,sp,-32
80003f28:	ce22                	sw	s0,28(sp)
80003f2a:	1000                	addi	s0,sp,32
80003f2c:	fea42623          	sw	a0,-20(s0)
    assert_param(IS_FUNCTIONAL_STATE(State));

    WRITE_REG(RCU->ADCSDCLKCFG_bit.RSTDIS, State);
80003f30:	3000e7b7          	lui	a5,0x3000e
80003f34:	fec42703          	lw	a4,-20(s0)
80003f38:	8b05                	andi	a4,a4,1
80003f3a:	0ff77713          	zext.b	a4,a4
80003f3e:	8b05                	andi	a4,a4,1
80003f40:	0722                	slli	a4,a4,0x8
80003f42:	0b47a683          	lw	a3,180(a5) # 3000e0b4 <STACK_SIZE+0x3000d8b4>
80003f46:	eff6f693          	andi	a3,a3,-257
80003f4a:	8f55                	or	a4,a4,a3
80003f4c:	0ae7aa23          	sw	a4,180(a5)
}
80003f50:	0001                	nop
80003f52:	4472                	lw	s0,28(sp)
80003f54:	6105                	addi	sp,sp,32
80003f56:	8082                	ret

80003f58 <ADCSD_WaitCycleCmd>:
  * @brief   Выбор количества тактов ожидания АЦП сигма-дельта
  * @param   waitClkAmount Количество тактов ожидания
  * @retval  void
  */
__STATIC_INLINE void ADCSD_WaitCycleCmd(uint32_t WaitCycle)
{
80003f58:	1101                	addi	sp,sp,-32
80003f5a:	ce22                	sw	s0,28(sp)
80003f5c:	1000                	addi	s0,sp,32
80003f5e:	fea42623          	sw	a0,-20(s0)
	assert_param(IS_ADCSD_WTCYC(WaitCycle));

	MODIFY_REG(ADCSD->CTRL, ADCSD_CTRL_WTCYC_Msk, WaitCycle << ADCSD_CTRL_WTCYC_Pos);
80003f62:	300127b7          	lui	a5,0x30012
80003f66:	4398                	lw	a4,0(a5)
80003f68:	fff907b7          	lui	a5,0xfff90
80003f6c:	17fd                	addi	a5,a5,-1 # fff8ffff <__data_source_start+0x7ff886b7>
80003f6e:	00f776b3          	and	a3,a4,a5
80003f72:	fec42783          	lw	a5,-20(s0)
80003f76:	01079713          	slli	a4,a5,0x10
80003f7a:	300127b7          	lui	a5,0x30012
80003f7e:	8f55                	or	a4,a4,a3
80003f80:	c398                	sw	a4,0(a5)
}
80003f82:	0001                	nop
80003f84:	4472                	lw	s0,28(sp)
80003f86:	6105                	addi	sp,sp,32
80003f88:	8082                	ret

80003f8a <ADCSD_MainDivCmd>:
  * @brief   Выбор основного делителя частоты АЦП сигма-дельта
  * @param   mainDiv Значение основного делителя частоты
  * @retval  void
  */
__STATIC_INLINE void ADCSD_MainDivCmd(ADCSD_MainDiv_TypeDef mainDiv)
{
80003f8a:	1101                	addi	sp,sp,-32
80003f8c:	ce22                	sw	s0,28(sp)
80003f8e:	1000                	addi	s0,sp,32
80003f90:	fea42623          	sw	a0,-20(s0)
	assert_param(IS_ADCSD_MAINDIV(mainDiv));

	MODIFY_REG(ADCSD->CTRL, ADCSD_CTRL_MDC_Msk, mainDiv << ADCSD_CTRL_MDC_Pos);
80003f94:	300127b7          	lui	a5,0x30012
80003f98:	4398                	lw	a4,0(a5)
80003f9a:	77e5                	lui	a5,0xffff9
80003f9c:	17fd                	addi	a5,a5,-1 # ffff8fff <__data_source_start+0x7fff16b7>
80003f9e:	00f776b3          	and	a3,a4,a5
80003fa2:	fec42783          	lw	a5,-20(s0)
80003fa6:	00c79713          	slli	a4,a5,0xc
80003faa:	300127b7          	lui	a5,0x30012
80003fae:	8f55                	or	a4,a4,a3
80003fb0:	c398                	sw	a4,0(a5)
}
80003fb2:	0001                	nop
80003fb4:	4472                	lw	s0,28(sp)
80003fb6:	6105                	addi	sp,sp,32
80003fb8:	8082                	ret

80003fba <ADCSD_SampleDivCmd>:
  * @brief   Выбор делителя коэффициента прореживания АЦП сигма-дельта
  * @param   sampleDiv Значение делителя коэффициента прореживания
  * @retval  void
  */
__STATIC_INLINE void ADCSD_SampleDivCmd(ADCSD_SamleDiv_TypeDef sampleDiv)
{
80003fba:	1101                	addi	sp,sp,-32
80003fbc:	ce22                	sw	s0,28(sp)
80003fbe:	1000                	addi	s0,sp,32
80003fc0:	fea42623          	sw	a0,-20(s0)
	assert_param(IS_ADCSD_SAMPLEDIV(sampleDiv));

	MODIFY_REG(ADCSD->CTRL, ADCSD_CTRL_DR_Msk, sampleDiv << ADCSD_CTRL_DR_Pos);
80003fc4:	300127b7          	lui	a5,0x30012
80003fc8:	439c                	lw	a5,0(a5)
80003fca:	cff7f693          	andi	a3,a5,-769
80003fce:	fec42783          	lw	a5,-20(s0)
80003fd2:	00879713          	slli	a4,a5,0x8
80003fd6:	300127b7          	lui	a5,0x30012
80003fda:	8f55                	or	a4,a4,a3
80003fdc:	c398                	sw	a4,0(a5)
}
80003fde:	0001                	nop
80003fe0:	4472                	lw	s0,28(sp)
80003fe2:	6105                	addi	sp,sp,32
80003fe4:	8082                	ret

80003fe6 <ADCSD_SetMode>:
  * @param   ch_num Выбор канала АЦП
  * @param   mode Выбор режима
  * @retval  void
  */
__STATIC_INLINE void ADCSD_SetMode(ADCSD_CH_Num_TypeDef ch_num, ADCSD_MODE_TypeDef mode)
{
80003fe6:	1101                	addi	sp,sp,-32
80003fe8:	ce22                	sw	s0,28(sp)
80003fea:	1000                	addi	s0,sp,32
80003fec:	fea42623          	sw	a0,-20(s0)
80003ff0:	feb42423          	sw	a1,-24(s0)
	assert_param(IS_ADCSD_CH_NUM(ch_num));
	assert_param(IS_ADCSD_MODE(mode));

	MODIFY_REG(ADCSD->MODE, ADCSD_MODE_CH0_Msk << ((uint32_t)ch_num << 2), mode << ((uint32_t)ch_num << 2));
80003ff4:	300127b7          	lui	a5,0x30012
80003ff8:	43d8                	lw	a4,4(a5)
80003ffa:	fec42783          	lw	a5,-20(s0)
80003ffe:	078a                	slli	a5,a5,0x2
80004000:	468d                	li	a3,3
80004002:	00f697b3          	sll	a5,a3,a5
80004006:	fff7c793          	not	a5,a5
8000400a:	00f776b3          	and	a3,a4,a5
8000400e:	fec42783          	lw	a5,-20(s0)
80004012:	078a                	slli	a5,a5,0x2
80004014:	fe842703          	lw	a4,-24(s0)
80004018:	00f71733          	sll	a4,a4,a5
8000401c:	300127b7          	lui	a5,0x30012
80004020:	8f55                	or	a4,a4,a3
80004022:	c3d8                	sw	a4,4(a5)
}
80004024:	0001                	nop
80004026:	4472                	lw	s0,28(sp)
80004028:	6105                	addi	sp,sp,32
8000402a:	8082                	ret

8000402c <ADCSD_SetAmplification>:
  * @param   ch_num Выбор канала АЦП сигма-дельта
  * @param 	 ampl Выбор усиления канала
  * @retval  void
  */
__STATIC_INLINE void ADCSD_SetAmplification(ADCSD_CH_Num_TypeDef ch_num, ADCSD_AMPL_TypeDef ampl)
{
8000402c:	1101                	addi	sp,sp,-32
8000402e:	ce22                	sw	s0,28(sp)
80004030:	1000                	addi	s0,sp,32
80004032:	fea42623          	sw	a0,-20(s0)
80004036:	feb42423          	sw	a1,-24(s0)
	assert_param(IS_ADCSD_CH_NUM(ch_num));
	assert_param(IS_ADCSD_AMPL(ampl));

	MODIFY_REG(ADCSD->AMPL, ADCSD_AMPL_CH0_Msk << ((uint32_t)ch_num << 2), (uint32_t)ampl << ((uint32_t)ch_num << 2));
8000403a:	300127b7          	lui	a5,0x30012
8000403e:	4798                	lw	a4,8(a5)
80004040:	fec42783          	lw	a5,-20(s0)
80004044:	078a                	slli	a5,a5,0x2
80004046:	469d                	li	a3,7
80004048:	00f697b3          	sll	a5,a3,a5
8000404c:	fff7c793          	not	a5,a5
80004050:	00f776b3          	and	a3,a4,a5
80004054:	fec42783          	lw	a5,-20(s0)
80004058:	078a                	slli	a5,a5,0x2
8000405a:	fe842703          	lw	a4,-24(s0)
8000405e:	00f71733          	sll	a4,a4,a5
80004062:	300127b7          	lui	a5,0x30012
80004066:	8f55                	or	a4,a4,a3
80004068:	c798                	sw	a4,8(a5)
}
8000406a:	0001                	nop
8000406c:	4472                	lw	s0,28(sp)
8000406e:	6105                	addi	sp,sp,32
80004070:	8082                	ret

80004072 <ADCSD_DeInit>:
/**
  * @brief   Устанавливает все регистры ADCSD значениями по умолчанию
  * @retval  void
  */
void ADCSD_DeInit(void)
{
80004072:	1141                	addi	sp,sp,-16
80004074:	c606                	sw	ra,12(sp)
80004076:	c422                	sw	s0,8(sp)
80004078:	0800                	addi	s0,sp,16
    RCU_ADCSDRstCmd(DISABLE);
8000407a:	4501                	li	a0,0
8000407c:	356d                	jal	80003f26 <RCU_ADCSDRstCmd>
    RCU_ADCSDRstCmd(ENABLE);
8000407e:	4505                	li	a0,1
80004080:	355d                	jal	80003f26 <RCU_ADCSDRstCmd>
}
80004082:	0001                	nop
80004084:	40b2                	lw	ra,12(sp)
80004086:	4422                	lw	s0,8(sp)
80004088:	0141                	addi	sp,sp,16
8000408a:	8082                	ret

8000408c <ADCSD_Init>:
  * @param   InitStruct  Указатель на структуру типа @ref ADCSD_Init_TypeDef,
  *                      которая содержит конфигурационную информацию
  * @retval  void
  */
void ADCSD_Init(ADCSD_Init_TypeDef* InitStruct)
{
8000408c:	1101                	addi	sp,sp,-32
8000408e:	ce06                	sw	ra,28(sp)
80004090:	cc22                	sw	s0,24(sp)
80004092:	1000                	addi	s0,sp,32
80004094:	fea42623          	sw	a0,-20(s0)
	ADCSD_WaitCycleCmd(InitStruct->WaitCycle);
80004098:	fec42783          	lw	a5,-20(s0)
8000409c:	439c                	lw	a5,0(a5)
8000409e:	853e                	mv	a0,a5
800040a0:	3d65                	jal	80003f58 <ADCSD_WaitCycleCmd>
	ADCSD_MainDivCmd(InitStruct->MainDiv);
800040a2:	fec42783          	lw	a5,-20(s0)
800040a6:	43dc                	lw	a5,4(a5)
800040a8:	853e                	mv	a0,a5
800040aa:	35c5                	jal	80003f8a <ADCSD_MainDivCmd>
	ADCSD_SampleDivCmd(InitStruct->SampleDiv);
800040ac:	fec42783          	lw	a5,-20(s0)
800040b0:	479c                	lw	a5,8(a5)
800040b2:	853e                	mv	a0,a5
800040b4:	3719                	jal	80003fba <ADCSD_SampleDivCmd>
}
800040b6:	0001                	nop
800040b8:	40f2                	lw	ra,28(sp)
800040ba:	4462                	lw	s0,24(sp)
800040bc:	6105                	addi	sp,sp,32
800040be:	8082                	ret

800040c0 <ADCSD_StructInit>:
  * @param   InitStruct  Указатель на структуру типа @ref ADCSD_Init_TypeDef,
  *                      которую необходимо проинициализировать
  * @retval  void
  */
void ADCSD_StructInit(ADCSD_Init_TypeDef* InitStruct)
{
800040c0:	1101                	addi	sp,sp,-32
800040c2:	ce22                	sw	s0,28(sp)
800040c4:	1000                	addi	s0,sp,32
800040c6:	fea42623          	sw	a0,-20(s0)
	InitStruct->MainDiv = 0x0;
800040ca:	fec42783          	lw	a5,-20(s0)
800040ce:	0007a223          	sw	zero,4(a5) # 30012004 <STACK_SIZE+0x30011804>
	InitStruct->SampleDiv = 0x0;
800040d2:	fec42783          	lw	a5,-20(s0)
800040d6:	0007a423          	sw	zero,8(a5)
	InitStruct->WaitCycle = 0x0;
800040da:	fec42783          	lw	a5,-20(s0)
800040de:	0007a023          	sw	zero,0(a5)
}
800040e2:	0001                	nop
800040e4:	4472                	lw	s0,28(sp)
800040e6:	6105                	addi	sp,sp,32
800040e8:	8082                	ret

800040ea <ADCSD_CH_Init>:
  * @param   InitStruct  Указатель на структуру типа @ref ADCSD_CH_Init_TypeDef,
  *                      которая содержит конфигурационную информацию
  * @retval  void
  */
void ADCSD_CH_Init(ADCSD_CH_Num_TypeDef ch_num, ADCSD_CH_Init_TypeDef* InitStruct)
{
800040ea:	1101                	addi	sp,sp,-32
800040ec:	ce06                	sw	ra,28(sp)
800040ee:	cc22                	sw	s0,24(sp)
800040f0:	1000                	addi	s0,sp,32
800040f2:	fea42623          	sw	a0,-20(s0)
800040f6:	feb42423          	sw	a1,-24(s0)
	ADCSD_SetMode(ch_num, InitStruct->Mode);
800040fa:	fe842783          	lw	a5,-24(s0)
800040fe:	439c                	lw	a5,0(a5)
80004100:	85be                	mv	a1,a5
80004102:	fec42503          	lw	a0,-20(s0)
80004106:	35c5                	jal	80003fe6 <ADCSD_SetMode>
	ADCSD_SetAmplification(ch_num, InitStruct->Amplifier);
80004108:	fe842783          	lw	a5,-24(s0)
8000410c:	43dc                	lw	a5,4(a5)
8000410e:	85be                	mv	a1,a5
80004110:	fec42503          	lw	a0,-20(s0)
80004114:	3f21                	jal	8000402c <ADCSD_SetAmplification>
}
80004116:	0001                	nop
80004118:	40f2                	lw	ra,28(sp)
8000411a:	4462                	lw	s0,24(sp)
8000411c:	6105                	addi	sp,sp,32
8000411e:	8082                	ret

80004120 <ADCSD_CH_StructInit>:
  * @param   InitStruct  Указатель на структуру типа @ref ADCSD_CH_Init_TypeDef,
  *                      которую необходимо проинициализировать
  * @retval  void
  */
void ADCSD_CH_StructInit(ADCSD_CH_Init_TypeDef* InitStruct)
{
80004120:	1101                	addi	sp,sp,-32
80004122:	ce22                	sw	s0,28(sp)
80004124:	1000                	addi	s0,sp,32
80004126:	fea42623          	sw	a0,-20(s0)
	InitStruct->Amplifier = 0x0;
8000412a:	fec42783          	lw	a5,-20(s0)
8000412e:	0007a223          	sw	zero,4(a5)
	InitStruct->Mode = 0x1;
80004132:	fec42783          	lw	a5,-20(s0)
80004136:	4705                	li	a4,1
80004138:	c398                	sw	a4,0(a5)
}
8000413a:	0001                	nop
8000413c:	4472                	lw	s0,28(sp)
8000413e:	6105                	addi	sp,sp,32
80004140:	8082                	ret

80004142 <RCU_AHBRstCmd>:
{
80004142:	1101                	addi	sp,sp,-32
80004144:	ce22                	sw	s0,28(sp)
80004146:	1000                	addi	s0,sp,32
80004148:	fea42623          	sw	a0,-20(s0)
8000414c:	feb42423          	sw	a1,-24(s0)
    MODIFY_REG(RCU->RSTDISAHB, AHBRst, State ? AHBRst : 0);
80004150:	3000e7b7          	lui	a5,0x3000e
80004154:	4b98                	lw	a4,16(a5)
80004156:	fec42783          	lw	a5,-20(s0)
8000415a:	fff7c793          	not	a5,a5
8000415e:	00f776b3          	and	a3,a4,a5
80004162:	fe842783          	lw	a5,-24(s0)
80004166:	c781                	beqz	a5,8000416e <RCU_AHBRstCmd+0x2c>
80004168:	fec42783          	lw	a5,-20(s0)
8000416c:	a011                	j	80004170 <RCU_AHBRstCmd+0x2e>
8000416e:	4781                	li	a5,0
80004170:	3000e737          	lui	a4,0x3000e
80004174:	8fd5                	or	a5,a5,a3
80004176:	cb1c                	sw	a5,16(a4)
}
80004178:	0001                	nop
8000417a:	4472                	lw	s0,28(sp)
8000417c:	6105                	addi	sp,sp,32
8000417e:	8082                	ret

80004180 <CRC_ResetCmd>:
  * @param	 CRCx Выбор модуля CRC, где x = 0 | 1
  * @param   state Бит сброса
  * @retval  void
  */
__STATIC_INLINE void CRC_ResetCmd(CRC_TypeDef* CRCx, FunctionalState state)
{
80004180:	1101                	addi	sp,sp,-32
80004182:	ce22                	sw	s0,28(sp)
80004184:	1000                	addi	s0,sp,32
80004186:	fea42623          	sw	a0,-20(s0)
8000418a:	feb42423          	sw	a1,-24(s0)
	assert_param(IS_CRC_PERIPH(CRCx));
	assert_param(IS_FUNCTIONAL_STATE(state));

	MODIFY_REG(CRCx->CR, CRC_CR_RESET_Msk, state << CRC_CR_RESET_Pos);
8000418e:	fec42783          	lw	a5,-20(s0)
80004192:	479c                	lw	a5,8(a5)
80004194:	ffe7f713          	andi	a4,a5,-2
80004198:	fe842783          	lw	a5,-24(s0)
8000419c:	8f5d                	or	a4,a4,a5
8000419e:	fec42783          	lw	a5,-20(s0)
800041a2:	c798                	sw	a4,8(a5)
}
800041a4:	0001                	nop
800041a6:	4472                	lw	s0,28(sp)
800041a8:	6105                	addi	sp,sp,32
800041aa:	8082                	ret

800041ac <CRC_ModeCmd>:
  * @param	 CRCx Выбор модуля CRC, где x = 0 | 1
  * @param   state Выбор режима
  * @retval  void
  */
__STATIC_INLINE void CRC_ModeCmd(CRC_TypeDef* CRCx, FunctionalState state)
{
800041ac:	1101                	addi	sp,sp,-32
800041ae:	ce22                	sw	s0,28(sp)
800041b0:	1000                	addi	s0,sp,32
800041b2:	fea42623          	sw	a0,-20(s0)
800041b6:	feb42423          	sw	a1,-24(s0)
	assert_param(IS_CRC_PERIPH(CRCx));
	assert_param(IS_FUNCTIONAL_STATE(state));

	MODIFY_REG(CRCx->CR, CRC_CR_MODE_Msk, state << CRC_CR_MODE_Pos);
800041ba:	fec42783          	lw	a5,-20(s0)
800041be:	479c                	lw	a5,8(a5)
800041c0:	ffd7f713          	andi	a4,a5,-3
800041c4:	fe842783          	lw	a5,-24(s0)
800041c8:	0786                	slli	a5,a5,0x1
800041ca:	8f5d                	or	a4,a4,a5
800041cc:	fec42783          	lw	a5,-20(s0)
800041d0:	c798                	sw	a4,8(a5)
}
800041d2:	0001                	nop
800041d4:	4472                	lw	s0,28(sp)
800041d6:	6105                	addi	sp,sp,32
800041d8:	8082                	ret

800041da <CRC_XOROutCmd>:
  * @param	 CRCx Выбор модуля CRC, где x = 0 | 1
  * @param   state Выбор режима
  * @retval  void
  */
__STATIC_INLINE void CRC_XOROutCmd(CRC_TypeDef* CRCx, FunctionalState state)
{
800041da:	1101                	addi	sp,sp,-32
800041dc:	ce22                	sw	s0,28(sp)
800041de:	1000                	addi	s0,sp,32
800041e0:	fea42623          	sw	a0,-20(s0)
800041e4:	feb42423          	sw	a1,-24(s0)
	assert_param(IS_CRC_PERIPH(CRCx));
	assert_param(IS_FUNCTIONAL_STATE(state));

	MODIFY_REG(CRCx->CR, CRC_CR_XOROUT_Msk, state << CRC_CR_XOROUT_Pos);
800041e8:	fec42783          	lw	a5,-20(s0)
800041ec:	479c                	lw	a5,8(a5)
800041ee:	ffb7f713          	andi	a4,a5,-5
800041f2:	fe842783          	lw	a5,-24(s0)
800041f6:	078a                	slli	a5,a5,0x2
800041f8:	8f5d                	or	a4,a4,a5
800041fa:	fec42783          	lw	a5,-20(s0)
800041fe:	c798                	sw	a4,8(a5)
}
80004200:	0001                	nop
80004202:	4472                	lw	s0,28(sp)
80004204:	6105                	addi	sp,sp,32
80004206:	8082                	ret

80004208 <CRC_SetPolysize>:
  * @param	 CRCx Выбор модуля CRC, где x = 0 | 1
  * @param   polysize размер порождающего полинома
  * @retval  void
  */
__STATIC_INLINE void CRC_SetPolysize(CRC_TypeDef* CRCx, CRC_POLYSIZE_TypeDef polysize)
{
80004208:	1101                	addi	sp,sp,-32
8000420a:	ce22                	sw	s0,28(sp)
8000420c:	1000                	addi	s0,sp,32
8000420e:	fea42623          	sw	a0,-20(s0)
80004212:	feb42423          	sw	a1,-24(s0)
	assert_param(IS_CRC_PERIPH(CRCx));
	assert_param(IS_CRC_POLYSIZE(polysize));

	MODIFY_REG(CRCx->CR, CRC_CR_POLYSIZE_Msk, polysize << CRC_CR_POLYSIZE_Pos);
80004216:	fec42783          	lw	a5,-20(s0)
8000421a:	479c                	lw	a5,8(a5)
8000421c:	fe77f713          	andi	a4,a5,-25
80004220:	fe842783          	lw	a5,-24(s0)
80004224:	078e                	slli	a5,a5,0x3
80004226:	8f5d                	or	a4,a4,a5
80004228:	fec42783          	lw	a5,-20(s0)
8000422c:	c798                	sw	a4,8(a5)
}
8000422e:	0001                	nop
80004230:	4472                	lw	s0,28(sp)
80004232:	6105                	addi	sp,sp,32
80004234:	8082                	ret

80004236 <CRC_SetRevIn>:
  * @param	 CRCx Выбор модуля CRC, где x = 0 | 1
  * @param   revin Обращение входных данных
  * @retval  void
  */
__STATIC_INLINE void CRC_SetRevIn(CRC_TypeDef* CRCx, CRC_REV_IN_TypeDef revin)
{
80004236:	1101                	addi	sp,sp,-32
80004238:	ce22                	sw	s0,28(sp)
8000423a:	1000                	addi	s0,sp,32
8000423c:	fea42623          	sw	a0,-20(s0)
80004240:	feb42423          	sw	a1,-24(s0)
	assert_param(IS_CRC_PERIPH(CRCx));
	assert_param(IS_CRC_REV_IN(revin));

	MODIFY_REG(CRCx->CR, CRC_CR_REV_IN_Msk, revin << CRC_CR_REV_IN_Pos);
80004244:	fec42783          	lw	a5,-20(s0)
80004248:	479c                	lw	a5,8(a5)
8000424a:	f9f7f713          	andi	a4,a5,-97
8000424e:	fe842783          	lw	a5,-24(s0)
80004252:	0796                	slli	a5,a5,0x5
80004254:	8f5d                	or	a4,a4,a5
80004256:	fec42783          	lw	a5,-20(s0)
8000425a:	c798                	sw	a4,8(a5)
}
8000425c:	0001                	nop
8000425e:	4472                	lw	s0,28(sp)
80004260:	6105                	addi	sp,sp,32
80004262:	8082                	ret

80004264 <CRC_RevOutCmd>:
  * @param	 CRCx Выбор модуля CRC, где x = 0 | 1
  * @param	 state бит обращения выходных данных
  * @retval  void
  */
__STATIC_INLINE void CRC_RevOutCmd(CRC_TypeDef* CRCx, FunctionalState state)
{
80004264:	1101                	addi	sp,sp,-32
80004266:	ce22                	sw	s0,28(sp)
80004268:	1000                	addi	s0,sp,32
8000426a:	fea42623          	sw	a0,-20(s0)
8000426e:	feb42423          	sw	a1,-24(s0)
	assert_param(IS_CRC_PERIPH(CRCx));
	assert_param(IS_FUNCTIONAL_STATE(state));

	MODIFY_REG(CRCx->CR, CRC_CR_REV_OUT_Msk, state << CRC_CR_REV_OUT_Pos);
80004272:	fec42783          	lw	a5,-20(s0)
80004276:	479c                	lw	a5,8(a5)
80004278:	f7f7f713          	andi	a4,a5,-129
8000427c:	fe842783          	lw	a5,-24(s0)
80004280:	079e                	slli	a5,a5,0x7
80004282:	8f5d                	or	a4,a4,a5
80004284:	fec42783          	lw	a5,-20(s0)
80004288:	c798                	sw	a4,8(a5)
}
8000428a:	0001                	nop
8000428c:	4472                	lw	s0,28(sp)
8000428e:	6105                	addi	sp,sp,32
80004290:	8082                	ret

80004292 <CRC_SetInit>:
  * @param	 CRCx Выбор модуля CRC, где x = 0 | 1
  * @param   val Начальное значение блока
  * @retval  void
  */
__STATIC_INLINE void CRC_SetInit(CRC_TypeDef* CRCx, uint32_t val)
{
80004292:	1101                	addi	sp,sp,-32
80004294:	ce22                	sw	s0,28(sp)
80004296:	1000                	addi	s0,sp,32
80004298:	fea42623          	sw	a0,-20(s0)
8000429c:	feb42423          	sw	a1,-24(s0)
	assert_param(IS_CRC_PERIPH(CRCx));

	WRITE_REG(CRCx->INIT, val);
800042a0:	fec42783          	lw	a5,-20(s0)
800042a4:	fe842703          	lw	a4,-24(s0)
800042a8:	c7d8                	sw	a4,12(a5)
}
800042aa:	0001                	nop
800042ac:	4472                	lw	s0,28(sp)
800042ae:	6105                	addi	sp,sp,32
800042b0:	8082                	ret

800042b2 <CRC_SetPol>:
  * @param	 CRCx Выбор модуля CRC, где x = 0 | 1
  * @param   val Значение коэффициентов порождающего полинома
  * @retval  void
  */
__STATIC_INLINE void CRC_SetPol(CRC_TypeDef* CRCx, uint32_t val)
{
800042b2:	1101                	addi	sp,sp,-32
800042b4:	ce22                	sw	s0,28(sp)
800042b6:	1000                	addi	s0,sp,32
800042b8:	fea42623          	sw	a0,-20(s0)
800042bc:	feb42423          	sw	a1,-24(s0)
	assert_param(IS_CRC_PERIPH(CRCx));

	WRITE_REG(CRCx->POL, val);
800042c0:	fec42783          	lw	a5,-20(s0)
800042c4:	fe842703          	lw	a4,-24(s0)
800042c8:	cb98                	sw	a4,16(a5)
}
800042ca:	0001                	nop
800042cc:	4472                	lw	s0,28(sp)
800042ce:	6105                	addi	sp,sp,32
800042d0:	8082                	ret

800042d2 <CRC_DeInit>:
/**
  * @brief   Устанавливает все регистры CRC значениями по умолчанию
  * @retval  void
  */
void CRC_DeInit(CRC_TypeDef* CRCx)
{
800042d2:	7179                	addi	sp,sp,-48
800042d4:	d606                	sw	ra,44(sp)
800042d6:	d422                	sw	s0,40(sp)
800042d8:	1800                	addi	s0,sp,48
800042da:	fca42e23          	sw	a0,-36(s0)
	assert_param(IS_CRC_PERIPH(CRCx));

	CRC_ResetCmd(CRCx, ENABLE);
800042de:	4585                	li	a1,1
800042e0:	fdc42503          	lw	a0,-36(s0)
800042e4:	3d71                	jal	80004180 <CRC_ResetCmd>
	CRC_ResetCmd(CRCx, DISABLE);
800042e6:	4581                	li	a1,0
800042e8:	fdc42503          	lw	a0,-36(s0)
800042ec:	3d51                	jal	80004180 <CRC_ResetCmd>
	uint32_t CRC_num = (CRCx == CRC0) ? RCU_AHBRst_CRC0 : RCU_AHBRst_CRC1;
800042ee:	fdc42703          	lw	a4,-36(s0)
800042f2:	200307b7          	lui	a5,0x20030
800042f6:	00f71463          	bne	a4,a5,800042fe <CRC_DeInit+0x2c>
800042fa:	6785                	lui	a5,0x1
800042fc:	a011                	j	80004300 <CRC_DeInit+0x2e>
800042fe:	6789                	lui	a5,0x2
80004300:	fef42623          	sw	a5,-20(s0)
    RCU_AHBRstCmd(CRC_num, DISABLE);
80004304:	4581                	li	a1,0
80004306:	fec42503          	lw	a0,-20(s0)
8000430a:	3d25                	jal	80004142 <RCU_AHBRstCmd>
    RCU_AHBRstCmd(CRC_num, ENABLE);
8000430c:	4585                	li	a1,1
8000430e:	fec42503          	lw	a0,-20(s0)
80004312:	3d05                	jal	80004142 <RCU_AHBRstCmd>
}
80004314:	0001                	nop
80004316:	50b2                	lw	ra,44(sp)
80004318:	5422                	lw	s0,40(sp)
8000431a:	6145                	addi	sp,sp,48
8000431c:	8082                	ret

8000431e <CRC_Init>:
  * @param   InitStruct  Указатель на структуру типа @ref CRC_Init_TypeDef,
  *                      которая содержит конфигурационную информацию
  * @retval  void
  */
void CRC_Init(CRC_TypeDef* CRCx, CRC_Init_TypeDef* InitStruct)
{
8000431e:	1101                	addi	sp,sp,-32
80004320:	ce06                	sw	ra,28(sp)
80004322:	cc22                	sw	s0,24(sp)
80004324:	1000                	addi	s0,sp,32
80004326:	fea42623          	sw	a0,-20(s0)
8000432a:	feb42423          	sw	a1,-24(s0)
	CRC_SetInit(CRCx, InitStruct->Init);
8000432e:	fe842783          	lw	a5,-24(s0)
80004332:	439c                	lw	a5,0(a5)
80004334:	85be                	mv	a1,a5
80004336:	fec42503          	lw	a0,-20(s0)
8000433a:	3fa1                	jal	80004292 <CRC_SetInit>
	CRC_SetRevIn(CRCx, InitStruct->RevIn);
8000433c:	fe842783          	lw	a5,-24(s0)
80004340:	43dc                	lw	a5,4(a5)
80004342:	85be                	mv	a1,a5
80004344:	fec42503          	lw	a0,-20(s0)
80004348:	35fd                	jal	80004236 <CRC_SetRevIn>
	CRC_RevOutCmd(CRCx, InitStruct->RevOut);
8000434a:	fe842783          	lw	a5,-24(s0)
8000434e:	479c                	lw	a5,8(a5)
80004350:	85be                	mv	a1,a5
80004352:	fec42503          	lw	a0,-20(s0)
80004356:	3739                	jal	80004264 <CRC_RevOutCmd>
	CRC_ModeCmd(CRCx, InitStruct->Mode);
80004358:	fe842783          	lw	a5,-24(s0)
8000435c:	47dc                	lw	a5,12(a5)
8000435e:	85be                	mv	a1,a5
80004360:	fec42503          	lw	a0,-20(s0)
80004364:	35a1                	jal	800041ac <CRC_ModeCmd>
	CRC_XOROutCmd(CRCx, InitStruct->XorOut);
80004366:	fe842783          	lw	a5,-24(s0)
8000436a:	4b9c                	lw	a5,16(a5)
8000436c:	85be                	mv	a1,a5
8000436e:	fec42503          	lw	a0,-20(s0)
80004372:	35a5                	jal	800041da <CRC_XOROutCmd>
	CRC_SetPolysize(CRCx, InitStruct->Polysize);
80004374:	fe842783          	lw	a5,-24(s0)
80004378:	4bdc                	lw	a5,20(a5)
8000437a:	85be                	mv	a1,a5
8000437c:	fec42503          	lw	a0,-20(s0)
80004380:	3561                	jal	80004208 <CRC_SetPolysize>
	CRC_SetPol(CRCx, InitStruct->Pol);
80004382:	fe842783          	lw	a5,-24(s0)
80004386:	4f9c                	lw	a5,24(a5)
80004388:	85be                	mv	a1,a5
8000438a:	fec42503          	lw	a0,-20(s0)
8000438e:	3715                	jal	800042b2 <CRC_SetPol>
}
80004390:	0001                	nop
80004392:	40f2                	lw	ra,28(sp)
80004394:	4462                	lw	s0,24(sp)
80004396:	6105                	addi	sp,sp,32
80004398:	8082                	ret

8000439a <CRC_StructInit>:
  * @param   InitStruct  Указатель на структуру типа @ref CRC_Init_TypeDef,
  *                      которую необходимо проинициализировать
  * @retval  void
  */
void CRC_StructInit(CRC_Init_TypeDef* InitStruct)
{
8000439a:	1101                	addi	sp,sp,-32
8000439c:	ce22                	sw	s0,28(sp)
8000439e:	1000                	addi	s0,sp,32
800043a0:	fea42623          	sw	a0,-20(s0)
	InitStruct->Init = 0x0;
800043a4:	fec42783          	lw	a5,-20(s0)
800043a8:	0007a023          	sw	zero,0(a5) # 2000 <STACK_SIZE+0x1800>
	InitStruct->RevIn = 0x0;
800043ac:	fec42783          	lw	a5,-20(s0)
800043b0:	0007a223          	sw	zero,4(a5)
	InitStruct->RevOut = 0x0;
800043b4:	fec42783          	lw	a5,-20(s0)
800043b8:	0007a423          	sw	zero,8(a5)
	InitStruct->Mode = 0x0;
800043bc:	fec42783          	lw	a5,-20(s0)
800043c0:	0007a623          	sw	zero,12(a5)
	InitStruct->XorOut = 0x0;
800043c4:	fec42783          	lw	a5,-20(s0)
800043c8:	0007a823          	sw	zero,16(a5)
	InitStruct->Polysize = 0x0;
800043cc:	fec42783          	lw	a5,-20(s0)
800043d0:	0007aa23          	sw	zero,20(a5)
	InitStruct->Pol = 0x4C11DB7;	// CRC-32 (Ethernet)
800043d4:	fec42783          	lw	a5,-20(s0)
800043d8:	04c12737          	lui	a4,0x4c12
800043dc:	db770713          	addi	a4,a4,-585 # 4c11db7 <STACK_SIZE+0x4c115b7>
800043e0:	cf98                	sw	a4,24(a5)
}
800043e2:	0001                	nop
800043e4:	4472                	lw	s0,28(sp)
800043e6:	6105                	addi	sp,sp,32
800043e8:	8082                	ret

800043ea <RCU_AHBRstCmd>:
{
800043ea:	1101                	addi	sp,sp,-32
800043ec:	ce22                	sw	s0,28(sp)
800043ee:	1000                	addi	s0,sp,32
800043f0:	fea42623          	sw	a0,-20(s0)
800043f4:	feb42423          	sw	a1,-24(s0)
    MODIFY_REG(RCU->RSTDISAHB, AHBRst, State ? AHBRst : 0);
800043f8:	3000e7b7          	lui	a5,0x3000e
800043fc:	4b98                	lw	a4,16(a5)
800043fe:	fec42783          	lw	a5,-20(s0)
80004402:	fff7c793          	not	a5,a5
80004406:	00f776b3          	and	a3,a4,a5
8000440a:	fe842783          	lw	a5,-24(s0)
8000440e:	c781                	beqz	a5,80004416 <RCU_AHBRstCmd+0x2c>
80004410:	fec42783          	lw	a5,-20(s0)
80004414:	a011                	j	80004418 <RCU_AHBRstCmd+0x2e>
80004416:	4781                	li	a5,0
80004418:	3000e737          	lui	a4,0x3000e
8000441c:	8fd5                	or	a5,a5,a3
8000441e:	cb1c                	sw	a5,16(a4)
}
80004420:	0001                	nop
80004422:	4472                	lw	s0,28(sp)
80004424:	6105                	addi	sp,sp,32
80004426:	8082                	ret

80004428 <CRYPTO_UpdateKeyCmd>:
  * 		 или регистров KEY_0...KEY_3 для алгоритма AES-128
  * @pararm  state флаг обновления ключа
  * @retval  void
  */
__STATIC_INLINE void CRYPTO_UpdateKeyCmd(FunctionalState state)
{
80004428:	1101                	addi	sp,sp,-32
8000442a:	ce22                	sw	s0,28(sp)
8000442c:	1000                	addi	s0,sp,32
8000442e:	fea42623          	sw	a0,-20(s0)
	assert_param(IS_FUNCTIONAL_STATE(state));

    MODIFY_REG(CRYPTO->CONTROL, CRYPTO_CONTROL_UPDATE_KEY_Msk, state << CRYPTO_CONTROL_UPDATE_KEY_Pos);
80004432:	200207b7          	lui	a5,0x20020
80004436:	43fc                	lw	a5,68(a5)
80004438:	ffe7f693          	andi	a3,a5,-2
8000443c:	200207b7          	lui	a5,0x20020
80004440:	fec42703          	lw	a4,-20(s0)
80004444:	8f55                	or	a4,a4,a3
80004446:	c3f8                	sw	a4,68(a5)
}
80004448:	0001                	nop
8000444a:	4472                	lw	s0,28(sp)
8000444c:	6105                	addi	sp,sp,32
8000444e:	8082                	ret

80004450 <CRYPTO_DirectionConfig>:
  * @brief   Выбор направления криптографической операции
  * @param   dir Направление криптографической операции 0 - кодирование, 1 - декодирование
  * @retval  void
  */
__STATIC_INLINE void CRYPTO_DirectionConfig(CRYPTO_Dir_TypeDef dir)
{
80004450:	1101                	addi	sp,sp,-32
80004452:	ce22                	sw	s0,28(sp)
80004454:	1000                	addi	s0,sp,32
80004456:	fea42623          	sw	a0,-20(s0)
	assert_param(IS_CRYPTO_DIR(dir));

    MODIFY_REG(CRYPTO->CONTROL, CRYPTO_CONTROL_DIRECTION_Msk, dir << CRYPTO_CONTROL_DIRECTION_Pos);
8000445a:	200207b7          	lui	a5,0x20020
8000445e:	43fc                	lw	a5,68(a5)
80004460:	ffb7f693          	andi	a3,a5,-5
80004464:	fec42783          	lw	a5,-20(s0)
80004468:	00279713          	slli	a4,a5,0x2
8000446c:	200207b7          	lui	a5,0x20020
80004470:	8f55                	or	a4,a4,a3
80004472:	c3f8                	sw	a4,68(a5)
}
80004474:	0001                	nop
80004476:	4472                	lw	s0,28(sp)
80004478:	6105                	addi	sp,sp,32
8000447a:	8082                	ret

8000447c <CRYPTO_AlgoConfig>:
  * @brief   Выбор криптографической алгоритма операции
  * @param   algo алгоритм криптографической операции
  * @retval  void
  */
__STATIC_INLINE void CRYPTO_AlgoConfig(CRYPTO_Algo_TypeDef algo)
{
8000447c:	1101                	addi	sp,sp,-32
8000447e:	ce22                	sw	s0,28(sp)
80004480:	1000                	addi	s0,sp,32
80004482:	fea42623          	sw	a0,-20(s0)
	assert_param(IS_CRYPTO_ALGO(algo));

    MODIFY_REG(CRYPTO->CONTROL, CRYPTO_CONTROL_ALGORITHM_Msk, algo << CRYPTO_CONTROL_ALGORITHM_Pos);
80004486:	200207b7          	lui	a5,0x20020
8000448a:	43fc                	lw	a5,68(a5)
8000448c:	fe77f693          	andi	a3,a5,-25
80004490:	fec42783          	lw	a5,-20(s0)
80004494:	00379713          	slli	a4,a5,0x3
80004498:	200207b7          	lui	a5,0x20020
8000449c:	8f55                	or	a4,a4,a3
8000449e:	c3f8                	sw	a4,68(a5)
}
800044a0:	0001                	nop
800044a2:	4472                	lw	s0,28(sp)
800044a4:	6105                	addi	sp,sp,32
800044a6:	8082                	ret

800044a8 <CRYPTO_ModeConfig>:
  * @brief   Выбор режима выполнения криптографической операции
  * @param   mode режим выполнения криптографической операции
  * @retval  void
  */
__STATIC_INLINE void CRYPTO_ModeConfig(CRYPTO_Mode_TypeDef mode)
{
800044a8:	1101                	addi	sp,sp,-32
800044aa:	ce22                	sw	s0,28(sp)
800044ac:	1000                	addi	s0,sp,32
800044ae:	fea42623          	sw	a0,-20(s0)
	assert_param(IS_CRYPTO_MODE(mode));

    MODIFY_REG(CRYPTO->CONTROL, CRYPTO_CONTROL_MODE_Msk, mode << CRYPTO_CONTROL_MODE_Pos);
800044b2:	200207b7          	lui	a5,0x20020
800044b6:	43fc                	lw	a5,68(a5)
800044b8:	f9f7f693          	andi	a3,a5,-97
800044bc:	fec42783          	lw	a5,-20(s0)
800044c0:	00579713          	slli	a4,a5,0x5
800044c4:	200207b7          	lui	a5,0x20020
800044c8:	8f55                	or	a4,a4,a3
800044ca:	c3f8                	sw	a4,68(a5)
}
800044cc:	0001                	nop
800044ce:	4472                	lw	s0,28(sp)
800044d0:	6105                	addi	sp,sp,32
800044d2:	8082                	ret

800044d4 <CRYPTO_InitVectorAutoUpdateCmd>:
  * @brief   Разрешение автоматического обновления регистров IV_* при завершении криптографической операции
  * @param   state флаг разрешения
  * @retval  void
  */
__STATIC_INLINE void CRYPTO_InitVectorAutoUpdateCmd(FunctionalState state)
{
800044d4:	1101                	addi	sp,sp,-32
800044d6:	ce22                	sw	s0,28(sp)
800044d8:	1000                	addi	s0,sp,32
800044da:	fea42623          	sw	a0,-20(s0)
	assert_param(IS_FUNCTIONAL_STATE(state));

    MODIFY_REG(CRYPTO->CONTROL, CRYPTO_CONTROL_SELF_UPDATE_Msk, state << CRYPTO_CONTROL_SELF_UPDATE_Pos);
800044de:	200207b7          	lui	a5,0x20020
800044e2:	43fc                	lw	a5,68(a5)
800044e4:	eff7f693          	andi	a3,a5,-257
800044e8:	fec42783          	lw	a5,-20(s0)
800044ec:	00879713          	slli	a4,a5,0x8
800044f0:	200207b7          	lui	a5,0x20020
800044f4:	8f55                	or	a4,a4,a3
800044f6:	c3f8                	sw	a4,68(a5)
}
800044f8:	0001                	nop
800044fa:	4472                	lw	s0,28(sp)
800044fc:	6105                	addi	sp,sp,32
800044fe:	8082                	ret

80004500 <CRYPTO_SetKeyInReg>:
  * @param   idx индекс в массиве раундовых ключей
  * @param   val значение элемента раундового ключа
  * @retval  void
  */
__STATIC_INLINE void CRYPTO_SetKeyInReg(uint32_t idx, uint32_t val)
{
80004500:	1101                	addi	sp,sp,-32
80004502:	ce22                	sw	s0,28(sp)
80004504:	1000                	addi	s0,sp,32
80004506:	fea42623          	sw	a0,-20(s0)
8000450a:	feb42423          	sw	a1,-24(s0)
	assert_param(IS_CRYPTO_KEY(idx));

	WRITE_REG(CRYPTO->KEY[idx], val);
8000450e:	20020737          	lui	a4,0x20020
80004512:	fec42783          	lw	a5,-20(s0)
80004516:	07a1                	addi	a5,a5,8 # 20020008 <STACK_SIZE+0x2001f808>
80004518:	078a                	slli	a5,a5,0x2
8000451a:	97ba                	add	a5,a5,a4
8000451c:	fe842703          	lw	a4,-24(s0)
80004520:	c398                	sw	a4,0(a5)
}
80004522:	0001                	nop
80004524:	4472                	lw	s0,28(sp)
80004526:	6105                	addi	sp,sp,32
80004528:	8082                	ret

8000452a <CRYPTO_DMA_SetBaseDescriptor>:
  * @brief   Устанаваливает базовый дескриптор для DMA
  * @param   address адрес базового дескриптора, являющийся структурой типа @ref CRYPTO_DMA_DesciptorAddress_TypeDef
  * @retval  void
  */
__STATIC_INLINE void CRYPTO_DMA_SetBaseDescriptor(uint32_t address)
{
8000452a:	1101                	addi	sp,sp,-32
8000452c:	ce22                	sw	s0,28(sp)
8000452e:	1000                	addi	s0,sp,32
80004530:	fea42623          	sw	a0,-20(s0)
    WRITE_REG(CRYPTO->BASE_DESCRIPTOR, address);
80004534:	200207b7          	lui	a5,0x20020
80004538:	fec42703          	lw	a4,-20(s0)
8000453c:	c7b8                	sw	a4,72(a5)
}
8000453e:	0001                	nop
80004540:	4472                	lw	s0,28(sp)
80004542:	6105                	addi	sp,sp,32
80004544:	8082                	ret

80004546 <CRYPTO_DMA_StartCmd>:
/**
  * @brief   Запускает последовательность операций в режиме DMA
  * @retval  void
  */
__STATIC_INLINE void CRYPTO_DMA_StartCmd()
{
80004546:	1141                	addi	sp,sp,-16
80004548:	c622                	sw	s0,12(sp)
8000454a:	0800                	addi	s0,sp,16
	SET_BIT(CRYPTO->DMA_CONTROL, CRYPTO_DMA_CONTROL_START_Msk);
8000454c:	200207b7          	lui	a5,0x20020
80004550:	47f8                	lw	a4,76(a5)
80004552:	200207b7          	lui	a5,0x20020
80004556:	00176713          	ori	a4,a4,1
8000455a:	c7f8                	sw	a4,76(a5)
}
8000455c:	0001                	nop
8000455e:	4432                	lw	s0,12(sp)
80004560:	0141                	addi	sp,sp,16
80004562:	8082                	ret

80004564 <CRYPTO_DMA_ByteSwapCmd>:
  * @brief   Инвертирование порядка байт припосылке на шину AHB
  * @param   state флаг инвертирования
  * @retval  void
  */
__STATIC_INLINE void CRYPTO_DMA_ByteSwapCmd(FunctionalState state)
{
80004564:	1101                	addi	sp,sp,-32
80004566:	ce22                	sw	s0,28(sp)
80004568:	1000                	addi	s0,sp,32
8000456a:	fea42623          	sw	a0,-20(s0)
	assert_param(IS_FUNCTIONAL_STATE(state));

    MODIFY_REG(CRYPTO->DMA_CONTROL, CRYPTO_DMA_CONTROL_BYTES_SWAP_Msk, state << CRYPTO_DMA_CONTROL_BYTES_SWAP_Pos);
8000456e:	200207b7          	lui	a5,0x20020
80004572:	47fc                	lw	a5,76(a5)
80004574:	ffd7f693          	andi	a3,a5,-3
80004578:	fec42783          	lw	a5,-20(s0)
8000457c:	00179713          	slli	a4,a5,0x1
80004580:	200207b7          	lui	a5,0x20020
80004584:	8f55                	or	a4,a4,a3
80004586:	c7f8                	sw	a4,76(a5)
}
80004588:	0001                	nop
8000458a:	4472                	lw	s0,28(sp)
8000458c:	6105                	addi	sp,sp,32
8000458e:	8082                	ret

80004590 <CRYPTO_DMA_WordSwapCmd>:
  * @brief   Инвертирование порядка слов припосылке на шину AHB
  * @param   state флаг инвертирования
  * @retval  void
  */
__STATIC_INLINE void CRYPTO_DMA_WordSwapCmd(FunctionalState state)
{
80004590:	1101                	addi	sp,sp,-32
80004592:	ce22                	sw	s0,28(sp)
80004594:	1000                	addi	s0,sp,32
80004596:	fea42623          	sw	a0,-20(s0)
	assert_param(IS_FUNCTIONAL_STATE(state));

    MODIFY_REG(CRYPTO->DMA_CONTROL, CRYPTO_DMA_CONTROL_WORDS_SWAP_Msk, state << CRYPTO_DMA_CONTROL_WORDS_SWAP_Pos);
8000459a:	200207b7          	lui	a5,0x20020
8000459e:	47fc                	lw	a5,76(a5)
800045a0:	ffb7f693          	andi	a3,a5,-5
800045a4:	fec42783          	lw	a5,-20(s0)
800045a8:	00279713          	slli	a4,a5,0x2
800045ac:	200207b7          	lui	a5,0x20020
800045b0:	8f55                	or	a4,a4,a3
800045b2:	c7f8                	sw	a4,76(a5)
}
800045b4:	0001                	nop
800045b6:	4472                	lw	s0,28(sp)
800045b8:	6105                	addi	sp,sp,32
800045ba:	8082                	ret

800045bc <CRYPTO_DeInit>:
/**
  * @brief   Устанавливает все регистры CRYPTO значениями по умолчанию
  * @retval  void
  */
void CRYPTO_DeInit()
{
800045bc:	1141                	addi	sp,sp,-16
800045be:	c606                	sw	ra,12(sp)
800045c0:	c422                	sw	s0,8(sp)
800045c2:	0800                	addi	s0,sp,16
	RCU_AHBRstCmd(RCU_AHBRst_CRYPTO, DISABLE);
800045c4:	4581                	li	a1,0
800045c6:	4511                	li	a0,4
800045c8:	350d                	jal	800043ea <RCU_AHBRstCmd>
	RCU_AHBRstCmd(RCU_AHBRst_CRYPTO, ENABLE);
800045ca:	4585                	li	a1,1
800045cc:	4511                	li	a0,4
800045ce:	3d31                	jal	800043ea <RCU_AHBRstCmd>
}
800045d0:	0001                	nop
800045d2:	40b2                	lw	ra,12(sp)
800045d4:	4422                	lw	s0,8(sp)
800045d6:	0141                	addi	sp,sp,16
800045d8:	8082                	ret

800045da <CRYPTO_Init>:
  * @param   InitStruct  Указатель на структуру типа @ref CRYPTO_Init_TypeDef,
  *                      которая содержит конфигурационную информацию
  * @retval  void
  */
void CRYPTO_Init(CRYPTO_Init_TypeDef* InitStruct)
{
800045da:	1101                	addi	sp,sp,-32
800045dc:	ce06                	sw	ra,28(sp)
800045de:	cc22                	sw	s0,24(sp)
800045e0:	1000                	addi	s0,sp,32
800045e2:	fea42623          	sw	a0,-20(s0)
	CRYPTO_DirectionConfig(InitStruct->Direction);
800045e6:	fec42783          	lw	a5,-20(s0)
800045ea:	439c                	lw	a5,0(a5)
800045ec:	853e                	mv	a0,a5
800045ee:	358d                	jal	80004450 <CRYPTO_DirectionConfig>
	CRYPTO_AlgoConfig(InitStruct->Algorithm);
800045f0:	fec42783          	lw	a5,-20(s0)
800045f4:	43dc                	lw	a5,4(a5)
800045f6:	853e                	mv	a0,a5
800045f8:	3551                	jal	8000447c <CRYPTO_AlgoConfig>
	CRYPTO_ModeConfig(InitStruct->Mode);
800045fa:	fec42783          	lw	a5,-20(s0)
800045fe:	479c                	lw	a5,8(a5)
80004600:	853e                	mv	a0,a5
80004602:	355d                	jal	800044a8 <CRYPTO_ModeConfig>
	CRYPTO_InitVectorAutoUpdateCmd(InitStruct->InitVectorAutoUpdate);
80004604:	fec42783          	lw	a5,-20(s0)
80004608:	47dc                	lw	a5,12(a5)
8000460a:	853e                	mv	a0,a5
8000460c:	35e1                	jal	800044d4 <CRYPTO_InitVectorAutoUpdateCmd>
	CRYPTO_UpdateKeyCmd(InitStruct->UpdateKey);
8000460e:	fec42783          	lw	a5,-20(s0)
80004612:	4b9c                	lw	a5,16(a5)
80004614:	853e                	mv	a0,a5
80004616:	3d09                	jal	80004428 <CRYPTO_UpdateKeyCmd>
}
80004618:	0001                	nop
8000461a:	40f2                	lw	ra,28(sp)
8000461c:	4462                	lw	s0,24(sp)
8000461e:	6105                	addi	sp,sp,32
80004620:	8082                	ret

80004622 <CRYPTO_StructInit>:
  * @param   InitStruct  Указатель на структуру типа @ref CRYPTO_Init_TypeDef,
  *                      которую необходимо проинициализировать
  * @retval  void
  */
void CRYPTO_StructInit(CRYPTO_Init_TypeDef* InitStruct)
{
80004622:	1101                	addi	sp,sp,-32
80004624:	ce22                	sw	s0,28(sp)
80004626:	1000                	addi	s0,sp,32
80004628:	fea42623          	sw	a0,-20(s0)
	InitStruct->Direction = CRYPTO_Dir_Encrypt;
8000462c:	fec42783          	lw	a5,-20(s0)
80004630:	0007a023          	sw	zero,0(a5) # 20020000 <STACK_SIZE+0x2001f800>
	InitStruct->Algorithm = CRYPTO_Algo_AES_256;
80004634:	fec42783          	lw	a5,-20(s0)
80004638:	4705                	li	a4,1
8000463a:	c3d8                	sw	a4,4(a5)
	InitStruct->Mode = CRYPTO_Mode_GCM;
8000463c:	fec42783          	lw	a5,-20(s0)
80004640:	470d                	li	a4,3
80004642:	c798                	sw	a4,8(a5)
	InitStruct->InitVectorAutoUpdate = ENABLE;
80004644:	fec42783          	lw	a5,-20(s0)
80004648:	4705                	li	a4,1
8000464a:	c7d8                	sw	a4,12(a5)
	InitStruct->UpdateKey = ENABLE;
8000464c:	fec42783          	lw	a5,-20(s0)
80004650:	4705                	li	a4,1
80004652:	cb98                	sw	a4,16(a5)
	InitStruct->GCMPhase = CRYPTO_GCM_PHASE_INIT;
80004654:	fec42783          	lw	a5,-20(s0)
80004658:	0007aa23          	sw	zero,20(a5)
}
8000465c:	0001                	nop
8000465e:	4472                	lw	s0,28(sp)
80004660:	6105                	addi	sp,sp,32
80004662:	8082                	ret

80004664 <CRYPTO_DMAStructInit>:
  * @param   CryptoStruct Указатель на стуктуру типа @ref CRYPTO_Init_TypeDef,
  * 					  которая содержит параметры шифрования
  * @retval  void
  */
void CRYPTO_DMAStructInit(CRYPTO_DMAInit_TypeDef* DMAStruct, CRYPTO_Init_TypeDef* CryptoStruct)
{
80004664:	1101                	addi	sp,sp,-32
80004666:	ce22                	sw	s0,28(sp)
80004668:	1000                	addi	s0,sp,32
8000466a:	fea42623          	sw	a0,-20(s0)
8000466e:	feb42423          	sw	a1,-24(s0)
	DMAStruct->ByteSwap = DISABLE;
80004672:	fec42783          	lw	a5,-20(s0)
80004676:	0007a023          	sw	zero,0(a5)
	DMAStruct->WordSwap = DISABLE;
8000467a:	fec42783          	lw	a5,-20(s0)
8000467e:	0007a223          	sw	zero,4(a5)

	DMAStruct->CryptoSettings = CryptoStruct;
80004682:	fec42783          	lw	a5,-20(s0)
80004686:	fe842703          	lw	a4,-24(s0)
8000468a:	cbd8                	sw	a4,20(a5)
	DMAStruct->LastDescriptor = ENABLE;
8000468c:	fec42783          	lw	a5,-20(s0)
80004690:	4705                	li	a4,1
80004692:	c798                	sw	a4,8(a5)
	DMAStruct->ITEnable = DISABLE;
80004694:	fec42783          	lw	a5,-20(s0)
80004698:	0007a623          	sw	zero,12(a5)
	DMAStruct->BlocksCount = 0;
8000469c:	fec42783          	lw	a5,-20(s0)
800046a0:	0007a823          	sw	zero,16(a5)

	DMAStruct->SourceAddress = 0;
800046a4:	fec42783          	lw	a5,-20(s0)
800046a8:	0007ae23          	sw	zero,28(a5)
	DMAStruct->DestinationAddress = 0;
800046ac:	fec42783          	lw	a5,-20(s0)
800046b0:	0207a023          	sw	zero,32(a5)
	DMAStruct->DescriptorPtr->NEXT_DESCR = 0;
800046b4:	fec42783          	lw	a5,-20(s0)
800046b8:	53dc                	lw	a5,36(a5)
800046ba:	0007a623          	sw	zero,12(a5)
	DMAStruct->DescriptorPtr = 0;
800046be:	fec42783          	lw	a5,-20(s0)
800046c2:	0207a223          	sw	zero,36(a5)
}
800046c6:	0001                	nop
800046c8:	4472                	lw	s0,28(sp)
800046ca:	6105                	addi	sp,sp,32
800046cc:	8082                	ret

800046ce <CRYPTO_InitDMADescriptor>:
  * @param   DMAStruct  Указатель на структуру типа @ref CRYPTO_DMAInit_TypeDef,
  *                      которую необходимо проинициализировать
  * @retval  void
  */
uint32_t CRYPTO_InitDMADescriptor(CRYPTO_DMAInit_TypeDef* DMAStruct)
{
800046ce:	1101                	addi	sp,sp,-32
800046d0:	ce06                	sw	ra,28(sp)
800046d2:	cc22                	sw	s0,24(sp)
800046d4:	1000                	addi	s0,sp,32
800046d6:	fea42623          	sw	a0,-20(s0)
	/* CRYPTO DMA operation control word */
	DMAStruct->DescriptorPtr->CONTROL_bit.UPDATE_KEY = DMAStruct->CryptoSettings->UpdateKey;
800046da:	fec42783          	lw	a5,-20(s0)
800046de:	4bdc                	lw	a5,20(a5)
800046e0:	4b98                	lw	a4,16(a5)
800046e2:	fec42783          	lw	a5,-20(s0)
800046e6:	53dc                	lw	a5,36(a5)
800046e8:	8b05                	andi	a4,a4,1
800046ea:	0ff77713          	zext.b	a4,a4
800046ee:	8b05                	andi	a4,a4,1
800046f0:	4394                	lw	a3,0(a5)
800046f2:	9af9                	andi	a3,a3,-2
800046f4:	8f55                	or	a4,a4,a3
800046f6:	c398                	sw	a4,0(a5)
	DMAStruct->DescriptorPtr->CONTROL_bit.LAST_DESCRIPTOR = DMAStruct->LastDescriptor;
800046f8:	fec42783          	lw	a5,-20(s0)
800046fc:	4798                	lw	a4,8(a5)
800046fe:	fec42783          	lw	a5,-20(s0)
80004702:	53dc                	lw	a5,36(a5)
80004704:	8b05                	andi	a4,a4,1
80004706:	0ff77713          	zext.b	a4,a4
8000470a:	8b05                	andi	a4,a4,1
8000470c:	0706                	slli	a4,a4,0x1
8000470e:	4394                	lw	a3,0(a5)
80004710:	9af5                	andi	a3,a3,-3
80004712:	8f55                	or	a4,a4,a3
80004714:	c398                	sw	a4,0(a5)
	DMAStruct->DescriptorPtr->CONTROL_bit.DIRECTION = DMAStruct->CryptoSettings->Direction;
80004716:	fec42783          	lw	a5,-20(s0)
8000471a:	4bdc                	lw	a5,20(a5)
8000471c:	4398                	lw	a4,0(a5)
8000471e:	fec42783          	lw	a5,-20(s0)
80004722:	53dc                	lw	a5,36(a5)
80004724:	8b05                	andi	a4,a4,1
80004726:	0ff77713          	zext.b	a4,a4
8000472a:	8b05                	andi	a4,a4,1
8000472c:	070a                	slli	a4,a4,0x2
8000472e:	4394                	lw	a3,0(a5)
80004730:	9aed                	andi	a3,a3,-5
80004732:	8f55                	or	a4,a4,a3
80004734:	c398                	sw	a4,0(a5)
	DMAStruct->DescriptorPtr->CONTROL_bit.ALGORITHM = DMAStruct->CryptoSettings->Algorithm;
80004736:	fec42783          	lw	a5,-20(s0)
8000473a:	4bdc                	lw	a5,20(a5)
8000473c:	43d8                	lw	a4,4(a5)
8000473e:	fec42783          	lw	a5,-20(s0)
80004742:	53dc                	lw	a5,36(a5)
80004744:	8b0d                	andi	a4,a4,3
80004746:	0ff77713          	zext.b	a4,a4
8000474a:	8b0d                	andi	a4,a4,3
8000474c:	070e                	slli	a4,a4,0x3
8000474e:	4394                	lw	a3,0(a5)
80004750:	9a9d                	andi	a3,a3,-25
80004752:	8f55                	or	a4,a4,a3
80004754:	c398                	sw	a4,0(a5)
	DMAStruct->DescriptorPtr->CONTROL_bit.MODE = DMAStruct->CryptoSettings->Mode;
80004756:	fec42783          	lw	a5,-20(s0)
8000475a:	4bdc                	lw	a5,20(a5)
8000475c:	4798                	lw	a4,8(a5)
8000475e:	fec42783          	lw	a5,-20(s0)
80004762:	53dc                	lw	a5,36(a5)
80004764:	8b0d                	andi	a4,a4,3
80004766:	0ff77713          	zext.b	a4,a4
8000476a:	8b0d                	andi	a4,a4,3
8000476c:	0716                	slli	a4,a4,0x5
8000476e:	4394                	lw	a3,0(a5)
80004770:	f9f6f693          	andi	a3,a3,-97
80004774:	8f55                	or	a4,a4,a3
80004776:	c398                	sw	a4,0(a5)
	DMAStruct->DescriptorPtr->CONTROL_bit.GCM_PHASE = DMAStruct->CryptoSettings->GCMPhase;
80004778:	fec42783          	lw	a5,-20(s0)
8000477c:	4bdc                	lw	a5,20(a5)
8000477e:	4bd8                	lw	a4,20(a5)
80004780:	fec42783          	lw	a5,-20(s0)
80004784:	53dc                	lw	a5,36(a5)
80004786:	8b0d                	andi	a4,a4,3
80004788:	0ff77713          	zext.b	a4,a4
8000478c:	8b0d                	andi	a4,a4,3
8000478e:	0736                	slli	a4,a4,0xd
80004790:	4390                	lw	a2,0(a5)
80004792:	76e9                	lui	a3,0xffffa
80004794:	16fd                	addi	a3,a3,-1 # ffff9fff <__data_source_start+0x7fff26b7>
80004796:	8ef1                	and	a3,a3,a2
80004798:	8f55                	or	a4,a4,a3
8000479a:	c398                	sw	a4,0(a5)
	DMAStruct->DescriptorPtr->CONTROL_bit.INTERRUPT_ENABLE = DMAStruct->ITEnable;
8000479c:	fec42783          	lw	a5,-20(s0)
800047a0:	47d8                	lw	a4,12(a5)
800047a2:	fec42783          	lw	a5,-20(s0)
800047a6:	53dc                	lw	a5,36(a5)
800047a8:	8b05                	andi	a4,a4,1
800047aa:	0ff77713          	zext.b	a4,a4
800047ae:	8b05                	andi	a4,a4,1
800047b0:	073e                	slli	a4,a4,0xf
800047b2:	4390                	lw	a2,0(a5)
800047b4:	76e1                	lui	a3,0xffff8
800047b6:	16fd                	addi	a3,a3,-1 # ffff7fff <__data_source_start+0x7fff06b7>
800047b8:	8ef1                	and	a3,a3,a2
800047ba:	8f55                	or	a4,a4,a3
800047bc:	c398                	sw	a4,0(a5)
	DMAStruct->DescriptorPtr->CONTROL_bit.BLOCKS_COUNT = DMAStruct->BlocksCount;
800047be:	fec42783          	lw	a5,-20(s0)
800047c2:	4b98                	lw	a4,16(a5)
800047c4:	fec42783          	lw	a5,-20(s0)
800047c8:	53dc                	lw	a5,36(a5)
800047ca:	86ba                	mv	a3,a4
800047cc:	6705                	lui	a4,0x1
800047ce:	177d                	addi	a4,a4,-1 # fff <STACK_SIZE+0x7ff>
800047d0:	8f75                	and	a4,a4,a3
800047d2:	01071693          	slli	a3,a4,0x10
800047d6:	82c1                	srli	a3,a3,0x10
800047d8:	6705                	lui	a4,0x1
800047da:	177d                	addi	a4,a4,-1 # fff <STACK_SIZE+0x7ff>
800047dc:	8f75                	and	a4,a4,a3
800047de:	0742                	slli	a4,a4,0x10
800047e0:	4390                	lw	a2,0(a5)
800047e2:	f00106b7          	lui	a3,0xf0010
800047e6:	16fd                	addi	a3,a3,-1 # f000ffff <__data_source_start+0x700086b7>
800047e8:	8ef1                	and	a3,a3,a2
800047ea:	8f55                	or	a4,a4,a3
800047ec:	c398                	sw	a4,0(a5)

	DMAStruct->DescriptorPtr->SRC_ADDR = (uint32_t) DMAStruct->SourceAddress;
800047ee:	fec42783          	lw	a5,-20(s0)
800047f2:	4fd8                	lw	a4,28(a5)
800047f4:	fec42783          	lw	a5,-20(s0)
800047f8:	53dc                	lw	a5,36(a5)
800047fa:	c3d8                	sw	a4,4(a5)
	DMAStruct->DescriptorPtr->DST_ADDR = (uint32_t)DMAStruct->DestinationAddress;
800047fc:	fec42783          	lw	a5,-20(s0)
80004800:	5398                	lw	a4,32(a5)
80004802:	fec42783          	lw	a5,-20(s0)
80004806:	53dc                	lw	a5,36(a5)
80004808:	c798                	sw	a4,8(a5)
	DMAStruct->DescriptorPtr->NEXT_DESCR = (uint32_t) DMAStruct->LastDescriptor ? 0 : CRYPTO_InitDMADescriptor((CRYPTO_DMAInit_TypeDef*) DMAStruct->NextDescriptor);
8000480a:	fec42783          	lw	a5,-20(s0)
8000480e:	479c                	lw	a5,8(a5)
80004810:	eb81                	bnez	a5,80004820 <CRYPTO_InitDMADescriptor+0x152>
80004812:	fec42783          	lw	a5,-20(s0)
80004816:	4f9c                	lw	a5,24(a5)
80004818:	853e                	mv	a0,a5
8000481a:	3d55                	jal	800046ce <CRYPTO_InitDMADescriptor>
8000481c:	872a                	mv	a4,a0
8000481e:	a011                	j	80004822 <CRYPTO_InitDMADescriptor+0x154>
80004820:	4701                	li	a4,0
80004822:	fec42783          	lw	a5,-20(s0)
80004826:	53dc                	lw	a5,36(a5)
80004828:	c7d8                	sw	a4,12(a5)
//		DMAStruct->DescriptorPtr->NEXT_DESCR = (uint32_t) &headerDescriptor;
//		headerDescriptor.NEXT_DESCR = (uint32_t) &payloadDescriptor;
//		payloadDescriptor.NEXT_DESCR = (uint32_t) &lastBlockDescriptor;
//	}

	return (uint32_t) DMAStruct->DescriptorPtr;
8000482a:	fec42783          	lw	a5,-20(s0)
8000482e:	53dc                	lw	a5,36(a5)
}
80004830:	853e                	mv	a0,a5
80004832:	40f2                	lw	ra,28(sp)
80004834:	4462                	lw	s0,24(sp)
80004836:	6105                	addi	sp,sp,32
80004838:	8082                	ret

8000483a <CRPYTO_ProcessData>:
  * @param   DMAStruct  Указатель на структуру типа @ref CRYPTO_DMAInit_TypeDef,
  *                      которая будет исполнена как дескриптор DMA
  * @retval  void
  */
void CRPYTO_ProcessData(CRYPTO_DMAInit_TypeDef* DMAStruct)
{
8000483a:	1101                	addi	sp,sp,-32
8000483c:	ce06                	sw	ra,28(sp)
8000483e:	cc22                	sw	s0,24(sp)
80004840:	1000                	addi	s0,sp,32
80004842:	fea42623          	sw	a0,-20(s0)
	CRYPTO_DMA_ByteSwapCmd(DMAStruct->ByteSwap);
80004846:	fec42783          	lw	a5,-20(s0)
8000484a:	439c                	lw	a5,0(a5)
8000484c:	853e                	mv	a0,a5
8000484e:	3b19                	jal	80004564 <CRYPTO_DMA_ByteSwapCmd>
	CRYPTO_DMA_WordSwapCmd(DMAStruct->WordSwap);
80004850:	fec42783          	lw	a5,-20(s0)
80004854:	43dc                	lw	a5,4(a5)
80004856:	853e                	mv	a0,a5
80004858:	3b25                	jal	80004590 <CRYPTO_DMA_WordSwapCmd>
	CRYPTO_DMA_SetBaseDescriptor(CRYPTO_InitDMADescriptor(DMAStruct));
8000485a:	fec42503          	lw	a0,-20(s0)
8000485e:	3d85                	jal	800046ce <CRYPTO_InitDMADescriptor>
80004860:	87aa                	mv	a5,a0
80004862:	853e                	mv	a0,a5
80004864:	31d9                	jal	8000452a <CRYPTO_DMA_SetBaseDescriptor>
	CRYPTO_DMA_StartCmd();
80004866:	31c5                	jal	80004546 <CRYPTO_DMA_StartCmd>
}
80004868:	0001                	nop
8000486a:	40f2                	lw	ra,28(sp)
8000486c:	4462                	lw	s0,24(sp)
8000486e:	6105                	addi	sp,sp,32
80004870:	8082                	ret

80004872 <CRYPTO_SetKey>:
  * @brief   Устанавливает значение ключа, максимум 256 бит, для AES-128 128 бит
  * @param   key массив слов, который формирует ключ шифрования
  * @retval  void
  */
void CRYPTO_SetKey(uint32_t* key, uint32_t len)
{
80004872:	7179                	addi	sp,sp,-48
80004874:	d606                	sw	ra,44(sp)
80004876:	d422                	sw	s0,40(sp)
80004878:	1800                	addi	s0,sp,48
8000487a:	fca42e23          	sw	a0,-36(s0)
8000487e:	fcb42c23          	sw	a1,-40(s0)
	uint32_t idx = 0;
80004882:	fe042623          	sw	zero,-20(s0)
	while(idx < len)
80004886:	a00d                	j	800048a8 <CRYPTO_SetKey+0x36>
	{
		CRYPTO_SetKeyInReg(idx++, *key++);
80004888:	fec42703          	lw	a4,-20(s0)
8000488c:	00170793          	addi	a5,a4,1
80004890:	fef42623          	sw	a5,-20(s0)
80004894:	fdc42783          	lw	a5,-36(s0)
80004898:	00478693          	addi	a3,a5,4
8000489c:	fcd42e23          	sw	a3,-36(s0)
800048a0:	439c                	lw	a5,0(a5)
800048a2:	85be                	mv	a1,a5
800048a4:	853a                	mv	a0,a4
800048a6:	39a9                	jal	80004500 <CRYPTO_SetKeyInReg>
	while(idx < len)
800048a8:	fec42703          	lw	a4,-20(s0)
800048ac:	fd842783          	lw	a5,-40(s0)
800048b0:	fcf76ce3          	bltu	a4,a5,80004888 <CRYPTO_SetKey+0x16>
	}
}
800048b4:	0001                	nop
800048b6:	0001                	nop
800048b8:	50b2                	lw	ra,44(sp)
800048ba:	5422                	lw	s0,40(sp)
800048bc:	6145                	addi	sp,sp,48
800048be:	8082                	ret

800048c0 <DMA_ProtectConfig>:
  * @brief   Управление защитой шины при обращении контроллера DMA к управляющим данным
  * @param   CtrlProtect  Структура, содержащая конфигурацию защиты
  * @retval  void
  */
__STATIC_INLINE void DMA_ProtectConfig(DMA_Protect_TypeDef* CtrlProtect)
{
800048c0:	1101                	addi	sp,sp,-32
800048c2:	ce22                	sw	s0,28(sp)
800048c4:	1000                	addi	s0,sp,32
800048c6:	fea42623          	sw	a0,-20(s0)
    assert_param(IS_FUNCTIONAL_STATE(CtrlProtect->Bufferable));
    assert_param(IS_FUNCTIONAL_STATE(CtrlProtect->Cacheable));
    assert_param(IS_FUNCTIONAL_STATE(CtrlProtect->Priveleged));

    MODIFY_REG(DMA->CFG, DMA_CFG_CHPROT_Msk, ((CtrlProtect->Priveleged << (DMA_CFG_CHPROT_Pos + 0)) |
800048ca:	3000c7b7          	lui	a5,0x3000c
800048ce:	43dc                	lw	a5,4(a5)
800048d0:	ff87f693          	andi	a3,a5,-8
800048d4:	fec42783          	lw	a5,-20(s0)
800048d8:	4398                	lw	a4,0(a5)
800048da:	fec42783          	lw	a5,-20(s0)
800048de:	43dc                	lw	a5,4(a5)
800048e0:	0786                	slli	a5,a5,0x1
800048e2:	8f5d                	or	a4,a4,a5
800048e4:	fec42783          	lw	a5,-20(s0)
800048e8:	479c                	lw	a5,8(a5)
800048ea:	078a                	slli	a5,a5,0x2
800048ec:	8f5d                	or	a4,a4,a5
800048ee:	3000c7b7          	lui	a5,0x3000c
800048f2:	8f55                	or	a4,a4,a3
800048f4:	c3d8                	sw	a4,4(a5)
                                              (CtrlProtect->Bufferable << (DMA_CFG_CHPROT_Pos + 1)) |
                                              (CtrlProtect->Cacheable << (DMA_CFG_CHPROT_Pos + 2))));
}
800048f6:	0001                	nop
800048f8:	4472                	lw	s0,28(sp)
800048fa:	6105                	addi	sp,sp,32
800048fc:	8082                	ret

800048fe <DMA_UseBurstCmd>:
  *                   Параметр принимает любую комбинацию масок DMA_Channel_x из @ref DMA_Channel_Define.
  * @param   State  Выбор состояния
  * @retval  void
  */
__STATIC_INLINE void DMA_UseBurstCmd(uint32_t Channel, FunctionalState State)
{
800048fe:	1101                	addi	sp,sp,-32
80004900:	ce22                	sw	s0,28(sp)
80004902:	1000                	addi	s0,sp,32
80004904:	fea42623          	sw	a0,-20(s0)
80004908:	feb42423          	sw	a1,-24(s0)
    assert_param(IS_DMA_CHANNEL(Channel));
    assert_param(IS_FUNCTIONAL_STATE(State));

    if (State == ENABLE)
8000490c:	fe842703          	lw	a4,-24(s0)
80004910:	4785                	li	a5,1
80004912:	00f71863          	bne	a4,a5,80004922 <DMA_UseBurstCmd+0x24>
        WRITE_REG(DMA->USEBURSTSET, Channel);
80004916:	3000c7b7          	lui	a5,0x3000c
8000491a:	fec42703          	lw	a4,-20(s0)
8000491e:	cf98                	sw	a4,24(a5)
    else
        WRITE_REG(DMA->USEBURSTCLR, Channel);
}
80004920:	a031                	j	8000492c <DMA_UseBurstCmd+0x2e>
        WRITE_REG(DMA->USEBURSTCLR, Channel);
80004922:	3000c7b7          	lui	a5,0x3000c
80004926:	fec42703          	lw	a4,-20(s0)
8000492a:	cfd8                	sw	a4,28(a5)
}
8000492c:	0001                	nop
8000492e:	4472                	lw	s0,28(sp)
80004930:	6105                	addi	sp,sp,32
80004932:	8082                	ret

80004934 <DMA_ReqMaskCmd>:
  *                      Параметр принимает любую комбинацию масок DMA_Channel_x из @ref DMA_Channel_Define.
  * @param      State  Выбор состояния
  * @retval     void
  */
__STATIC_INLINE void DMA_ReqMaskCmd(uint32_t Channel, FunctionalState State)
{
80004934:	1101                	addi	sp,sp,-32
80004936:	ce22                	sw	s0,28(sp)
80004938:	1000                	addi	s0,sp,32
8000493a:	fea42623          	sw	a0,-20(s0)
8000493e:	feb42423          	sw	a1,-24(s0)
    assert_param(IS_DMA_CHANNEL(Channel));
    assert_param(IS_FUNCTIONAL_STATE(State));

    if (State == ENABLE)
80004942:	fe842703          	lw	a4,-24(s0)
80004946:	4785                	li	a5,1
80004948:	00f71863          	bne	a4,a5,80004958 <DMA_ReqMaskCmd+0x24>
        WRITE_REG(DMA->REQMASKSET, Channel);
8000494c:	3000c7b7          	lui	a5,0x3000c
80004950:	fec42703          	lw	a4,-20(s0)
80004954:	d398                	sw	a4,32(a5)
    else
        WRITE_REG(DMA->REQMASKCLR, Channel);
}
80004956:	a031                	j	80004962 <DMA_ReqMaskCmd+0x2e>
        WRITE_REG(DMA->REQMASKCLR, Channel);
80004958:	3000c7b7          	lui	a5,0x3000c
8000495c:	fec42703          	lw	a4,-20(s0)
80004960:	d3d8                	sw	a4,36(a5)
}
80004962:	0001                	nop
80004964:	4472                	lw	s0,28(sp)
80004966:	6105                	addi	sp,sp,32
80004968:	8082                	ret

8000496a <DMA_ChannelEnableCmd>:
  *                   Параметр принимает любую комбинацию масок DMA_Channel_x из @ref DMA_Channel_Define.
  * @param   State  Выбор состояния
  * @retval  void
  */
__STATIC_INLINE void DMA_ChannelEnableCmd(uint32_t Channel, FunctionalState State)
{
8000496a:	1101                	addi	sp,sp,-32
8000496c:	ce22                	sw	s0,28(sp)
8000496e:	1000                	addi	s0,sp,32
80004970:	fea42623          	sw	a0,-20(s0)
80004974:	feb42423          	sw	a1,-24(s0)
    assert_param(IS_DMA_CHANNEL(Channel));
    assert_param(IS_FUNCTIONAL_STATE(State));

    if (State == ENABLE)
80004978:	fe842703          	lw	a4,-24(s0)
8000497c:	4785                	li	a5,1
8000497e:	00f71863          	bne	a4,a5,8000498e <DMA_ChannelEnableCmd+0x24>
        WRITE_REG(DMA->ENSET, Channel);
80004982:	3000c7b7          	lui	a5,0x3000c
80004986:	fec42703          	lw	a4,-20(s0)
8000498a:	d798                	sw	a4,40(a5)
    else
        WRITE_REG(DMA->ENCLR, Channel);
}
8000498c:	a031                	j	80004998 <DMA_ChannelEnableCmd+0x2e>
        WRITE_REG(DMA->ENCLR, Channel);
8000498e:	3000c7b7          	lui	a5,0x3000c
80004992:	fec42703          	lw	a4,-20(s0)
80004996:	d7d8                	sw	a4,44(a5)
}
80004998:	0001                	nop
8000499a:	4472                	lw	s0,28(sp)
8000499c:	6105                	addi	sp,sp,32
8000499e:	8082                	ret

800049a0 <DMA_AltCtrlCmd>:
  *                   Параметр принимает любую комбинацию масок DMA_Channel_x из @ref DMA_Channel_Define.
  * @param   State  Выбор состояния
  * @retval  void
  */
__STATIC_INLINE void DMA_AltCtrlCmd(uint32_t Channel, FunctionalState State)
{
800049a0:	1101                	addi	sp,sp,-32
800049a2:	ce22                	sw	s0,28(sp)
800049a4:	1000                	addi	s0,sp,32
800049a6:	fea42623          	sw	a0,-20(s0)
800049aa:	feb42423          	sw	a1,-24(s0)
    assert_param(IS_DMA_CHANNEL(Channel));
    assert_param(IS_FUNCTIONAL_STATE(State));

    if (State == ENABLE)
800049ae:	fe842703          	lw	a4,-24(s0)
800049b2:	4785                	li	a5,1
800049b4:	00f71863          	bne	a4,a5,800049c4 <DMA_AltCtrlCmd+0x24>
        WRITE_REG(DMA->PRIALTSET, Channel);
800049b8:	3000c7b7          	lui	a5,0x3000c
800049bc:	fec42703          	lw	a4,-20(s0)
800049c0:	db98                	sw	a4,48(a5)
    else
        WRITE_REG(DMA->PRIALTCLR, Channel);
}
800049c2:	a031                	j	800049ce <DMA_AltCtrlCmd+0x2e>
        WRITE_REG(DMA->PRIALTCLR, Channel);
800049c4:	3000c7b7          	lui	a5,0x3000c
800049c8:	fec42703          	lw	a4,-20(s0)
800049cc:	dbd8                	sw	a4,52(a5)
}
800049ce:	0001                	nop
800049d0:	4472                	lw	s0,28(sp)
800049d2:	6105                	addi	sp,sp,32
800049d4:	8082                	ret

800049d6 <DMA_HighPriorityCmd>:
  *                   Параметр принимает любую комбинацию масок DMA_Channel_x из @ref DMA_Channel_Define.
  * @param   State  Выбор состояния
  * @retval  void
  */
__STATIC_INLINE void DMA_HighPriorityCmd(uint32_t Channel, FunctionalState State)
{
800049d6:	1101                	addi	sp,sp,-32
800049d8:	ce22                	sw	s0,28(sp)
800049da:	1000                	addi	s0,sp,32
800049dc:	fea42623          	sw	a0,-20(s0)
800049e0:	feb42423          	sw	a1,-24(s0)
    assert_param(IS_DMA_CHANNEL(Channel));
    assert_param(IS_FUNCTIONAL_STATE(State));

    if (State == ENABLE)
800049e4:	fe842703          	lw	a4,-24(s0)
800049e8:	4785                	li	a5,1
800049ea:	00f71863          	bne	a4,a5,800049fa <DMA_HighPriorityCmd+0x24>
        WRITE_REG(DMA->PRIORITYSET, Channel);
800049ee:	3000c7b7          	lui	a5,0x3000c
800049f2:	fec42703          	lw	a4,-20(s0)
800049f6:	df98                	sw	a4,56(a5)
    else
        WRITE_REG(DMA->PRIORITYCLR, Channel);
}
800049f8:	a031                	j	80004a04 <DMA_HighPriorityCmd+0x2e>
        WRITE_REG(DMA->PRIORITYCLR, Channel);
800049fa:	3000c7b7          	lui	a5,0x3000c
800049fe:	fec42703          	lw	a4,-20(s0)
80004a02:	dfd8                	sw	a4,60(a5)
}
80004a04:	0001                	nop
80004a06:	4472                	lw	s0,28(sp)
80004a08:	6105                	addi	sp,sp,32
80004a0a:	8082                	ret

80004a0c <DMA_ChannelDeInit>:
  * @param   ChannelStruct  Указатель на структуру типа @ref DMA_Channel_TypeDef,
  *                         которая содержит конфигурационную информацию канала
  * @retval  void
  */
void DMA_ChannelDeInit(DMA_Channel_TypeDef* ChannelStruct)
{
80004a0c:	1101                	addi	sp,sp,-32
80004a0e:	ce22                	sw	s0,28(sp)
80004a10:	1000                	addi	s0,sp,32
80004a12:	fea42623          	sw	a0,-20(s0)
    ChannelStruct->SRC_DATA_END_PTR = 0;
80004a16:	fec42783          	lw	a5,-20(s0)
80004a1a:	0007a023          	sw	zero,0(a5) # 3000c000 <STACK_SIZE+0x3000b800>
    ChannelStruct->DST_DATA_END_PTR = 0;
80004a1e:	fec42783          	lw	a5,-20(s0)
80004a22:	0007a223          	sw	zero,4(a5)
    ChannelStruct->CHANNEL_CFG = 0;
80004a26:	fec42783          	lw	a5,-20(s0)
80004a2a:	0007a423          	sw	zero,8(a5)
}
80004a2e:	0001                	nop
80004a30:	4472                	lw	s0,28(sp)
80004a32:	6105                	addi	sp,sp,32
80004a34:	8082                	ret

80004a36 <DMA_ChannelInit>:
  * @param   ChannelInitStruct  Указатель на структуру типа @ref DMA_ChannelInit_TypeDef,
  *                             которая содержит конфигурационную информацию канала
  * @retval  void
  */
void DMA_ChannelInit(DMA_Channel_TypeDef* ChannelStruct, DMA_ChannelInit_TypeDef* ChannelInitStruct)
{
80004a36:	1101                	addi	sp,sp,-32
80004a38:	ce22                	sw	s0,28(sp)
80004a3a:	1000                	addi	s0,sp,32
80004a3c:	fea42623          	sw	a0,-20(s0)
80004a40:	feb42423          	sw	a1,-24(s0)
    assert_param(IS_FUNCTIONAL_STATE(ChannelInitStruct->SrcProtect.Bufferable));
    assert_param(IS_FUNCTIONAL_STATE(ChannelInitStruct->SrcProtect.Cacheable));
    assert_param(IS_FUNCTIONAL_STATE(ChannelInitStruct->SrcProtect.Priveleged));

    /* источник */
    ChannelStruct->SRC_DATA_END_PTR = (uint32_t)ChannelInitStruct->SrcDataEndPtr;
80004a44:	fe842783          	lw	a5,-24(s0)
80004a48:	439c                	lw	a5,0(a5)
80004a4a:	873e                	mv	a4,a5
80004a4c:	fec42783          	lw	a5,-20(s0)
80004a50:	c398                	sw	a4,0(a5)
    ChannelStruct->CHANNEL_CFG_bit.SRC_SIZE = ChannelInitStruct->SrcDataSize;
80004a52:	fe842783          	lw	a5,-24(s0)
80004a56:	5b9c                	lw	a5,48(a5)
80004a58:	8b8d                	andi	a5,a5,3
80004a5a:	0ff7f713          	zext.b	a4,a5
80004a5e:	fec42783          	lw	a5,-20(s0)
80004a62:	8b0d                	andi	a4,a4,3
80004a64:	0746                	slli	a4,a4,0x11
80004a66:	4790                	lw	a2,8(a5)
80004a68:	fffa06b7          	lui	a3,0xfffa0
80004a6c:	16fd                	addi	a3,a3,-1 # fff9ffff <__data_source_start+0x7ff986b7>
80004a6e:	8ef1                	and	a3,a3,a2
80004a70:	8f55                	or	a4,a4,a3
80004a72:	c798                	sw	a4,8(a5)
    ChannelStruct->CHANNEL_CFG_bit.SRC_INC = ChannelInitStruct->SrcDataInc;
80004a74:	fe842783          	lw	a5,-24(s0)
80004a78:	5f9c                	lw	a5,56(a5)
80004a7a:	8b8d                	andi	a5,a5,3
80004a7c:	0ff7f713          	zext.b	a4,a5
80004a80:	fec42783          	lw	a5,-20(s0)
80004a84:	8b0d                	andi	a4,a4,3
80004a86:	073e                	slli	a4,a4,0xf
80004a88:	4790                	lw	a2,8(a5)
80004a8a:	76a1                	lui	a3,0xfffe8
80004a8c:	16fd                	addi	a3,a3,-1 # fffe7fff <__data_source_start+0x7ffe06b7>
80004a8e:	8ef1                	and	a3,a3,a2
80004a90:	8f55                	or	a4,a4,a3
80004a92:	c798                	sw	a4,8(a5)
    ChannelStruct->CHANNEL_CFG_bit.SRC_PROT_BUFF = ChannelInitStruct->SrcProtect.Bufferable;
80004a94:	fe842783          	lw	a5,-24(s0)
80004a98:	4fdc                	lw	a5,28(a5)
80004a9a:	8b85                	andi	a5,a5,1
80004a9c:	0ff7f713          	zext.b	a4,a5
80004aa0:	fec42783          	lw	a5,-20(s0)
80004aa4:	8b05                	andi	a4,a4,1
80004aa6:	076e                	slli	a4,a4,0x1b
80004aa8:	4790                	lw	a2,8(a5)
80004aaa:	f80006b7          	lui	a3,0xf8000
80004aae:	16fd                	addi	a3,a3,-1 # f7ffffff <__data_source_start+0x77ff86b7>
80004ab0:	8ef1                	and	a3,a3,a2
80004ab2:	8f55                	or	a4,a4,a3
80004ab4:	c798                	sw	a4,8(a5)
    ChannelStruct->CHANNEL_CFG_bit.SRC_PROT_PRIV = ChannelInitStruct->SrcProtect.Priveleged;
80004ab6:	fe842783          	lw	a5,-24(s0)
80004aba:	4f9c                	lw	a5,24(a5)
80004abc:	8b85                	andi	a5,a5,1
80004abe:	0ff7f713          	zext.b	a4,a5
80004ac2:	fec42783          	lw	a5,-20(s0)
80004ac6:	8b05                	andi	a4,a4,1
80004ac8:	076a                	slli	a4,a4,0x1a
80004aca:	4790                	lw	a2,8(a5)
80004acc:	fc0006b7          	lui	a3,0xfc000
80004ad0:	16fd                	addi	a3,a3,-1 # fbffffff <__data_source_start+0x7bff86b7>
80004ad2:	8ef1                	and	a3,a3,a2
80004ad4:	8f55                	or	a4,a4,a3
80004ad6:	c798                	sw	a4,8(a5)
    ChannelStruct->CHANNEL_CFG_bit.SRC_PROT_CACHE = ChannelInitStruct->SrcProtect.Cacheable;
80004ad8:	fe842783          	lw	a5,-24(s0)
80004adc:	539c                	lw	a5,32(a5)
80004ade:	8b85                	andi	a5,a5,1
80004ae0:	0ff7f713          	zext.b	a4,a5
80004ae4:	fec42783          	lw	a5,-20(s0)
80004ae8:	8b05                	andi	a4,a4,1
80004aea:	0772                	slli	a4,a4,0x1c
80004aec:	4790                	lw	a2,8(a5)
80004aee:	f00006b7          	lui	a3,0xf0000
80004af2:	16fd                	addi	a3,a3,-1 # efffffff <__data_source_start+0x6fff86b7>
80004af4:	8ef1                	and	a3,a3,a2
80004af6:	8f55                	or	a4,a4,a3
80004af8:	c798                	sw	a4,8(a5)
    /* приемник */
    ChannelStruct->DST_DATA_END_PTR = (uint32_t)ChannelInitStruct->DstDataEndPtr;
80004afa:	fe842783          	lw	a5,-24(s0)
80004afe:	43dc                	lw	a5,4(a5)
80004b00:	873e                	mv	a4,a5
80004b02:	fec42783          	lw	a5,-20(s0)
80004b06:	c3d8                	sw	a4,4(a5)
    ChannelStruct->CHANNEL_CFG_bit.DST_SIZE = ChannelInitStruct->DstDataSize;
80004b08:	fe842783          	lw	a5,-24(s0)
80004b0c:	5bdc                	lw	a5,52(a5)
80004b0e:	8b8d                	andi	a5,a5,3
80004b10:	0ff7f713          	zext.b	a4,a5
80004b14:	fec42783          	lw	a5,-20(s0)
80004b18:	8b0d                	andi	a4,a4,3
80004b1a:	0756                	slli	a4,a4,0x15
80004b1c:	4790                	lw	a2,8(a5)
80004b1e:	ffa006b7          	lui	a3,0xffa00
80004b22:	16fd                	addi	a3,a3,-1 # ff9fffff <__data_source_start+0x7f9f86b7>
80004b24:	8ef1                	and	a3,a3,a2
80004b26:	8f55                	or	a4,a4,a3
80004b28:	c798                	sw	a4,8(a5)
    ChannelStruct->CHANNEL_CFG_bit.DST_INC = ChannelInitStruct->DstDataInc;
80004b2a:	fe842783          	lw	a5,-24(s0)
80004b2e:	5fdc                	lw	a5,60(a5)
80004b30:	8b8d                	andi	a5,a5,3
80004b32:	0ff7f713          	zext.b	a4,a5
80004b36:	fec42783          	lw	a5,-20(s0)
80004b3a:	8b0d                	andi	a4,a4,3
80004b3c:	074e                	slli	a4,a4,0x13
80004b3e:	4790                	lw	a2,8(a5)
80004b40:	ffe806b7          	lui	a3,0xffe80
80004b44:	16fd                	addi	a3,a3,-1 # ffe7ffff <__data_source_start+0x7fe786b7>
80004b46:	8ef1                	and	a3,a3,a2
80004b48:	8f55                	or	a4,a4,a3
80004b4a:	c798                	sw	a4,8(a5)
    ChannelStruct->CHANNEL_CFG_bit.DST_PROT_BUFF = ChannelInitStruct->DstProtect.Bufferable;
80004b4c:	fe842783          	lw	a5,-24(s0)
80004b50:	579c                	lw	a5,40(a5)
80004b52:	8b85                	andi	a5,a5,1
80004b54:	0ff7f713          	zext.b	a4,a5
80004b58:	fec42783          	lw	a5,-20(s0)
80004b5c:	8b05                	andi	a4,a4,1
80004b5e:	0762                	slli	a4,a4,0x18
80004b60:	4790                	lw	a2,8(a5)
80004b62:	ff0006b7          	lui	a3,0xff000
80004b66:	16fd                	addi	a3,a3,-1 # feffffff <__data_source_start+0x7eff86b7>
80004b68:	8ef1                	and	a3,a3,a2
80004b6a:	8f55                	or	a4,a4,a3
80004b6c:	c798                	sw	a4,8(a5)
    ChannelStruct->CHANNEL_CFG_bit.DST_PROT_PRIV = ChannelInitStruct->DstProtect.Priveleged;
80004b6e:	fe842783          	lw	a5,-24(s0)
80004b72:	53dc                	lw	a5,36(a5)
80004b74:	8b85                	andi	a5,a5,1
80004b76:	0ff7f713          	zext.b	a4,a5
80004b7a:	fec42783          	lw	a5,-20(s0)
80004b7e:	8b05                	andi	a4,a4,1
80004b80:	075e                	slli	a4,a4,0x17
80004b82:	4790                	lw	a2,8(a5)
80004b84:	ff8006b7          	lui	a3,0xff800
80004b88:	16fd                	addi	a3,a3,-1 # ff7fffff <__data_source_start+0x7f7f86b7>
80004b8a:	8ef1                	and	a3,a3,a2
80004b8c:	8f55                	or	a4,a4,a3
80004b8e:	c798                	sw	a4,8(a5)
    ChannelStruct->CHANNEL_CFG_bit.DST_PROT_CACHE = ChannelInitStruct->DstProtect.Cacheable;
80004b90:	fe842783          	lw	a5,-24(s0)
80004b94:	57dc                	lw	a5,44(a5)
80004b96:	8b85                	andi	a5,a5,1
80004b98:	0ff7f713          	zext.b	a4,a5
80004b9c:	fec42783          	lw	a5,-20(s0)
80004ba0:	8b05                	andi	a4,a4,1
80004ba2:	0766                	slli	a4,a4,0x19
80004ba4:	4790                	lw	a2,8(a5)
80004ba6:	fe0006b7          	lui	a3,0xfe000
80004baa:	16fd                	addi	a3,a3,-1 # fdffffff <__data_source_start+0x7dff86b7>
80004bac:	8ef1                	and	a3,a3,a2
80004bae:	8f55                	or	a4,a4,a3
80004bb0:	c798                	sw	a4,8(a5)
    /* общее */
    ChannelStruct->CHANNEL_CFG_bit.NEXT_USEBURST = ChannelInitStruct->NextUseburst;
80004bb2:	fe842783          	lw	a5,-24(s0)
80004bb6:	47dc                	lw	a5,12(a5)
80004bb8:	8b85                	andi	a5,a5,1
80004bba:	0ff7f713          	zext.b	a4,a5
80004bbe:	fec42783          	lw	a5,-20(s0)
80004bc2:	8b05                	andi	a4,a4,1
80004bc4:	4794                	lw	a3,8(a5)
80004bc6:	9af9                	andi	a3,a3,-2
80004bc8:	8f55                	or	a4,a4,a3
80004bca:	c798                	sw	a4,8(a5)
    ChannelStruct->CHANNEL_CFG_bit.R_POWER = ChannelInitStruct->ArbitrationRate;
80004bcc:	fe842783          	lw	a5,-24(s0)
80004bd0:	4bdc                	lw	a5,20(a5)
80004bd2:	8bbd                	andi	a5,a5,15
80004bd4:	0ff7f713          	zext.b	a4,a5
80004bd8:	fec42783          	lw	a5,-20(s0)
80004bdc:	8b3d                	andi	a4,a4,15
80004bde:	0706                	slli	a4,a4,0x1
80004be0:	4794                	lw	a3,8(a5)
80004be2:	9a85                	andi	a3,a3,-31
80004be4:	8f55                	or	a4,a4,a3
80004be6:	c798                	sw	a4,8(a5)
    ChannelStruct->CHANNEL_CFG_bit.N_MINUS_1 = ChannelInitStruct->TransfersTotal - 1;
80004be8:	fe842783          	lw	a5,-24(s0)
80004bec:	4b9c                	lw	a5,16(a5)
80004bee:	07c2                	slli	a5,a5,0x10
80004bf0:	83c1                	srli	a5,a5,0x10
80004bf2:	17fd                	addi	a5,a5,-1
80004bf4:	07c2                	slli	a5,a5,0x10
80004bf6:	83c1                	srli	a5,a5,0x10
80004bf8:	3ff7f793          	andi	a5,a5,1023
80004bfc:	01079713          	slli	a4,a5,0x10
80004c00:	8341                	srli	a4,a4,0x10
80004c02:	fec42783          	lw	a5,-20(s0)
80004c06:	3ff77713          	andi	a4,a4,1023
80004c0a:	0716                	slli	a4,a4,0x5
80004c0c:	4790                	lw	a2,8(a5)
80004c0e:	76e1                	lui	a3,0xffff8
80004c10:	06fd                	addi	a3,a3,31 # ffff801f <__data_source_start+0x7fff06d7>
80004c12:	8ef1                	and	a3,a3,a2
80004c14:	8f55                	or	a4,a4,a3
80004c16:	c798                	sw	a4,8(a5)
    ChannelStruct->CHANNEL_CFG_bit.CYCLE_CTRL = ChannelInitStruct->Mode;
80004c18:	fe842783          	lw	a5,-24(s0)
80004c1c:	479c                	lw	a5,8(a5)
80004c1e:	8b9d                	andi	a5,a5,7
80004c20:	0ff7f713          	zext.b	a4,a5
80004c24:	fec42783          	lw	a5,-20(s0)
80004c28:	0776                	slli	a4,a4,0x1d
80004c2a:	4790                	lw	a2,8(a5)
80004c2c:	200006b7          	lui	a3,0x20000
80004c30:	16fd                	addi	a3,a3,-1 # 1fffffff <STACK_SIZE+0x1ffff7ff>
80004c32:	8ef1                	and	a3,a3,a2
80004c34:	8f55                	or	a4,a4,a3
80004c36:	c798                	sw	a4,8(a5)
}
80004c38:	0001                	nop
80004c3a:	4472                	lw	s0,28(sp)
80004c3c:	6105                	addi	sp,sp,32
80004c3e:	8082                	ret

80004c40 <DMA_ChannelStructInit>:
  * @param   ChannelInitStruct  Указатель на структуру типа @ref DMA_ChannelInit_TypeDef,
  *                             которую необходимо проинициализировать
  * @retval  void
  */
void DMA_ChannelStructInit(DMA_ChannelInit_TypeDef* ChannelInitStruct)
{
80004c40:	1101                	addi	sp,sp,-32
80004c42:	ce22                	sw	s0,28(sp)
80004c44:	1000                	addi	s0,sp,32
80004c46:	fea42623          	sw	a0,-20(s0)
    /* источник */
    ChannelInitStruct->SrcDataEndPtr = (uint32_t*)0x00000000;
80004c4a:	fec42783          	lw	a5,-20(s0)
80004c4e:	0007a023          	sw	zero,0(a5)
    ChannelInitStruct->SrcDataSize = DMA_DataSize_8;
80004c52:	fec42783          	lw	a5,-20(s0)
80004c56:	0207a823          	sw	zero,48(a5)
    ChannelInitStruct->SrcDataInc = DMA_DataInc_Disable;
80004c5a:	fec42783          	lw	a5,-20(s0)
80004c5e:	470d                	li	a4,3
80004c60:	df98                	sw	a4,56(a5)
    ChannelInitStruct->SrcProtect.Bufferable = DISABLE;
80004c62:	fec42783          	lw	a5,-20(s0)
80004c66:	0007ae23          	sw	zero,28(a5)
    ChannelInitStruct->SrcProtect.Priveleged = DISABLE;
80004c6a:	fec42783          	lw	a5,-20(s0)
80004c6e:	0007ac23          	sw	zero,24(a5)
    ChannelInitStruct->SrcProtect.Cacheable = DISABLE;
80004c72:	fec42783          	lw	a5,-20(s0)
80004c76:	0207a023          	sw	zero,32(a5)
    /* приемник */
    ChannelInitStruct->DstDataEndPtr = (uint32_t*)0x00000000;
80004c7a:	fec42783          	lw	a5,-20(s0)
80004c7e:	0007a223          	sw	zero,4(a5)
    ChannelInitStruct->DstDataSize = DMA_DataSize_8;
80004c82:	fec42783          	lw	a5,-20(s0)
80004c86:	0207aa23          	sw	zero,52(a5)
    ChannelInitStruct->DstDataInc = DMA_DataInc_Disable;
80004c8a:	fec42783          	lw	a5,-20(s0)
80004c8e:	470d                	li	a4,3
80004c90:	dfd8                	sw	a4,60(a5)
    ChannelInitStruct->DstProtect.Bufferable = DISABLE;
80004c92:	fec42783          	lw	a5,-20(s0)
80004c96:	0207a423          	sw	zero,40(a5)
    ChannelInitStruct->DstProtect.Priveleged = DISABLE;
80004c9a:	fec42783          	lw	a5,-20(s0)
80004c9e:	0207a223          	sw	zero,36(a5)
    ChannelInitStruct->DstProtect.Cacheable = DISABLE;
80004ca2:	fec42783          	lw	a5,-20(s0)
80004ca6:	0207a623          	sw	zero,44(a5)
    /* общее */
    ChannelInitStruct->NextUseburst = DISABLE;
80004caa:	fec42783          	lw	a5,-20(s0)
80004cae:	0007a623          	sw	zero,12(a5)
    ChannelInitStruct->ArbitrationRate = DMA_ArbitrationRate_1;
80004cb2:	fec42783          	lw	a5,-20(s0)
80004cb6:	0007aa23          	sw	zero,20(a5)
    ChannelInitStruct->TransfersTotal = 1;
80004cba:	fec42783          	lw	a5,-20(s0)
80004cbe:	4705                	li	a4,1
80004cc0:	cb98                	sw	a4,16(a5)
    ChannelInitStruct->Mode = DMA_Mode_Disable;
80004cc2:	fec42783          	lw	a5,-20(s0)
80004cc6:	0007a423          	sw	zero,8(a5)
}
80004cca:	0001                	nop
80004ccc:	4472                	lw	s0,28(sp)
80004cce:	6105                	addi	sp,sp,32
80004cd0:	8082                	ret

80004cd2 <DMA_DeInit>:
/**
  * @brief   Деинициализация контроллера DMA
  * @retval  void
  */
void DMA_DeInit()
{
80004cd2:	1141                	addi	sp,sp,-16
80004cd4:	c622                	sw	s0,12(sp)
80004cd6:	0800                	addi	s0,sp,16
    CLEAR_REG(DMA->CFG);
80004cd8:	3000c7b7          	lui	a5,0x3000c
80004cdc:	0007a223          	sw	zero,4(a5) # 3000c004 <STACK_SIZE+0x3000b804>
    CLEAR_REG(DMA->BASEPTR);
80004ce0:	3000c7b7          	lui	a5,0x3000c
80004ce4:	0007a423          	sw	zero,8(a5) # 3000c008 <STACK_SIZE+0x3000b808>
    WRITE_REG(DMA->ENCLR, DMA_Channel_All);
80004ce8:	3000c7b7          	lui	a5,0x3000c
80004cec:	01000737          	lui	a4,0x1000
80004cf0:	177d                	addi	a4,a4,-1 # ffffff <STACK_SIZE+0xfff7ff>
80004cf2:	d7d8                	sw	a4,44(a5)
    WRITE_REG(DMA->PRIORITYCLR, DMA_Channel_All);
80004cf4:	3000c7b7          	lui	a5,0x3000c
80004cf8:	01000737          	lui	a4,0x1000
80004cfc:	177d                	addi	a4,a4,-1 # ffffff <STACK_SIZE+0xfff7ff>
80004cfe:	dfd8                	sw	a4,60(a5)
    WRITE_REG(DMA->PRIALTCLR, DMA_Channel_All);
80004d00:	3000c7b7          	lui	a5,0x3000c
80004d04:	01000737          	lui	a4,0x1000
80004d08:	177d                	addi	a4,a4,-1 # ffffff <STACK_SIZE+0xfff7ff>
80004d0a:	dbd8                	sw	a4,52(a5)
    WRITE_REG(DMA->REQMASKCLR, DMA_Channel_All);
80004d0c:	3000c7b7          	lui	a5,0x3000c
80004d10:	01000737          	lui	a4,0x1000
80004d14:	177d                	addi	a4,a4,-1 # ffffff <STACK_SIZE+0xfff7ff>
80004d16:	d3d8                	sw	a4,36(a5)
    WRITE_REG(DMA->USEBURSTCLR, DMA_Channel_All);
80004d18:	3000c7b7          	lui	a5,0x3000c
80004d1c:	01000737          	lui	a4,0x1000
80004d20:	177d                	addi	a4,a4,-1 # ffffff <STACK_SIZE+0xfff7ff>
80004d22:	cfd8                	sw	a4,28(a5)
}
80004d24:	0001                	nop
80004d26:	4432                	lw	s0,12(sp)
80004d28:	0141                	addi	sp,sp,16
80004d2a:	8082                	ret

80004d2c <DMA_Init>:
  * @param   InitStruct  Указатель на структуру типа @ref DMA_Init_TypeDef,
  *                      которая содержит конфигурационную информацию
  * @retval  void
  */
void DMA_Init(DMA_Init_TypeDef* InitStruct)
{
80004d2c:	1101                	addi	sp,sp,-32
80004d2e:	ce06                	sw	ra,28(sp)
80004d30:	cc22                	sw	s0,24(sp)
80004d32:	1000                	addi	s0,sp,32
80004d34:	fea42623          	sw	a0,-20(s0)
    DMA_ProtectConfig(&(InitStruct->CtrlProtect));
80004d38:	fec42783          	lw	a5,-20(s0)
80004d3c:	0791                	addi	a5,a5,4 # 3000c004 <STACK_SIZE+0x3000b804>
80004d3e:	853e                	mv	a0,a5
80004d40:	3641                	jal	800048c0 <DMA_ProtectConfig>
    DMA_UseBurstCmd(InitStruct->Channel, InitStruct->UseBurst);
80004d42:	fec42783          	lw	a5,-20(s0)
80004d46:	4398                	lw	a4,0(a5)
80004d48:	fec42783          	lw	a5,-20(s0)
80004d4c:	4b9c                	lw	a5,16(a5)
80004d4e:	85be                	mv	a1,a5
80004d50:	853a                	mv	a0,a4
80004d52:	3675                	jal	800048fe <DMA_UseBurstCmd>
    DMA_AltCtrlCmd(InitStruct->Channel, InitStruct->AltCtrl);
80004d54:	fec42783          	lw	a5,-20(s0)
80004d58:	4398                	lw	a4,0(a5)
80004d5a:	fec42783          	lw	a5,-20(s0)
80004d5e:	4f9c                	lw	a5,24(a5)
80004d60:	85be                	mv	a1,a5
80004d62:	853a                	mv	a0,a4
80004d64:	3935                	jal	800049a0 <DMA_AltCtrlCmd>
    DMA_HighPriorityCmd(InitStruct->Channel, InitStruct->HighPriority);
80004d66:	fec42783          	lw	a5,-20(s0)
80004d6a:	4398                	lw	a4,0(a5)
80004d6c:	fec42783          	lw	a5,-20(s0)
80004d70:	4fdc                	lw	a5,28(a5)
80004d72:	85be                	mv	a1,a5
80004d74:	853a                	mv	a0,a4
80004d76:	3185                	jal	800049d6 <DMA_HighPriorityCmd>
    DMA_ReqMaskCmd(InitStruct->Channel, InitStruct->ReqMask);
80004d78:	fec42783          	lw	a5,-20(s0)
80004d7c:	4398                	lw	a4,0(a5)
80004d7e:	fec42783          	lw	a5,-20(s0)
80004d82:	4bdc                	lw	a5,20(a5)
80004d84:	85be                	mv	a1,a5
80004d86:	853a                	mv	a0,a4
80004d88:	3675                	jal	80004934 <DMA_ReqMaskCmd>
    DMA_ChannelEnableCmd(InitStruct->Channel, InitStruct->ChannelEnable);
80004d8a:	fec42783          	lw	a5,-20(s0)
80004d8e:	4398                	lw	a4,0(a5)
80004d90:	fec42783          	lw	a5,-20(s0)
80004d94:	539c                	lw	a5,32(a5)
80004d96:	85be                	mv	a1,a5
80004d98:	853a                	mv	a0,a4
80004d9a:	3ec1                	jal	8000496a <DMA_ChannelEnableCmd>
}
80004d9c:	0001                	nop
80004d9e:	40f2                	lw	ra,28(sp)
80004da0:	4462                	lw	s0,24(sp)
80004da2:	6105                	addi	sp,sp,32
80004da4:	8082                	ret

80004da6 <DMA_StructInit>:
  * @param   InitStruct  Указатель на структуру типа @ref DMA_Init_TypeDef,
  *                      которую необходимо проинициализировать
  * @retval  void
  */
void DMA_StructInit(DMA_Init_TypeDef* InitStruct)
{
80004da6:	1101                	addi	sp,sp,-32
80004da8:	ce22                	sw	s0,28(sp)
80004daa:	1000                	addi	s0,sp,32
80004dac:	fea42623          	sw	a0,-20(s0)
    InitStruct->Channel = DMA_Channel_All;
80004db0:	fec42783          	lw	a5,-20(s0)
80004db4:	01000737          	lui	a4,0x1000
80004db8:	177d                	addi	a4,a4,-1 # ffffff <STACK_SIZE+0xfff7ff>
80004dba:	c398                	sw	a4,0(a5)
    InitStruct->ChannelEnable = DISABLE;
80004dbc:	fec42783          	lw	a5,-20(s0)
80004dc0:	0207a023          	sw	zero,32(a5)
    InitStruct->HighPriority = DISABLE;
80004dc4:	fec42783          	lw	a5,-20(s0)
80004dc8:	0007ae23          	sw	zero,28(a5)
    InitStruct->AltCtrl = DISABLE;
80004dcc:	fec42783          	lw	a5,-20(s0)
80004dd0:	0007ac23          	sw	zero,24(a5)
    InitStruct->ReqMask = DISABLE;
80004dd4:	fec42783          	lw	a5,-20(s0)
80004dd8:	0007aa23          	sw	zero,20(a5)
    InitStruct->UseBurst = DISABLE;
80004ddc:	fec42783          	lw	a5,-20(s0)
80004de0:	0007a823          	sw	zero,16(a5)
    InitStruct->CtrlProtect.Bufferable = DISABLE;
80004de4:	fec42783          	lw	a5,-20(s0)
80004de8:	0007a423          	sw	zero,8(a5)
    InitStruct->CtrlProtect.Cacheable = DISABLE;
80004dec:	fec42783          	lw	a5,-20(s0)
80004df0:	0007a623          	sw	zero,12(a5)
    InitStruct->CtrlProtect.Priveleged = DISABLE;
80004df4:	fec42783          	lw	a5,-20(s0)
80004df8:	0007a223          	sw	zero,4(a5)
}
80004dfc:	0001                	nop
80004dfe:	4472                	lw	s0,28(sp)
80004e00:	6105                	addi	sp,sp,32
80004e02:	8082                	ret

80004e04 <__NOP>:
/* Простейшая реализация NOP для использования в PLIB (например, plib015_flash.c).
 * В старых версиях CMSIS была функция __NOP(), здесь оформляем её как inline.
 */
#ifndef __NOP
__STATIC_INLINE void __NOP(void)
{
80004e04:	1141                	addi	sp,sp,-16
80004e06:	c622                	sw	s0,12(sp)
80004e08:	0800                	addi	s0,sp,16
    __asm volatile ("nop");
80004e0a:	0001                	nop
}
80004e0c:	0001                	nop
80004e0e:	4432                	lw	s0,12(sp)
80004e10:	0141                	addi	sp,sp,16
80004e12:	8082                	ret

80004e14 <FLASH_SetAddr>:
  * @brief   Установка значения адреса
  * @param   AddrVal  Значение адреса
  * @retval  void
  */
__STATIC_INLINE void FLASH_SetAddr(uint32_t AddrVal)
{
80004e14:	1101                	addi	sp,sp,-32
80004e16:	ce22                	sw	s0,28(sp)
80004e18:	1000                	addi	s0,sp,32
80004e1a:	fea42623          	sw	a0,-20(s0)
    WRITE_REG(FLASH->ADDR, AddrVal);
80004e1e:	3000d7b7          	lui	a5,0x3000d
80004e22:	fec42703          	lw	a4,-20(s0)
80004e26:	c398                	sw	a4,0(a5)
}
80004e28:	0001                	nop
80004e2a:	4472                	lw	s0,28(sp)
80004e2c:	6105                	addi	sp,sp,32
80004e2e:	8082                	ret

80004e30 <FLASH_SetData>:
  * @param   DataNum  Номер слова данных
  * @param   DataVal  Значение слова данных
  * @retval  void
  */
__STATIC_INLINE void FLASH_SetData(uint32_t DataNum, uint32_t DataVal)
{
80004e30:	1101                	addi	sp,sp,-32
80004e32:	ce22                	sw	s0,28(sp)
80004e34:	1000                	addi	s0,sp,32
80004e36:	fea42623          	sw	a0,-20(s0)
80004e3a:	feb42423          	sw	a1,-24(s0)
    assert_param(IS_FLASH_DATA_NUM(DataNum));

    WRITE_REG(FLASH->DATA[DataNum].DATA, DataVal);
80004e3e:	3000d737          	lui	a4,0x3000d
80004e42:	fec42783          	lw	a5,-20(s0)
80004e46:	078a                	slli	a5,a5,0x2
80004e48:	97ba                	add	a5,a5,a4
80004e4a:	fe842703          	lw	a4,-24(s0)
80004e4e:	c3d8                	sw	a4,4(a5)
}
80004e50:	0001                	nop
80004e52:	4472                	lw	s0,28(sp)
80004e54:	6105                	addi	sp,sp,32
80004e56:	8082                	ret

80004e58 <FLASH_GetData>:
  * @brief   Получение выбранного слова данных
  * @param   DataNum  Номер слова данных
  * @retval  Val  Значение слова данных
  */
__STATIC_INLINE uint32_t FLASH_GetData(uint32_t DataNum)
{
80004e58:	1101                	addi	sp,sp,-32
80004e5a:	ce22                	sw	s0,28(sp)
80004e5c:	1000                	addi	s0,sp,32
80004e5e:	fea42623          	sw	a0,-20(s0)
    assert_param(IS_FLASH_DATA_NUM(DataNum));

    return READ_REG(FLASH->DATA[DataNum].DATA);
80004e62:	3000d737          	lui	a4,0x3000d
80004e66:	fec42783          	lw	a5,-20(s0)
80004e6a:	078a                	slli	a5,a5,0x2
80004e6c:	97ba                	add	a5,a5,a4
80004e6e:	43dc                	lw	a5,4(a5)
}
80004e70:	853e                	mv	a0,a5
80004e72:	4472                	lw	s0,28(sp)
80004e74:	6105                	addi	sp,sp,32
80004e76:	8082                	ret

80004e78 <FLASH_SetCmd>:
  * @param   Cmd  Команда
  * @param   Region  Область
  * @retval  void
  */
__STATIC_INLINE void FLASH_SetCmd(FLASH_Cmd_TypeDef Cmd, FLASH_Region_TypeDef Region)
{
80004e78:	1101                	addi	sp,sp,-32
80004e7a:	ce22                	sw	s0,28(sp)
80004e7c:	1000                	addi	s0,sp,32
80004e7e:	fea42623          	sw	a0,-20(s0)
80004e82:	feb42423          	sw	a1,-24(s0)
    WRITE_REG(FLASH->CMD, ((uint32_t)FLASH_CMD_KEY_Access << FLASH_CMD_KEY_Pos) | (uint32_t)Region | (uint32_t)Cmd);
80004e86:	fe842703          	lw	a4,-24(s0)
80004e8a:	fec42783          	lw	a5,-20(s0)
80004e8e:	00f766b3          	or	a3,a4,a5
80004e92:	3000d7b7          	lui	a5,0x3000d
80004e96:	c0de0737          	lui	a4,0xc0de0
80004e9a:	8f55                	or	a4,a4,a3
80004e9c:	c3f8                	sw	a4,68(a5)
}
80004e9e:	0001                	nop
80004ea0:	4472                	lw	s0,28(sp)
80004ea2:	6105                	addi	sp,sp,32
80004ea4:	8082                	ret

80004ea6 <FLASH_BusyStatus>:
/**
  * @brief   Получение статуса занятости контроллера флеш-памяти
  * @retval  Status
  */
__STATIC_INLINE FlagStatus FLASH_BusyStatus(void)
{
80004ea6:	1141                	addi	sp,sp,-16
80004ea8:	c622                	sw	s0,12(sp)
80004eaa:	0800                	addi	s0,sp,16
    return (FlagStatus)READ_BIT(FLASH->STAT, FLASH_STAT_BUSY_Msk);
80004eac:	3000d7b7          	lui	a5,0x3000d
80004eb0:	47bc                	lw	a5,72(a5)
80004eb2:	8b85                	andi	a5,a5,1
}
80004eb4:	853e                	mv	a0,a5
80004eb6:	4432                	lw	s0,12(sp)
80004eb8:	0141                	addi	sp,sp,16
80004eba:	8082                	ret

80004ebc <FLASH_ReadData>:
  * @param   DataArr  Указатель на массив, в который будут переданы 2 32-битных слова данных
  * @param   Region  Выбор области
  * @retval  void
  */
void FLASH_ReadData(uint32_t AddrVal, uint32_t* DataArr, FLASH_Region_TypeDef Region)
{
80004ebc:	7179                	addi	sp,sp,-48
80004ebe:	d606                	sw	ra,44(sp)
80004ec0:	d422                	sw	s0,40(sp)
80004ec2:	d226                	sw	s1,36(sp)
80004ec4:	1800                	addi	s0,sp,48
80004ec6:	fca42e23          	sw	a0,-36(s0)
80004eca:	fcb42c23          	sw	a1,-40(s0)
80004ece:	fcc42a23          	sw	a2,-44(s0)
    if (Region == FLASH_Region_Main)
        assert_param(IS_FLASH_MAIN_ADDR(AddrVal));
    else /* (Region == FLASH_Region_NVR) */
        assert_param(IS_FLASH_NVR_ADDR(AddrVal));

    FLASH_SetAddr(AddrVal);
80004ed2:	fdc42503          	lw	a0,-36(s0)
80004ed6:	3f3d                	jal	80004e14 <FLASH_SetAddr>
    FLASH_SetCmd(FLASH_Cmd_Read, Region);
80004ed8:	fd442583          	lw	a1,-44(s0)
80004edc:	4505                	li	a0,1
80004ede:	3f69                	jal	80004e78 <FLASH_SetCmd>
    __NOP5();
80004ee0:	3715                	jal	80004e04 <__NOP>
80004ee2:	370d                	jal	80004e04 <__NOP>
80004ee4:	3705                	jal	80004e04 <__NOP>
80004ee6:	3f39                	jal	80004e04 <__NOP>
80004ee8:	3f31                	jal	80004e04 <__NOP>
    while (FLASH_BusyStatus()) {
80004eea:	0001                	nop
80004eec:	3f6d                	jal	80004ea6 <FLASH_BusyStatus>
80004eee:	87aa                	mv	a5,a0
80004ef0:	fff5                	bnez	a5,80004eec <FLASH_ReadData+0x30>
    };
    for (uint32_t i = 0; i < MEM_FLASH_BUS_WIDTH_WORDS; i++) {
80004ef2:	fe042623          	sw	zero,-20(s0)
80004ef6:	a015                	j	80004f1a <FLASH_ReadData+0x5e>
        DataArr[i] = FLASH_GetData(i);
80004ef8:	fec42783          	lw	a5,-20(s0)
80004efc:	078a                	slli	a5,a5,0x2
80004efe:	fd842703          	lw	a4,-40(s0)
80004f02:	00f704b3          	add	s1,a4,a5
80004f06:	fec42503          	lw	a0,-20(s0)
80004f0a:	37b9                	jal	80004e58 <FLASH_GetData>
80004f0c:	87aa                	mv	a5,a0
80004f0e:	c09c                	sw	a5,0(s1)
    for (uint32_t i = 0; i < MEM_FLASH_BUS_WIDTH_WORDS; i++) {
80004f10:	fec42783          	lw	a5,-20(s0)
80004f14:	0785                	addi	a5,a5,1 # 3000d001 <STACK_SIZE+0x3000c801>
80004f16:	fef42623          	sw	a5,-20(s0)
80004f1a:	fec42703          	lw	a4,-20(s0)
80004f1e:	47bd                	li	a5,15
80004f20:	fce7fce3          	bgeu	a5,a4,80004ef8 <FLASH_ReadData+0x3c>
    }
}
80004f24:	0001                	nop
80004f26:	0001                	nop
80004f28:	50b2                	lw	ra,44(sp)
80004f2a:	5422                	lw	s0,40(sp)
80004f2c:	5492                	lw	s1,36(sp)
80004f2e:	6145                	addi	sp,sp,48
80004f30:	8082                	ret

80004f32 <FLASH_WriteData>:
  * @param   DataArr  Указатель на массив, из которого будут взяты 2 32-битных слова данных
  * @param   Region  Выбор области
  * @retval  void
  */
void FLASH_WriteData(uint32_t AddrVal, uint32_t* DataArr, FLASH_Region_TypeDef Region)
{
80004f32:	7179                	addi	sp,sp,-48
80004f34:	d606                	sw	ra,44(sp)
80004f36:	d422                	sw	s0,40(sp)
80004f38:	1800                	addi	s0,sp,48
80004f3a:	fca42e23          	sw	a0,-36(s0)
80004f3e:	fcb42c23          	sw	a1,-40(s0)
80004f42:	fcc42a23          	sw	a2,-44(s0)
    if (Region == FLASH_Region_Main)
        assert_param(IS_FLASH_MAIN_ADDR(AddrVal));
    else /* (Region == FLASH_Region_NVR) */
        assert_param(IS_FLASH_NVR_ADDR(AddrVal));

    FLASH_SetAddr(AddrVal);
80004f46:	fdc42503          	lw	a0,-36(s0)
80004f4a:	35e9                	jal	80004e14 <FLASH_SetAddr>
    for (uint32_t i = 0; i < MEM_FLASH_BUS_WIDTH_WORDS; i++) {
80004f4c:	fe042623          	sw	zero,-20(s0)
80004f50:	a00d                	j	80004f72 <FLASH_WriteData+0x40>
        FLASH_SetData(i, DataArr[i]);
80004f52:	fec42783          	lw	a5,-20(s0)
80004f56:	078a                	slli	a5,a5,0x2
80004f58:	fd842703          	lw	a4,-40(s0)
80004f5c:	97ba                	add	a5,a5,a4
80004f5e:	439c                	lw	a5,0(a5)
80004f60:	85be                	mv	a1,a5
80004f62:	fec42503          	lw	a0,-20(s0)
80004f66:	35e9                	jal	80004e30 <FLASH_SetData>
    for (uint32_t i = 0; i < MEM_FLASH_BUS_WIDTH_WORDS; i++) {
80004f68:	fec42783          	lw	a5,-20(s0)
80004f6c:	0785                	addi	a5,a5,1
80004f6e:	fef42623          	sw	a5,-20(s0)
80004f72:	fec42703          	lw	a4,-20(s0)
80004f76:	47bd                	li	a5,15
80004f78:	fce7fde3          	bgeu	a5,a4,80004f52 <FLASH_WriteData+0x20>
    }
    FLASH_SetCmd(FLASH_Cmd_Write, Region);
80004f7c:	fd442583          	lw	a1,-44(s0)
80004f80:	4509                	li	a0,2
80004f82:	3ddd                	jal	80004e78 <FLASH_SetCmd>
    __NOP5();
80004f84:	3541                	jal	80004e04 <__NOP>
80004f86:	3dbd                	jal	80004e04 <__NOP>
80004f88:	3db5                	jal	80004e04 <__NOP>
80004f8a:	3dad                	jal	80004e04 <__NOP>
80004f8c:	3da5                	jal	80004e04 <__NOP>
    while (FLASH_BusyStatus()) {
80004f8e:	0001                	nop
80004f90:	3f19                	jal	80004ea6 <FLASH_BusyStatus>
80004f92:	87aa                	mv	a5,a0
80004f94:	fff5                	bnez	a5,80004f90 <FLASH_WriteData+0x5e>
    };
}
80004f96:	0001                	nop
80004f98:	0001                	nop
80004f9a:	50b2                	lw	ra,44(sp)
80004f9c:	5422                	lw	s0,40(sp)
80004f9e:	6145                	addi	sp,sp,48
80004fa0:	8082                	ret

80004fa2 <FLASH_ErasePage>:
  * @param   AddrVal  Начальный адрес страницы
  * @param   Region  Выбор области
  * @retval  void
  */
void FLASH_ErasePage(uint32_t AddrVal, FLASH_Region_TypeDef Region)
{
80004fa2:	1101                	addi	sp,sp,-32
80004fa4:	ce06                	sw	ra,28(sp)
80004fa6:	cc22                	sw	s0,24(sp)
80004fa8:	1000                	addi	s0,sp,32
80004faa:	fea42623          	sw	a0,-20(s0)
80004fae:	feb42423          	sw	a1,-24(s0)
    if (Region == FLASH_Region_Main)
        assert_param(IS_FLASH_MAIN_ADDR(AddrVal));
    else /* (Region == FLASH_Region_NVR) */
        assert_param(IS_FLASH_NVR_ADDR(AddrVal));

    FLASH_SetAddr(AddrVal);
80004fb2:	fec42503          	lw	a0,-20(s0)
80004fb6:	3db9                	jal	80004e14 <FLASH_SetAddr>
    FLASH_SetCmd(FLASH_Cmd_ErasePage, Region);
80004fb8:	fe842583          	lw	a1,-24(s0)
80004fbc:	4511                	li	a0,4
80004fbe:	3d6d                	jal	80004e78 <FLASH_SetCmd>
    __NOP5();
80004fc0:	3591                	jal	80004e04 <__NOP>
80004fc2:	3589                	jal	80004e04 <__NOP>
80004fc4:	3581                	jal	80004e04 <__NOP>
80004fc6:	3d3d                	jal	80004e04 <__NOP>
80004fc8:	3d35                	jal	80004e04 <__NOP>
    while (FLASH_BusyStatus()) {
80004fca:	0001                	nop
80004fcc:	3de9                	jal	80004ea6 <FLASH_BusyStatus>
80004fce:	87aa                	mv	a5,a0
80004fd0:	fff5                	bnez	a5,80004fcc <FLASH_ErasePage+0x2a>
    };
}
80004fd2:	0001                	nop
80004fd4:	0001                	nop
80004fd6:	40f2                	lw	ra,28(sp)
80004fd8:	4462                	lw	s0,24(sp)
80004fda:	6105                	addi	sp,sp,32
80004fdc:	8082                	ret

80004fde <FLASH_EraseFull>:
  * @brief   Стирание области флеш полностью
  * @param   Region  Выбор области
  * @retval  void
  */
void FLASH_EraseFull(FLASH_Region_TypeDef Region)
{
80004fde:	1101                	addi	sp,sp,-32
80004fe0:	ce06                	sw	ra,28(sp)
80004fe2:	cc22                	sw	s0,24(sp)
80004fe4:	1000                	addi	s0,sp,32
80004fe6:	fea42623          	sw	a0,-20(s0)
    assert_param(IS_FLASH_REGION(Region));

    FLASH_SetCmd(FLASH_Cmd_EraseFull, Region);
80004fea:	fec42583          	lw	a1,-20(s0)
80004fee:	4531                	li	a0,12
80004ff0:	3561                	jal	80004e78 <FLASH_SetCmd>
    __NOP5();
80004ff2:	3d09                	jal	80004e04 <__NOP>
80004ff4:	3d01                	jal	80004e04 <__NOP>
80004ff6:	3539                	jal	80004e04 <__NOP>
80004ff8:	3531                	jal	80004e04 <__NOP>
80004ffa:	3529                	jal	80004e04 <__NOP>
    while (FLASH_BusyStatus()) {
80004ffc:	0001                	nop
80004ffe:	3565                	jal	80004ea6 <FLASH_BusyStatus>
80005000:	87aa                	mv	a5,a0
80005002:	fff5                	bnez	a5,80004ffe <FLASH_EraseFull+0x20>
    };
}
80005004:	0001                	nop
80005006:	0001                	nop
80005008:	40f2                	lw	ra,28(sp)
8000500a:	4462                	lw	s0,24(sp)
8000500c:	6105                	addi	sp,sp,32
8000500e:	8082                	ret

80005010 <RCU_AHBRstCmd>:
{
80005010:	1101                	addi	sp,sp,-32
80005012:	ce22                	sw	s0,28(sp)
80005014:	1000                	addi	s0,sp,32
80005016:	fea42623          	sw	a0,-20(s0)
8000501a:	feb42423          	sw	a1,-24(s0)
    MODIFY_REG(RCU->RSTDISAHB, AHBRst, State ? AHBRst : 0);
8000501e:	3000e7b7          	lui	a5,0x3000e
80005022:	4b98                	lw	a4,16(a5)
80005024:	fec42783          	lw	a5,-20(s0)
80005028:	fff7c793          	not	a5,a5
8000502c:	00f776b3          	and	a3,a4,a5
80005030:	fe842783          	lw	a5,-24(s0)
80005034:	c781                	beqz	a5,8000503c <RCU_AHBRstCmd+0x2c>
80005036:	fec42783          	lw	a5,-20(s0)
8000503a:	a011                	j	8000503e <RCU_AHBRstCmd+0x2e>
8000503c:	4781                	li	a5,0
8000503e:	3000e737          	lui	a4,0x3000e
80005042:	8fd5                	or	a5,a5,a3
80005044:	cb1c                	sw	a5,16(a4)
}
80005046:	0001                	nop
80005048:	4472                	lw	s0,28(sp)
8000504a:	6105                	addi	sp,sp,32
8000504c:	8082                	ret

8000504e <GPIO_OutCmd>:
  * @param   Pin  Выбор пинов. Любая совокупность значений значений GPIO_Pin_x (@ref GPIO_Pin_Define).
  * @param   State  Выбор состояния
  * @retval  void
  */
__STATIC_INLINE void GPIO_OutCmd(GPIO_TypeDef* GPIOx, uint32_t Pin, FunctionalState State)
{
8000504e:	1101                	addi	sp,sp,-32
80005050:	ce22                	sw	s0,28(sp)
80005052:	1000                	addi	s0,sp,32
80005054:	fea42623          	sw	a0,-20(s0)
80005058:	feb42423          	sw	a1,-24(s0)
8000505c:	fec42223          	sw	a2,-28(s0)
    assert_param(IS_GPIO_PERIPH(GPIOx));
    assert_param(IS_GPIO_PIN(Pin));
    assert_param(IS_FUNCTIONAL_STATE(State));

    if (State == ENABLE)
80005060:	fe442703          	lw	a4,-28(s0)
80005064:	4785                	li	a5,1
80005066:	00f71863          	bne	a4,a5,80005076 <GPIO_OutCmd+0x28>
        WRITE_REG(GPIOx->OUTENSET, Pin);
8000506a:	fec42783          	lw	a5,-20(s0)
8000506e:	fe842703          	lw	a4,-24(s0)
80005072:	d7d8                	sw	a4,44(a5)
    else
        WRITE_REG(GPIOx->OUTENCLR, Pin);
}
80005074:	a031                	j	80005080 <GPIO_OutCmd+0x32>
        WRITE_REG(GPIOx->OUTENCLR, Pin);
80005076:	fec42783          	lw	a5,-20(s0)
8000507a:	fe842703          	lw	a4,-24(s0)
8000507e:	db98                	sw	a4,48(a5)
}
80005080:	0001                	nop
80005082:	4472                	lw	s0,28(sp)
80005084:	6105                	addi	sp,sp,32
80005086:	8082                	ret

80005088 <GPIO_AltFuncCmd>:
  * @param   Pin  Выбор пинов. Любая совокупность значений значений GPIO_Pin_x (@ref GPIO_Pin_Define).
  * @param   State  Выбор состояния
  * @retval  void
  */
__STATIC_INLINE void GPIO_AltFuncCmd(GPIO_TypeDef* GPIOx, uint32_t Pin, FunctionalState State)
{
80005088:	1101                	addi	sp,sp,-32
8000508a:	ce22                	sw	s0,28(sp)
8000508c:	1000                	addi	s0,sp,32
8000508e:	fea42623          	sw	a0,-20(s0)
80005092:	feb42423          	sw	a1,-24(s0)
80005096:	fec42223          	sw	a2,-28(s0)
    assert_param(IS_GPIO_PERIPH(GPIOx));
    assert_param(IS_GPIO_PIN(Pin));
    assert_param(IS_FUNCTIONAL_STATE(State));

    if (State == ENABLE)
8000509a:	fe442703          	lw	a4,-28(s0)
8000509e:	4785                	li	a5,1
800050a0:	00f71863          	bne	a4,a5,800050b0 <GPIO_AltFuncCmd+0x28>
        WRITE_REG(GPIOx->ALTFUNCSET, Pin);
800050a4:	fec42783          	lw	a5,-20(s0)
800050a8:	fe842703          	lw	a4,-24(s0)
800050ac:	dbd8                	sw	a4,52(a5)
    else
        WRITE_REG(GPIOx->ALTFUNCCLR, Pin);
}
800050ae:	a031                	j	800050ba <GPIO_AltFuncCmd+0x32>
        WRITE_REG(GPIOx->ALTFUNCCLR, Pin);
800050b0:	fec42783          	lw	a5,-20(s0)
800050b4:	fe842703          	lw	a4,-24(s0)
800050b8:	df98                	sw	a4,56(a5)
}
800050ba:	0001                	nop
800050bc:	4472                	lw	s0,28(sp)
800050be:	6105                	addi	sp,sp,32
800050c0:	8082                	ret

800050c2 <modeConfig>:
  * @param   Pin  Выбор пинов. Любая совокупность значений GPIO_Pin_x (@ref GPIO_Pin_Define).
  * @param   Val  Конфигурация пинов (2-битное значение)
  * @retval  void
  */
static void modeConfig(volatile uint32_t* Reg, uint32_t Pin, uint32_t Val)
{
800050c2:	7179                	addi	sp,sp,-48
800050c4:	d622                	sw	s0,44(sp)
800050c6:	1800                	addi	s0,sp,48
800050c8:	fca42e23          	sw	a0,-36(s0)
800050cc:	fcb42c23          	sw	a1,-40(s0)
800050d0:	fcc42a23          	sw	a2,-44(s0)
    uint32_t reg_temp = *Reg;
800050d4:	fdc42783          	lw	a5,-36(s0)
800050d8:	439c                	lw	a5,0(a5)
800050da:	fef42623          	sw	a5,-20(s0)

    for (uint32_t i = 0; i < 16; i++) {
800050de:	fe042423          	sw	zero,-24(s0)
800050e2:	a889                	j	80005134 <modeConfig+0x72>
        if (Pin & (1 << i)) {
800050e4:	fe842783          	lw	a5,-24(s0)
800050e8:	4705                	li	a4,1
800050ea:	00f717b3          	sll	a5,a4,a5
800050ee:	873e                	mv	a4,a5
800050f0:	fd842783          	lw	a5,-40(s0)
800050f4:	8ff9                	and	a5,a5,a4
800050f6:	cb95                	beqz	a5,8000512a <modeConfig+0x68>
            reg_temp &= ~(0x3UL << i * 0x2UL);
800050f8:	fe842783          	lw	a5,-24(s0)
800050fc:	0786                	slli	a5,a5,0x1
800050fe:	470d                	li	a4,3
80005100:	00f717b3          	sll	a5,a4,a5
80005104:	fff7c793          	not	a5,a5
80005108:	fec42703          	lw	a4,-20(s0)
8000510c:	8ff9                	and	a5,a5,a4
8000510e:	fef42623          	sw	a5,-20(s0)
            reg_temp |= Val << i * 0x2UL;
80005112:	fe842783          	lw	a5,-24(s0)
80005116:	0786                	slli	a5,a5,0x1
80005118:	fd442703          	lw	a4,-44(s0)
8000511c:	00f717b3          	sll	a5,a4,a5
80005120:	fec42703          	lw	a4,-20(s0)
80005124:	8fd9                	or	a5,a5,a4
80005126:	fef42623          	sw	a5,-20(s0)
    for (uint32_t i = 0; i < 16; i++) {
8000512a:	fe842783          	lw	a5,-24(s0)
8000512e:	0785                	addi	a5,a5,1 # 3000e001 <STACK_SIZE+0x3000d801>
80005130:	fef42423          	sw	a5,-24(s0)
80005134:	fe842703          	lw	a4,-24(s0)
80005138:	47bd                	li	a5,15
8000513a:	fae7f5e3          	bgeu	a5,a4,800050e4 <modeConfig+0x22>
        }
    }

    WRITE_REG(*Reg, reg_temp);
8000513e:	fdc42783          	lw	a5,-36(s0)
80005142:	fec42703          	lw	a4,-20(s0)
80005146:	c398                	sw	a4,0(a5)
}
80005148:	0001                	nop
8000514a:	5432                	lw	s0,44(sp)
8000514c:	6145                	addi	sp,sp,48
8000514e:	8082                	ret

80005150 <GPIO_OutModeConfig>:
  * @param   Pin  Выбор пинов. Любая совокупность значений GPIO_Pin_x (@ref GPIO_Pin_Define).
  * @param   OutMode  Режим работы
  * @retval  void
  */
void GPIO_OutModeConfig(GPIO_TypeDef* GPIOx, uint32_t Pin, GPIO_OutMode_TypeDef OutMode)
{
80005150:	1101                	addi	sp,sp,-32
80005152:	ce06                	sw	ra,28(sp)
80005154:	cc22                	sw	s0,24(sp)
80005156:	1000                	addi	s0,sp,32
80005158:	fea42623          	sw	a0,-20(s0)
8000515c:	feb42423          	sw	a1,-24(s0)
80005160:	fec42223          	sw	a2,-28(s0)
    assert_param(IS_GPIO_PERIPH(GPIOx));
    assert_param(IS_GPIO_PIN(Pin));
    assert_param(IS_GPIO_OUT_MODE(OutMode));

    modeConfig(&(GPIOx->OUTMODE), Pin, (uint32_t)OutMode);
80005164:	fec42783          	lw	a5,-20(s0)
80005168:	02478793          	addi	a5,a5,36
8000516c:	fe442603          	lw	a2,-28(s0)
80005170:	fe842583          	lw	a1,-24(s0)
80005174:	853e                	mv	a0,a5
80005176:	37b1                	jal	800050c2 <modeConfig>
}
80005178:	0001                	nop
8000517a:	40f2                	lw	ra,28(sp)
8000517c:	4462                	lw	s0,24(sp)
8000517e:	6105                	addi	sp,sp,32
80005180:	8082                	ret

80005182 <GPIO_PullModeConfig>:
  * @param   Pin  Выбор пинов. Любая совокупность значений GPIO_Pin_x (@ref GPIO_Pin_Define).
  * @param   PullMode  Режим работы
  * @retval  void
  */
void GPIO_PullModeConfig(GPIO_TypeDef* GPIOx, uint32_t Pin, GPIO_PullMode_TypeDef PullMode)
{
80005182:	1101                	addi	sp,sp,-32
80005184:	ce22                	sw	s0,28(sp)
80005186:	1000                	addi	s0,sp,32
80005188:	fea42623          	sw	a0,-20(s0)
8000518c:	feb42423          	sw	a1,-24(s0)
80005190:	fec42223          	sw	a2,-28(s0)
    assert_param(IS_GPIO_PERIPH(GPIOx));
    assert_param(IS_GPIO_PIN(Pin));
    assert_param(IS_GPIO_PULL_MODE(PullMode));

    if (PullMode == GPIO_PullMode_PU) {
80005194:	fe442703          	lw	a4,-28(s0)
80005198:	4785                	li	a5,1
8000519a:	00f71c63          	bne	a4,a5,800051b2 <GPIO_PullModeConfig+0x30>
        SET_BIT(GPIOx->PULLMODE, Pin);
8000519e:	fec42783          	lw	a5,-20(s0)
800051a2:	5398                	lw	a4,32(a5)
800051a4:	fe842783          	lw	a5,-24(s0)
800051a8:	8f5d                	or	a4,a4,a5
800051aa:	fec42783          	lw	a5,-20(s0)
800051ae:	d398                	sw	a4,32(a5)
    } else {
        CLEAR_BIT(GPIOx->PULLMODE, Pin);
    }
}
800051b0:	a821                	j	800051c8 <GPIO_PullModeConfig+0x46>
        CLEAR_BIT(GPIOx->PULLMODE, Pin);
800051b2:	fec42783          	lw	a5,-20(s0)
800051b6:	5398                	lw	a4,32(a5)
800051b8:	fe842783          	lw	a5,-24(s0)
800051bc:	fff7c793          	not	a5,a5
800051c0:	8f7d                	and	a4,a4,a5
800051c2:	fec42783          	lw	a5,-20(s0)
800051c6:	d398                	sw	a4,32(a5)
}
800051c8:	0001                	nop
800051ca:	4472                	lw	s0,28(sp)
800051cc:	6105                	addi	sp,sp,32
800051ce:	8082                	ret

800051d0 <GPIO_AltFuncNumConfig>:
  * @param   Pin  Выбор пинов. Любая совокупность значений GPIO_Pin_x (@ref GPIO_Pin_Define).
  * @param   AltFuncNum  Номер функции
  * @retval  void
  */
void GPIO_AltFuncNumConfig(GPIO_TypeDef* GPIOx, uint32_t Pin, GPIO_AltFuncNum_TypeDef AltFuncNum)
{
800051d0:	7179                	addi	sp,sp,-48
800051d2:	d622                	sw	s0,44(sp)
800051d4:	1800                	addi	s0,sp,48
800051d6:	fca42e23          	sw	a0,-36(s0)
800051da:	fcb42c23          	sw	a1,-40(s0)
800051de:	fcc42a23          	sw	a2,-44(s0)
    assert_param(IS_GPIO_PIN(Pin));
    assert_param(IS_GPIO_ALT_FUNC_NUM(AltFuncNum));

    uint32_t temp;

    temp = GPIOx->ALTFUNCNUM;
800051e2:	fdc42783          	lw	a5,-36(s0)
800051e6:	5fdc                	lw	a5,60(a5)
800051e8:	fef42623          	sw	a5,-20(s0)

    for (uint32_t i = 0; i < 16; i++) {
800051ec:	fe042423          	sw	zero,-24(s0)
800051f0:	a889                	j	80005242 <GPIO_AltFuncNumConfig+0x72>
    	if (Pin & (1 << i))
800051f2:	fe842783          	lw	a5,-24(s0)
800051f6:	4705                	li	a4,1
800051f8:	00f717b3          	sll	a5,a4,a5
800051fc:	873e                	mv	a4,a5
800051fe:	fd842783          	lw	a5,-40(s0)
80005202:	8ff9                	and	a5,a5,a4
80005204:	cb95                	beqz	a5,80005238 <GPIO_AltFuncNumConfig+0x68>
    	{
    		temp &= ~(0x3UL << i * 0x2UL);
80005206:	fe842783          	lw	a5,-24(s0)
8000520a:	0786                	slli	a5,a5,0x1
8000520c:	470d                	li	a4,3
8000520e:	00f717b3          	sll	a5,a4,a5
80005212:	fff7c793          	not	a5,a5
80005216:	fec42703          	lw	a4,-20(s0)
8000521a:	8ff9                	and	a5,a5,a4
8000521c:	fef42623          	sw	a5,-20(s0)
    		temp |= (uint32_t)AltFuncNum << i * 0x2UL;
80005220:	fe842783          	lw	a5,-24(s0)
80005224:	0786                	slli	a5,a5,0x1
80005226:	fd442703          	lw	a4,-44(s0)
8000522a:	00f717b3          	sll	a5,a4,a5
8000522e:	fec42703          	lw	a4,-20(s0)
80005232:	8fd9                	or	a5,a5,a4
80005234:	fef42623          	sw	a5,-20(s0)
    for (uint32_t i = 0; i < 16; i++) {
80005238:	fe842783          	lw	a5,-24(s0)
8000523c:	0785                	addi	a5,a5,1
8000523e:	fef42423          	sw	a5,-24(s0)
80005242:	fe842703          	lw	a4,-24(s0)
80005246:	47bd                	li	a5,15
80005248:	fae7f5e3          	bgeu	a5,a4,800051f2 <GPIO_AltFuncNumConfig+0x22>
//                temp1 |= (uint32_t)AltFuncNum << (i - 8) * 0x4UL;
//            }
//        }
    }

    GPIOx->ALTFUNCNUM = temp;
8000524c:	fdc42783          	lw	a5,-36(s0)
80005250:	fec42703          	lw	a4,-20(s0)
80005254:	dfd8                	sw	a4,60(a5)
}
80005256:	0001                	nop
80005258:	5432                	lw	s0,44(sp)
8000525a:	6145                	addi	sp,sp,48
8000525c:	8082                	ret

8000525e <GPIO_DeInit>:
  * @brief   Устанавливает все регистры выбранного GPIOx значениями по умолчанию
  * @param   GPIOx  Выбор порта, где x=A|B|C
  * @retval  void
  */
void GPIO_DeInit(GPIO_TypeDef* GPIOx)
{
8000525e:	7179                	addi	sp,sp,-48
80005260:	d606                	sw	ra,44(sp)
80005262:	d422                	sw	s0,40(sp)
80005264:	1800                	addi	s0,sp,48
80005266:	fca42e23          	sw	a0,-36(s0)
    uint32_t GPIO_rst;

    assert_param(IS_GPIO_PERIPH(GPIOx));

    if (GPIOx == GPIOA)
8000526a:	fdc42703          	lw	a4,-36(s0)
8000526e:	280007b7          	lui	a5,0x28000
80005272:	00f71763          	bne	a4,a5,80005280 <GPIO_DeInit+0x22>
        GPIO_rst = RCU_AHBRst_GPIOA;
80005276:	10000793          	li	a5,256
8000527a:	fef42623          	sw	a5,-20(s0)
8000527e:	a035                	j	800052aa <GPIO_DeInit+0x4c>
    else if (GPIOx == GPIOB)
80005280:	fdc42703          	lw	a4,-36(s0)
80005284:	280017b7          	lui	a5,0x28001
80005288:	00f71763          	bne	a4,a5,80005296 <GPIO_DeInit+0x38>
        GPIO_rst = RCU_AHBRst_GPIOB;
8000528c:	20000793          	li	a5,512
80005290:	fef42623          	sw	a5,-20(s0)
80005294:	a819                	j	800052aa <GPIO_DeInit+0x4c>
    else  if (GPIOx == GPIOC)
80005296:	fdc42703          	lw	a4,-36(s0)
8000529a:	280027b7          	lui	a5,0x28002
8000529e:	00f71663          	bne	a4,a5,800052aa <GPIO_DeInit+0x4c>
        GPIO_rst = RCU_AHBRst_GPIOC;
800052a2:	40000793          	li	a5,1024
800052a6:	fef42623          	sw	a5,-20(s0)

    RCU_AHBRstCmd(GPIO_rst, DISABLE);
800052aa:	4581                	li	a1,0
800052ac:	fec42503          	lw	a0,-20(s0)
800052b0:	3385                	jal	80005010 <RCU_AHBRstCmd>
    RCU_AHBRstCmd(GPIO_rst, ENABLE);
800052b2:	4585                	li	a1,1
800052b4:	fec42503          	lw	a0,-20(s0)
800052b8:	3ba1                	jal	80005010 <RCU_AHBRstCmd>
}
800052ba:	0001                	nop
800052bc:	50b2                	lw	ra,44(sp)
800052be:	5422                	lw	s0,40(sp)
800052c0:	6145                	addi	sp,sp,48
800052c2:	8082                	ret

800052c4 <GPIO_Init>:
  * @param   InitStruct  Указатель на структуру типа @ref GPIO_Init_TypeDef,
  *                      которая содержит конфигурационную информацию
  * @retval  void
  */
void GPIO_Init(GPIO_TypeDef* GPIOx, GPIO_Init_TypeDef* InitStruct)
{
800052c4:	1101                	addi	sp,sp,-32
800052c6:	ce06                	sw	ra,28(sp)
800052c8:	cc22                	sw	s0,24(sp)
800052ca:	1000                	addi	s0,sp,32
800052cc:	fea42623          	sw	a0,-20(s0)
800052d0:	feb42423          	sw	a1,-24(s0)
    GPIO_OutCmd(GPIOx, InitStruct->Pin, InitStruct->Out);
800052d4:	fe842783          	lw	a5,-24(s0)
800052d8:	4398                	lw	a4,0(a5)
800052da:	fe842783          	lw	a5,-24(s0)
800052de:	43dc                	lw	a5,4(a5)
800052e0:	863e                	mv	a2,a5
800052e2:	85ba                	mv	a1,a4
800052e4:	fec42503          	lw	a0,-20(s0)
800052e8:	339d                	jal	8000504e <GPIO_OutCmd>
    GPIO_AltFuncNumConfig(GPIOx, InitStruct->Pin, InitStruct->AltFuncNum);
800052ea:	fe842783          	lw	a5,-24(s0)
800052ee:	4398                	lw	a4,0(a5)
800052f0:	fe842783          	lw	a5,-24(s0)
800052f4:	47dc                	lw	a5,12(a5)
800052f6:	863e                	mv	a2,a5
800052f8:	85ba                	mv	a1,a4
800052fa:	fec42503          	lw	a0,-20(s0)
800052fe:	3dc9                	jal	800051d0 <GPIO_AltFuncNumConfig>
    GPIO_AltFuncCmd(GPIOx, InitStruct->Pin, InitStruct->AltFunc);
80005300:	fe842783          	lw	a5,-24(s0)
80005304:	4398                	lw	a4,0(a5)
80005306:	fe842783          	lw	a5,-24(s0)
8000530a:	479c                	lw	a5,8(a5)
8000530c:	863e                	mv	a2,a5
8000530e:	85ba                	mv	a1,a4
80005310:	fec42503          	lw	a0,-20(s0)
80005314:	3b95                	jal	80005088 <GPIO_AltFuncCmd>
    GPIO_OutModeConfig(GPIOx, InitStruct->Pin, InitStruct->OutMode);
80005316:	fe842783          	lw	a5,-24(s0)
8000531a:	4398                	lw	a4,0(a5)
8000531c:	fe842783          	lw	a5,-24(s0)
80005320:	4b9c                	lw	a5,16(a5)
80005322:	863e                	mv	a2,a5
80005324:	85ba                	mv	a1,a4
80005326:	fec42503          	lw	a0,-20(s0)
8000532a:	351d                	jal	80005150 <GPIO_OutModeConfig>
    GPIO_PullModeConfig(GPIOx, InitStruct->Pin, InitStruct->PullMode);
8000532c:	fe842783          	lw	a5,-24(s0)
80005330:	4398                	lw	a4,0(a5)
80005332:	fe842783          	lw	a5,-24(s0)
80005336:	4bdc                	lw	a5,20(a5)
80005338:	863e                	mv	a2,a5
8000533a:	85ba                	mv	a1,a4
8000533c:	fec42503          	lw	a0,-20(s0)
80005340:	3589                	jal	80005182 <GPIO_PullModeConfig>
}
80005342:	0001                	nop
80005344:	40f2                	lw	ra,28(sp)
80005346:	4462                	lw	s0,24(sp)
80005348:	6105                	addi	sp,sp,32
8000534a:	8082                	ret

8000534c <GPIO_StructInit>:
  * @param   InitStruct  Указатель на структуру типа @ref GPIO_Init_TypeDef,
  *                      которую необходимо проинициализировать
  * @retval  void
  */
void GPIO_StructInit(GPIO_Init_TypeDef* InitStruct)
{
8000534c:	1101                	addi	sp,sp,-32
8000534e:	ce22                	sw	s0,28(sp)
80005350:	1000                	addi	s0,sp,32
80005352:	fea42623          	sw	a0,-20(s0)
    InitStruct->Pin = GPIO_Pin_All;
80005356:	fec42783          	lw	a5,-20(s0)
8000535a:	6741                	lui	a4,0x10
8000535c:	177d                	addi	a4,a4,-1 # ffff <STACK_SIZE+0xf7ff>
8000535e:	c398                	sw	a4,0(a5)
    InitStruct->Out = DISABLE;
80005360:	fec42783          	lw	a5,-20(s0)
80005364:	0007a223          	sw	zero,4(a5) # 28002004 <STACK_SIZE+0x28001804>
    InitStruct->AltFuncNum = GPIO_AltFuncNum_None;
80005368:	fec42783          	lw	a5,-20(s0)
8000536c:	0007a623          	sw	zero,12(a5)
    InitStruct->AltFunc = DISABLE;
80005370:	fec42783          	lw	a5,-20(s0)
80005374:	0007a423          	sw	zero,8(a5)
    InitStruct->OutMode = GPIO_OutMode_PP;
80005378:	fec42783          	lw	a5,-20(s0)
8000537c:	0007a823          	sw	zero,16(a5)
    InitStruct->PullMode = GPIO_PullMode_Disable;
80005380:	fec42783          	lw	a5,-20(s0)
80005384:	0007aa23          	sw	zero,20(a5)
}
80005388:	0001                	nop
8000538a:	4472                	lw	s0,28(sp)
8000538c:	6105                	addi	sp,sp,32
8000538e:	8082                	ret

80005390 <RCU_AHBClkCmd>:
{
80005390:	1101                	addi	sp,sp,-32
80005392:	ce22                	sw	s0,28(sp)
80005394:	1000                	addi	s0,sp,32
80005396:	fea42623          	sw	a0,-20(s0)
8000539a:	feb42423          	sw	a1,-24(s0)
    MODIFY_REG(RCU->CGCFGAHB, AHBClk, State ? AHBClk : 0);
8000539e:	3000e7b7          	lui	a5,0x3000e
800053a2:	4398                	lw	a4,0(a5)
800053a4:	fec42783          	lw	a5,-20(s0)
800053a8:	fff7c793          	not	a5,a5
800053ac:	00f776b3          	and	a3,a4,a5
800053b0:	fe842783          	lw	a5,-24(s0)
800053b4:	c781                	beqz	a5,800053bc <RCU_AHBClkCmd+0x2c>
800053b6:	fec42783          	lw	a5,-20(s0)
800053ba:	a011                	j	800053be <RCU_AHBClkCmd+0x2e>
800053bc:	4781                	li	a5,0
800053be:	3000e737          	lui	a4,0x3000e
800053c2:	8fd5                	or	a5,a5,a3
800053c4:	c31c                	sw	a5,0(a4)
}
800053c6:	0001                	nop
800053c8:	4472                	lw	s0,28(sp)
800053ca:	6105                	addi	sp,sp,32
800053cc:	8082                	ret

800053ce <RCU_AHBRstCmd>:
{
800053ce:	1101                	addi	sp,sp,-32
800053d0:	ce22                	sw	s0,28(sp)
800053d2:	1000                	addi	s0,sp,32
800053d4:	fea42623          	sw	a0,-20(s0)
800053d8:	feb42423          	sw	a1,-24(s0)
    MODIFY_REG(RCU->RSTDISAHB, AHBRst, State ? AHBRst : 0);
800053dc:	3000e7b7          	lui	a5,0x3000e
800053e0:	4b98                	lw	a4,16(a5)
800053e2:	fec42783          	lw	a5,-20(s0)
800053e6:	fff7c793          	not	a5,a5
800053ea:	00f776b3          	and	a3,a4,a5
800053ee:	fe842783          	lw	a5,-24(s0)
800053f2:	c781                	beqz	a5,800053fa <RCU_AHBRstCmd+0x2c>
800053f4:	fec42783          	lw	a5,-20(s0)
800053f8:	a011                	j	800053fc <RCU_AHBRstCmd+0x2e>
800053fa:	4781                	li	a5,0
800053fc:	3000e737          	lui	a4,0x3000e
80005400:	8fd5                	or	a5,a5,a3
80005402:	cb1c                	sw	a5,16(a4)
}
80005404:	0001                	nop
80005406:	4472                	lw	s0,28(sp)
80005408:	6105                	addi	sp,sp,32
8000540a:	8082                	ret

8000540c <HASH_InitCmd>:
  * @brief   Инициализация хеш-процессора
  * @param   state Состояние инициализации
  * @retval  void
  */
__STATIC_INLINE void HASH_InitCmd(FunctionalState state)
{
8000540c:	1101                	addi	sp,sp,-32
8000540e:	ce22                	sw	s0,28(sp)
80005410:	1000                	addi	s0,sp,32
80005412:	fea42623          	sw	a0,-20(s0)
	assert_param(IS_FUNCTIONAL_STATE(state));

	MODIFY_REG(HASH->CR, HASH_CR_INIT_Msk, state << HASH_CR_INIT_Pos);
80005416:	200327b7          	lui	a5,0x20032
8000541a:	439c                	lw	a5,0(a5)
8000541c:	ffe7f693          	andi	a3,a5,-2
80005420:	200327b7          	lui	a5,0x20032
80005424:	fec42703          	lw	a4,-20(s0)
80005428:	8f55                	or	a4,a4,a3
8000542a:	c398                	sw	a4,0(a5)
}
8000542c:	0001                	nop
8000542e:	4472                	lw	s0,28(sp)
80005430:	6105                	addi	sp,sp,32
80005432:	8082                	ret

80005434 <HASH_ModeCmd>:
  * @brief   Выбор режима алгоритма
  * @param   state Режим алгоритма
  * @retval  void
  */
__STATIC_INLINE void HASH_ModeCmd(HASH_MODE_TypeDef mode)
{
80005434:	1101                	addi	sp,sp,-32
80005436:	ce22                	sw	s0,28(sp)
80005438:	1000                	addi	s0,sp,32
8000543a:	fea42623          	sw	a0,-20(s0)
	assert_param(IS_HASH_CR_MODE(mode));

	MODIFY_REG(HASH->CR, HASH_CR_MODE_Msk, mode << HASH_CR_MODE_Pos);
8000543e:	200327b7          	lui	a5,0x20032
80005442:	439c                	lw	a5,0(a5)
80005444:	ffd7f693          	andi	a3,a5,-3
80005448:	fec42783          	lw	a5,-20(s0)
8000544c:	00179713          	slli	a4,a5,0x1
80005450:	200327b7          	lui	a5,0x20032
80005454:	8f55                	or	a4,a4,a3
80005456:	c398                	sw	a4,0(a5)
}
80005458:	0001                	nop
8000545a:	4472                	lw	s0,28(sp)
8000545c:	6105                	addi	sp,sp,32
8000545e:	8082                	ret

80005460 <HASH_KeyLengthCmd>:
  * @brief   Выбор длинного ключа
  * @param   length Длина ключа
  * @retval  void
  */
__STATIC_INLINE void HASH_KeyLengthCmd(HASH_LKEY_TypeDef length)
{
80005460:	1101                	addi	sp,sp,-32
80005462:	ce22                	sw	s0,28(sp)
80005464:	1000                	addi	s0,sp,32
80005466:	fea42623          	sw	a0,-20(s0)
	assert_param(IS_HASH_CR_LKEY(length));

	MODIFY_REG(HASH->CR, HASH_CR_LKEY_Msk, length << HASH_CR_LKEY_Pos);
8000546a:	200327b7          	lui	a5,0x20032
8000546e:	439c                	lw	a5,0(a5)
80005470:	ffb7f693          	andi	a3,a5,-5
80005474:	fec42783          	lw	a5,-20(s0)
80005478:	00279713          	slli	a4,a5,0x2
8000547c:	200327b7          	lui	a5,0x20032
80005480:	8f55                	or	a4,a4,a3
80005482:	c398                	sw	a4,0(a5)
}
80005484:	0001                	nop
80005486:	4472                	lw	s0,28(sp)
80005488:	6105                	addi	sp,sp,32
8000548a:	8082                	ret

8000548c <HASH_SameKeyCmd>:
  * @brief   Использование одинаковыч внешних и внутренних ключей
  * @param   state Разрешение использования одинакового ключа
  * @retval  void
  */
__STATIC_INLINE void HASH_SameKeyCmd(FunctionalState state)
{
8000548c:	1101                	addi	sp,sp,-32
8000548e:	ce22                	sw	s0,28(sp)
80005490:	1000                	addi	s0,sp,32
80005492:	fea42623          	sw	a0,-20(s0)
	assert_param(IS_FUNCTIONAL_STATE(state));

	MODIFY_REG(HASH->CR, HASH_CR_SAMK_Msk, state << HASH_CR_SAMK_Pos);
80005496:	200327b7          	lui	a5,0x20032
8000549a:	439c                	lw	a5,0(a5)
8000549c:	ff77f693          	andi	a3,a5,-9
800054a0:	fec42783          	lw	a5,-20(s0)
800054a4:	00379713          	slli	a4,a5,0x3
800054a8:	200327b7          	lui	a5,0x20032
800054ac:	8f55                	or	a4,a4,a3
800054ae:	c398                	sw	a4,0(a5)
}
800054b0:	0001                	nop
800054b2:	4472                	lw	s0,28(sp)
800054b4:	6105                	addi	sp,sp,32
800054b6:	8082                	ret

800054b8 <HASH_DataTypeConfig>:
  * @brief   Выбор формата данных
  * @param   dt формат данных
  * @retval  void
  */
__STATIC_INLINE void HASH_DataTypeConfig(HASH_DATATYPE_TypeDef dt)
{
800054b8:	1101                	addi	sp,sp,-32
800054ba:	ce22                	sw	s0,28(sp)
800054bc:	1000                	addi	s0,sp,32
800054be:	fea42623          	sw	a0,-20(s0)
	assert_param(IS_HASH_CR_DATATYPE(dt));

	MODIFY_REG(HASH->CR, HASH_CR_DATATYPE_Msk, dt << HASH_CR_DATATYPE_Pos);
800054c2:	200327b7          	lui	a5,0x20032
800054c6:	439c                	lw	a5,0(a5)
800054c8:	fcf7f693          	andi	a3,a5,-49
800054cc:	fec42783          	lw	a5,-20(s0)
800054d0:	00479713          	slli	a4,a5,0x4
800054d4:	200327b7          	lui	a5,0x20032
800054d8:	8f55                	or	a4,a4,a3
800054da:	c398                	sw	a4,0(a5)
}
800054dc:	0001                	nop
800054de:	4472                	lw	s0,28(sp)
800054e0:	6105                	addi	sp,sp,32
800054e2:	8082                	ret

800054e4 <HASH_DMACmd>:
  * @brief   Включение механизма DMA
  * @param   state Состояние передач DMA
  * @retval  void
  */
__STATIC_INLINE void HASH_DMACmd(FunctionalState state)
{
800054e4:	1101                	addi	sp,sp,-32
800054e6:	ce22                	sw	s0,28(sp)
800054e8:	1000                	addi	s0,sp,32
800054ea:	fea42623          	sw	a0,-20(s0)
	assert_param(IS_FUNCTIONAL_STATE(state));

	MODIFY_REG(HASH->CR, HASH_CR_DMAE_Msk, state << HASH_CR_DMAE_Pos);
800054ee:	200327b7          	lui	a5,0x20032
800054f2:	439c                	lw	a5,0(a5)
800054f4:	fbf7f693          	andi	a3,a5,-65
800054f8:	fec42783          	lw	a5,-20(s0)
800054fc:	00679713          	slli	a4,a5,0x6
80005500:	200327b7          	lui	a5,0x20032
80005504:	8f55                	or	a4,a4,a3
80005506:	c398                	sw	a4,0(a5)
}
80005508:	0001                	nop
8000550a:	4472                	lw	s0,28(sp)
8000550c:	6105                	addi	sp,sp,32
8000550e:	8082                	ret

80005510 <HASH_SetMultyDMATransmit>:
  * @brief   Включение механизма MDMAT
  * @param   state Состояние передачи MDMAT
  * @retval  void
  */
__STATIC_INLINE void HASH_SetMultyDMATransmit(FunctionalState state)
{
80005510:	1101                	addi	sp,sp,-32
80005512:	ce22                	sw	s0,28(sp)
80005514:	1000                	addi	s0,sp,32
80005516:	fea42623          	sw	a0,-20(s0)
	assert_param(IS_FUNCTIONAL_STATE(state));

	MODIFY_REG(HASH->CR, HASH_CR_MDMAT_Msk, state << HASH_CR_MDMAT_Pos);
8000551a:	200327b7          	lui	a5,0x20032
8000551e:	439c                	lw	a5,0(a5)
80005520:	f7f7f693          	andi	a3,a5,-129
80005524:	fec42783          	lw	a5,-20(s0)
80005528:	00779713          	slli	a4,a5,0x7
8000552c:	200327b7          	lui	a5,0x20032
80005530:	8f55                	or	a4,a4,a3
80005532:	c398                	sw	a4,0(a5)
}
80005534:	0001                	nop
80005536:	4472                	lw	s0,28(sp)
80005538:	6105                	addi	sp,sp,32
8000553a:	8082                	ret

8000553c <HASH_SetAlgo>:
  * @brief   Выбор алгоритма хэш-функции
  * @param   algo алгоритм хем-функции
  * @retval  void
  */
__STATIC_INLINE void HASH_SetAlgo(HASH_ALGO_TypeDef algo)
{
8000553c:	1101                	addi	sp,sp,-32
8000553e:	ce22                	sw	s0,28(sp)
80005540:	1000                	addi	s0,sp,32
80005542:	fea42623          	sw	a0,-20(s0)
	assert_param(IS_HASH_CR_ALGO(algo));

	MODIFY_REG(HASH->CR, HASH_CR_ALGO_Msk, algo << HASH_CR_ALGO_Pos);
80005546:	200327b7          	lui	a5,0x20032
8000554a:	4398                	lw	a4,0(a5)
8000554c:	77d1                	lui	a5,0xffff4
8000554e:	17fd                	addi	a5,a5,-1 # ffff3fff <__data_source_start+0x7ffec6b7>
80005550:	00f776b3          	and	a3,a4,a5
80005554:	fec42783          	lw	a5,-20(s0)
80005558:	00e79713          	slli	a4,a5,0xe
8000555c:	200327b7          	lui	a5,0x20032
80005560:	8f55                	or	a4,a4,a3
80005562:	c398                	sw	a4,0(a5)
}
80005564:	0001                	nop
80005566:	4472                	lw	s0,28(sp)
80005568:	6105                	addi	sp,sp,32
8000556a:	8082                	ret

8000556c <HASH_GetAlgo>:
/**
  * @brief   Получение выбранного алгоритма хэш-функции
  * @retval  algo алгоритм хем-функции
  */
__STATIC_INLINE HASH_ALGO_TypeDef HASH_GetAlgo()
{
8000556c:	1141                	addi	sp,sp,-16
8000556e:	c622                	sw	s0,12(sp)
80005570:	0800                	addi	s0,sp,16
	return (HASH_ALGO_TypeDef) ((READ_REG(HASH->CR) & HASH_CR_ALGO_Msk) >> HASH_CR_ALGO_Pos);
80005572:	200327b7          	lui	a5,0x20032
80005576:	439c                	lw	a5,0(a5)
80005578:	83b9                	srli	a5,a5,0xe
8000557a:	8b8d                	andi	a5,a5,3
}
8000557c:	853e                	mv	a0,a5
8000557e:	4432                	lw	s0,12(sp)
80005580:	0141                	addi	sp,sp,16
80005582:	8082                	ret

80005584 <HASH_SetData>:
  * @brief   Добавление данных для формирования хеш-суммы
  * @param   data Данные для добавления
  * @retval  void
  */
__STATIC_INLINE void HASH_SetData(uint32_t data)
{
80005584:	1101                	addi	sp,sp,-32
80005586:	ce22                	sw	s0,28(sp)
80005588:	1000                	addi	s0,sp,32
8000558a:	fea42623          	sw	a0,-20(s0)
	WRITE_REG(HASH->DATAIN_bit.VAL, data);
8000558e:	200327b7          	lui	a5,0x20032
80005592:	fec42703          	lw	a4,-20(s0)
80005596:	c3d8                	sw	a4,4(a5)
}
80005598:	0001                	nop
8000559a:	4472                	lw	s0,28(sp)
8000559c:	6105                	addi	sp,sp,32
8000559e:	8082                	ret

800055a0 <HASH_GetHash>:
/**
  * @brief   Получение последних записанных в регистр данных
  * @retval  data Последние добавленные данные
  */
__STATIC_INLINE uint32_t HASH_GetHash(uint32_t idx)
{
800055a0:	1101                	addi	sp,sp,-32
800055a2:	ce22                	sw	s0,28(sp)
800055a4:	1000                	addi	s0,sp,32
800055a6:	fea42623          	sw	a0,-20(s0)
	assert_param(IS_HASH_HR(idx));

	return (uint32_t) READ_REG(HASH->HR[idx].HR);
800055aa:	20032737          	lui	a4,0x20032
800055ae:	fec42783          	lw	a5,-20(s0)
800055b2:	07c1                	addi	a5,a5,16 # 20032010 <STACK_SIZE+0x20031810>
800055b4:	078a                	slli	a5,a5,0x2
800055b6:	97ba                	add	a5,a5,a4
800055b8:	439c                	lw	a5,0(a5)
}
800055ba:	853e                	mv	a0,a5
800055bc:	4472                	lw	s0,28(sp)
800055be:	6105                	addi	sp,sp,32
800055c0:	8082                	ret

800055c2 <HASH_GetHashLen>:
  * @brief   Устанваливает буфер значениями хеш-суммы
  * @param   buffer ссылка на начало буфера, размер которого должен соответсвовать размерности алгоритма шифрования см. Руководство пользователя Приложение А10 Регистр HR
  * @retval  length длина хеша
  */
uint32_t HASH_GetHashLen(HASH_ALGO_TypeDef algo)
{
800055c2:	1101                	addi	sp,sp,-32
800055c4:	ce06                	sw	ra,28(sp)
800055c6:	cc22                	sw	s0,24(sp)
800055c8:	1000                	addi	s0,sp,32
800055ca:	fea42623          	sw	a0,-20(s0)
	switch(HASH_GetAlgo()) {
800055ce:	3f79                	jal	8000556c <HASH_GetAlgo>
800055d0:	87aa                	mv	a5,a0
800055d2:	470d                	li	a4,3
800055d4:	02e78663          	beq	a5,a4,80005600 <HASH_GetHashLen+0x3e>
800055d8:	470d                	li	a4,3
800055da:	02f76563          	bltu	a4,a5,80005604 <HASH_GetHashLen+0x42>
800055de:	4709                	li	a4,2
800055e0:	00e78e63          	beq	a5,a4,800055fc <HASH_GetHashLen+0x3a>
800055e4:	4709                	li	a4,2
800055e6:	00f76f63          	bltu	a4,a5,80005604 <HASH_GetHashLen+0x42>
800055ea:	c789                	beqz	a5,800055f4 <HASH_GetHashLen+0x32>
800055ec:	4705                	li	a4,1
800055ee:	00e78563          	beq	a5,a4,800055f8 <HASH_GetHashLen+0x36>
800055f2:	a809                	j	80005604 <HASH_GetHashLen+0x42>
		case HASH_ALGO_SHA1:
			return 5;
800055f4:	4795                	li	a5,5
800055f6:	a801                	j	80005606 <HASH_GetHashLen+0x44>
		case HASH_ALGO_MD5:
			return 4;
800055f8:	4791                	li	a5,4
800055fa:	a031                	j	80005606 <HASH_GetHashLen+0x44>
		case HASH_ALGO_SHA224:
			return 7;
800055fc:	479d                	li	a5,7
800055fe:	a021                	j	80005606 <HASH_GetHashLen+0x44>
		case HASH_ALGO_SHA256:
			return 8;
80005600:	47a1                	li	a5,8
80005602:	a011                	j	80005606 <HASH_GetHashLen+0x44>
		default:
			return 0;
80005604:	4781                	li	a5,0
	}
}
80005606:	853e                	mv	a0,a5
80005608:	40f2                	lw	ra,28(sp)
8000560a:	4462                	lw	s0,24(sp)
8000560c:	6105                	addi	sp,sp,32
8000560e:	8082                	ret

80005610 <HASH_GetHashBuffer>:

uint32_t HASH_GetHashBuffer(uint32_t* buffer)
{
80005610:	7179                	addi	sp,sp,-48
80005612:	d606                	sw	ra,44(sp)
80005614:	d422                	sw	s0,40(sp)
80005616:	d226                	sw	s1,36(sp)
80005618:	1800                	addi	s0,sp,48
8000561a:	fca42e23          	sw	a0,-36(s0)
	uint32_t idx = 0, len = 0;
8000561e:	fe042623          	sw	zero,-20(s0)
80005622:	fe042423          	sw	zero,-24(s0)
	idx = len = HASH_GetHashLen(HASH_GetAlgo());
80005626:	3799                	jal	8000556c <HASH_GetAlgo>
80005628:	87aa                	mv	a5,a0
8000562a:	853e                	mv	a0,a5
8000562c:	3f59                	jal	800055c2 <HASH_GetHashLen>
8000562e:	fea42423          	sw	a0,-24(s0)
80005632:	fe842783          	lw	a5,-24(s0)
80005636:	fef42623          	sw	a5,-20(s0)

	while(idx) {
8000563a:	a015                	j	8000565e <HASH_GetHashBuffer+0x4e>
    idx--;
8000563c:	fec42783          	lw	a5,-20(s0)
80005640:	17fd                	addi	a5,a5,-1
80005642:	fef42623          	sw	a5,-20(s0)
		buffer[idx] = HASH_GetHash(idx);
80005646:	fec42783          	lw	a5,-20(s0)
8000564a:	078a                	slli	a5,a5,0x2
8000564c:	fdc42703          	lw	a4,-36(s0)
80005650:	00f704b3          	add	s1,a4,a5
80005654:	fec42503          	lw	a0,-20(s0)
80005658:	37a1                	jal	800055a0 <HASH_GetHash>
8000565a:	87aa                	mv	a5,a0
8000565c:	c09c                	sw	a5,0(s1)
	while(idx) {
8000565e:	fec42783          	lw	a5,-20(s0)
80005662:	ffe9                	bnez	a5,8000563c <HASH_GetHashBuffer+0x2c>
	}

	return len;
80005664:	fe842783          	lw	a5,-24(s0)
}
80005668:	853e                	mv	a0,a5
8000566a:	50b2                	lw	ra,44(sp)
8000566c:	5422                	lw	s0,40(sp)
8000566e:	5492                	lw	s1,36(sp)
80005670:	6145                	addi	sp,sp,48
80005672:	8082                	ret

80005674 <HASH_SetHashBuffer>:

void HASH_SetHashBuffer(uint32_t* buffer, uint32_t len)
{
80005674:	7179                	addi	sp,sp,-48
80005676:	d606                	sw	ra,44(sp)
80005678:	d422                	sw	s0,40(sp)
8000567a:	1800                	addi	s0,sp,48
8000567c:	fca42e23          	sw	a0,-36(s0)
80005680:	fcb42c23          	sw	a1,-40(s0)
	for (uint32_t i = 0 ; i < len; i++)
80005684:	fe042623          	sw	zero,-20(s0)
80005688:	a839                	j	800056a6 <HASH_SetHashBuffer+0x32>
	{
		HASH_SetData(buffer[i]);
8000568a:	fec42783          	lw	a5,-20(s0)
8000568e:	078a                	slli	a5,a5,0x2
80005690:	fdc42703          	lw	a4,-36(s0)
80005694:	97ba                	add	a5,a5,a4
80005696:	439c                	lw	a5,0(a5)
80005698:	853e                	mv	a0,a5
8000569a:	35ed                	jal	80005584 <HASH_SetData>
	for (uint32_t i = 0 ; i < len; i++)
8000569c:	fec42783          	lw	a5,-20(s0)
800056a0:	0785                	addi	a5,a5,1
800056a2:	fef42623          	sw	a5,-20(s0)
800056a6:	fec42703          	lw	a4,-20(s0)
800056aa:	fd842783          	lw	a5,-40(s0)
800056ae:	fcf76ee3          	bltu	a4,a5,8000568a <HASH_SetHashBuffer+0x16>
	}
}
800056b2:	0001                	nop
800056b4:	0001                	nop
800056b6:	50b2                	lw	ra,44(sp)
800056b8:	5422                	lw	s0,40(sp)
800056ba:	6145                	addi	sp,sp,48
800056bc:	8082                	ret

800056be <HASH_DeInit>:
/**
  * @brief   Устанавливает все регистры HASH значениями по умолчанию
  * @retval  void
  */
void HASH_DeInit()
{
800056be:	1141                	addi	sp,sp,-16
800056c0:	c606                	sw	ra,12(sp)
800056c2:	c422                	sw	s0,8(sp)
800056c4:	0800                	addi	s0,sp,16
	HASH_InitCmd(DISABLE);
800056c6:	4501                	li	a0,0
800056c8:	3391                	jal	8000540c <HASH_InitCmd>

    RCU_AHBRstCmd(RCU_AHBRst_HASH, DISABLE);
800056ca:	4581                	li	a1,0
800056cc:	4521                	li	a0,8
800056ce:	3301                	jal	800053ce <RCU_AHBRstCmd>
    RCU_AHBRstCmd(RCU_AHBRst_HASH, ENABLE);
800056d0:	4585                	li	a1,1
800056d2:	4521                	li	a0,8
800056d4:	39ed                	jal	800053ce <RCU_AHBRstCmd>
}
800056d6:	0001                	nop
800056d8:	40b2                	lw	ra,12(sp)
800056da:	4422                	lw	s0,8(sp)
800056dc:	0141                	addi	sp,sp,16
800056de:	8082                	ret

800056e0 <HASH_Init>:
  * @param   InitStruct  Указатель на структуру типа @ref HASH_Init_TypeDef,
  *                      которая содержит конфигурационную информацию
  * @retval  void
  */
void HASH_Init(HASH_Init_TypeDef* InitStruct)
{
800056e0:	1101                	addi	sp,sp,-32
800056e2:	ce06                	sw	ra,28(sp)
800056e4:	cc22                	sw	s0,24(sp)
800056e6:	1000                	addi	s0,sp,32
800056e8:	fea42623          	sw	a0,-20(s0)
	RCU_AHBClkCmd(RCU_AHBClk_HASH, ENABLE);
800056ec:	4585                	li	a1,1
800056ee:	4521                	li	a0,8
800056f0:	3145                	jal	80005390 <RCU_AHBClkCmd>
    RCU_AHBRstCmd(RCU_AHBRst_HASH, ENABLE);
800056f2:	4585                	li	a1,1
800056f4:	4521                	li	a0,8
800056f6:	39e1                	jal	800053ce <RCU_AHBRstCmd>

	HASH_DMACmd(InitStruct->DMATransmition);
800056f8:	fec42783          	lw	a5,-20(s0)
800056fc:	4b9c                	lw	a5,16(a5)
800056fe:	853e                	mv	a0,a5
80005700:	33d5                	jal	800054e4 <HASH_DMACmd>
	HASH_KeyLengthCmd(InitStruct->LongKey);
80005702:	fec42783          	lw	a5,-20(s0)
80005706:	43dc                	lw	a5,4(a5)
80005708:	853e                	mv	a0,a5
8000570a:	3b99                	jal	80005460 <HASH_KeyLengthCmd>
	HASH_SetMultyDMATransmit(InitStruct->MultyDMATransmition);
8000570c:	fec42783          	lw	a5,-20(s0)
80005710:	4bdc                	lw	a5,20(a5)
80005712:	853e                	mv	a0,a5
80005714:	3bf5                	jal	80005510 <HASH_SetMultyDMATransmit>
	HASH_SetAlgo(InitStruct->Algo);
80005716:	fec42783          	lw	a5,-20(s0)
8000571a:	4f9c                	lw	a5,24(a5)
8000571c:	853e                	mv	a0,a5
8000571e:	3d39                	jal	8000553c <HASH_SetAlgo>
	HASH_DataTypeConfig(InitStruct->DataType);
80005720:	fec42783          	lw	a5,-20(s0)
80005724:	47dc                	lw	a5,12(a5)
80005726:	853e                	mv	a0,a5
80005728:	3b41                	jal	800054b8 <HASH_DataTypeConfig>
	HASH_ModeCmd(InitStruct->Mode);
8000572a:	fec42783          	lw	a5,-20(s0)
8000572e:	439c                	lw	a5,0(a5)
80005730:	853e                	mv	a0,a5
80005732:	3309                	jal	80005434 <HASH_ModeCmd>
	HASH_SameKeyCmd(InitStruct->SameKey);
80005734:	fec42783          	lw	a5,-20(s0)
80005738:	479c                	lw	a5,8(a5)
8000573a:	853e                	mv	a0,a5
8000573c:	3b81                	jal	8000548c <HASH_SameKeyCmd>

	HASH_InitCmd(ENABLE);
8000573e:	4505                	li	a0,1
80005740:	31f1                	jal	8000540c <HASH_InitCmd>
}
80005742:	0001                	nop
80005744:	40f2                	lw	ra,28(sp)
80005746:	4462                	lw	s0,24(sp)
80005748:	6105                	addi	sp,sp,32
8000574a:	8082                	ret

8000574c <HASH_StructInit>:
  * @param   InitStruct  Указатель на структуру типа @ref HASH_Init_TypeDef,
  *                      которую необходимо проинициализировать
  * @retval  void
  */
void HASH_StructInit(HASH_Init_TypeDef* InitStruct)
{
8000574c:	1101                	addi	sp,sp,-32
8000574e:	ce22                	sw	s0,28(sp)
80005750:	1000                	addi	s0,sp,32
80005752:	fea42623          	sw	a0,-20(s0)
	InitStruct->DMATransmition = 0x0;
80005756:	fec42783          	lw	a5,-20(s0)
8000575a:	0007a823          	sw	zero,16(a5)
	InitStruct->LongKey = HASH_LKEY_ShortKey;
8000575e:	fec42783          	lw	a5,-20(s0)
80005762:	0007a223          	sw	zero,4(a5)
	InitStruct->MultyDMATransmition = 0x0;
80005766:	fec42783          	lw	a5,-20(s0)
8000576a:	0007aa23          	sw	zero,20(a5)
	InitStruct->Algo = HASH_ALGO_SHA1;
8000576e:	fec42783          	lw	a5,-20(s0)
80005772:	0007ac23          	sw	zero,24(a5)
	InitStruct->DataType = HASH_DATATYPE_Word;
80005776:	fec42783          	lw	a5,-20(s0)
8000577a:	0007a623          	sw	zero,12(a5)
	InitStruct->Mode = HASH_MODE_Hash;
8000577e:	fec42783          	lw	a5,-20(s0)
80005782:	0007a023          	sw	zero,0(a5)
	InitStruct->SameKey = 0x0;
80005786:	fec42783          	lw	a5,-20(s0)
8000578a:	0007a423          	sw	zero,8(a5)
}
8000578e:	0001                	nop
80005790:	4472                	lw	s0,28(sp)
80005792:	6105                	addi	sp,sp,32
80005794:	8082                	ret

80005796 <I2C_FSDivLowConfig>:
  *             смещение 4 и, в итоге, в регистре окажется значение 6.
  * @param      DivVal  Значение (биты [6:0])
  * @retval     void
  */
__STATIC_INLINE void I2C_FSDivLowConfig(uint32_t DivVal)
{
80005796:	1101                	addi	sp,sp,-32
80005798:	ce22                	sw	s0,28(sp)
8000579a:	1000                	addi	s0,sp,32
8000579c:	fea42623          	sw	a0,-20(s0)
    assert_param(IS_I2C_FS_DIV_LOW_VAL(DivVal));

    WRITE_REG(I2C->CTL1_bit.SCLFRQ, DivVal);
800057a0:	300057b7          	lui	a5,0x30005
800057a4:	fec42703          	lw	a4,-20(s0)
800057a8:	07f77713          	andi	a4,a4,127
800057ac:	0ff77713          	zext.b	a4,a4
800057b0:	0706                	slli	a4,a4,0x1
800057b2:	0147c683          	lbu	a3,20(a5) # 30005014 <STACK_SIZE+0x30004814>
800057b6:	8a85                	andi	a3,a3,1
800057b8:	8f55                	or	a4,a4,a3
800057ba:	00e78a23          	sb	a4,20(a5)
}
800057be:	0001                	nop
800057c0:	4472                	lw	s0,28(sp)
800057c2:	6105                	addi	sp,sp,32
800057c4:	8082                	ret

800057c6 <I2C_FSDivHighConfig>:
  * @brief   Установка старшей части делителя частоты в режиме FS мастера
  * @param   DivVal  Значение (биты [7:0])
  * @retval  void
  */
__STATIC_INLINE void I2C_FSDivHighConfig(uint32_t DivVal)
{
800057c6:	1101                	addi	sp,sp,-32
800057c8:	ce22                	sw	s0,28(sp)
800057ca:	1000                	addi	s0,sp,32
800057cc:	fea42623          	sw	a0,-20(s0)
    assert_param(IS_I2C_FS_DIV_HIGH_VAL(DivVal));

    WRITE_REG(I2C->CTL3_bit.SCLFRQ, DivVal);
800057d0:	300057b7          	lui	a5,0x30005
800057d4:	fec42703          	lw	a4,-20(s0)
800057d8:	0ff77713          	zext.b	a4,a4
800057dc:	02e78023          	sb	a4,32(a5) # 30005020 <STACK_SIZE+0x30004820>
}
800057e0:	0001                	nop
800057e2:	4472                	lw	s0,28(sp)
800057e4:	6105                	addi	sp,sp,32
800057e6:	8082                	ret

800057e8 <I2C_HSDivLowConfig>:
  *             смещение 2 и, в итоге, в регистре окажется значение 3.
  * @param      DivVal  Значение (биты [3:0])
  * @retval     void
  */
__STATIC_INLINE void I2C_HSDivLowConfig(uint32_t DivVal)
{
800057e8:	1101                	addi	sp,sp,-32
800057ea:	ce22                	sw	s0,28(sp)
800057ec:	1000                	addi	s0,sp,32
800057ee:	fea42623          	sw	a0,-20(s0)
    assert_param(IS_I2C_HS_DIV_LOW_VAL(DivVal));

    WRITE_REG(I2C->CTL2_bit.HSDIV, DivVal);
800057f2:	300057b7          	lui	a5,0x30005
800057f6:	fec42703          	lw	a4,-20(s0)
800057fa:	8b3d                	andi	a4,a4,15
800057fc:	0ff77713          	zext.b	a4,a4
80005800:	0712                	slli	a4,a4,0x4
80005802:	01c7c683          	lbu	a3,28(a5) # 3000501c <STACK_SIZE+0x3000481c>
80005806:	8abd                	andi	a3,a3,15
80005808:	8f55                	or	a4,a4,a3
8000580a:	00e78e23          	sb	a4,28(a5)
}
8000580e:	0001                	nop
80005810:	4472                	lw	s0,28(sp)
80005812:	6105                	addi	sp,sp,32
80005814:	8082                	ret

80005816 <I2C_HSDivHighConfig>:
  * @brief   Установка старшей части делителя частоты в режиме HS мастера
  * @param   DivVal  Значение (биты [7:0])
  * @retval  void
  */
__STATIC_INLINE void I2C_HSDivHighConfig(uint32_t DivVal)
{
80005816:	1101                	addi	sp,sp,-32
80005818:	ce22                	sw	s0,28(sp)
8000581a:	1000                	addi	s0,sp,32
8000581c:	fea42623          	sw	a0,-20(s0)
    assert_param(IS_I2C_HS_DIV_HIGH_VAL(DivVal));

    WRITE_REG(I2C->CTL4_bit.HSDIV, DivVal);
80005820:	300057b7          	lui	a5,0x30005
80005824:	fec42703          	lw	a4,-20(s0)
80005828:	0ff77713          	zext.b	a4,a4
8000582c:	02e78223          	sb	a4,36(a5) # 30005024 <STACK_SIZE+0x30004824>
}
80005830:	0001                	nop
80005832:	4472                	lw	s0,28(sp)
80005834:	6105                	addi	sp,sp,32
80005836:	8082                	ret

80005838 <I2C_FSFreqConfig>:
  * @param   FSFreq  Желаемое значение частоты в ГЦ
  * @param   I2CFreq  Значение частоты  тактового сигнала I2C в ГЦ
  * @retval  void
  */
void I2C_FSFreqConfig(uint32_t FSFreq, uint32_t I2CFreq)
{
80005838:	7179                	addi	sp,sp,-48
8000583a:	d606                	sw	ra,44(sp)
8000583c:	d422                	sw	s0,40(sp)
8000583e:	1800                	addi	s0,sp,48
80005840:	fca42e23          	sw	a0,-36(s0)
80005844:	fcb42c23          	sw	a1,-40(s0)
    uint32_t freq_calc = I2CFreq / (4 * FSFreq);
80005848:	fdc42783          	lw	a5,-36(s0)
8000584c:	078a                	slli	a5,a5,0x2
8000584e:	fd842703          	lw	a4,-40(s0)
80005852:	02f757b3          	divu	a5,a4,a5
80005856:	fef42623          	sw	a5,-20(s0)

    I2C_FSDivLowConfig(freq_calc & 0x7F);
8000585a:	fec42783          	lw	a5,-20(s0)
8000585e:	07f7f793          	andi	a5,a5,127
80005862:	853e                	mv	a0,a5
80005864:	3f0d                	jal	80005796 <I2C_FSDivLowConfig>
    I2C_FSDivHighConfig(freq_calc >> 7);
80005866:	fec42783          	lw	a5,-20(s0)
8000586a:	839d                	srli	a5,a5,0x7
8000586c:	853e                	mv	a0,a5
8000586e:	3fa1                	jal	800057c6 <I2C_FSDivHighConfig>
}
80005870:	0001                	nop
80005872:	50b2                	lw	ra,44(sp)
80005874:	5422                	lw	s0,40(sp)
80005876:	6145                	addi	sp,sp,48
80005878:	8082                	ret

8000587a <I2C_HSFreqConfig>:
  * @param   HSFreq  Желаемое значение частоты в ГЦ
  * @param   I2CFreq  Значение частоты  тактового сигнала I2C в ГЦ
  * @retval  void
  */
void I2C_HSFreqConfig(uint32_t HSFreq, uint32_t I2CFreq)
{
8000587a:	7179                	addi	sp,sp,-48
8000587c:	d606                	sw	ra,44(sp)
8000587e:	d422                	sw	s0,40(sp)
80005880:	1800                	addi	s0,sp,48
80005882:	fca42e23          	sw	a0,-36(s0)
80005886:	fcb42c23          	sw	a1,-40(s0)
    uint32_t freq_calc = I2CFreq / (3 * HSFreq);
8000588a:	fdc42703          	lw	a4,-36(s0)
8000588e:	87ba                	mv	a5,a4
80005890:	0786                	slli	a5,a5,0x1
80005892:	97ba                	add	a5,a5,a4
80005894:	fd842703          	lw	a4,-40(s0)
80005898:	02f757b3          	divu	a5,a4,a5
8000589c:	fef42623          	sw	a5,-20(s0)

    I2C_HSDivLowConfig(freq_calc & 0x0F);
800058a0:	fec42783          	lw	a5,-20(s0)
800058a4:	8bbd                	andi	a5,a5,15
800058a6:	853e                	mv	a0,a5
800058a8:	3781                	jal	800057e8 <I2C_HSDivLowConfig>
    I2C_HSDivHighConfig(freq_calc >> 4);
800058aa:	fec42783          	lw	a5,-20(s0)
800058ae:	8391                	srli	a5,a5,0x4
800058b0:	853e                	mv	a0,a5
800058b2:	3795                	jal	80005816 <I2C_HSDivHighConfig>
}
800058b4:	0001                	nop
800058b6:	50b2                	lw	ra,44(sp)
800058b8:	5422                	lw	s0,40(sp)
800058ba:	6145                	addi	sp,sp,48
800058bc:	8082                	ret

800058be <RCU_AHBRstCmd>:
{
800058be:	1101                	addi	sp,sp,-32
800058c0:	ce22                	sw	s0,28(sp)
800058c2:	1000                	addi	s0,sp,32
800058c4:	fea42623          	sw	a0,-20(s0)
800058c8:	feb42423          	sw	a1,-24(s0)
    MODIFY_REG(RCU->RSTDISAHB, AHBRst, State ? AHBRst : 0);
800058cc:	3000e7b7          	lui	a5,0x3000e
800058d0:	4b98                	lw	a4,16(a5)
800058d2:	fec42783          	lw	a5,-20(s0)
800058d6:	fff7c793          	not	a5,a5
800058da:	00f776b3          	and	a3,a4,a5
800058de:	fe842783          	lw	a5,-24(s0)
800058e2:	c781                	beqz	a5,800058ea <RCU_AHBRstCmd+0x2c>
800058e4:	fec42783          	lw	a5,-20(s0)
800058e8:	a011                	j	800058ec <RCU_AHBRstCmd+0x2e>
800058ea:	4781                	li	a5,0
800058ec:	3000e737          	lui	a4,0x3000e
800058f0:	8fd5                	or	a5,a5,a3
800058f2:	cb1c                	sw	a5,16(a4)
}
800058f4:	0001                	nop
800058f6:	4472                	lw	s0,28(sp)
800058f8:	6105                	addi	sp,sp,32
800058fa:	8082                	ret

800058fc <QSPI_ModeConfig>:
  * @brief   Выбор режима работы
  * @param   mode Режим работы
  * @retval  void
  */
__STATIC_INLINE void QSPI_ModeConfig(QSPI_Mode_TypeDef mode)
{
800058fc:	1101                	addi	sp,sp,-32
800058fe:	ce22                	sw	s0,28(sp)
80005900:	1000                	addi	s0,sp,32
80005902:	fea42623          	sw	a0,-20(s0)
    assert_param(IS_QSPI_MODE(mode));

    WRITE_REG(QSPI->DCR_bit.FMOD, mode);
80005906:	200407b7          	lui	a5,0x20040
8000590a:	fec42703          	lw	a4,-20(s0)
8000590e:	8b1d                	andi	a4,a4,7
80005910:	0ff77713          	zext.b	a4,a4
80005914:	8b1d                	andi	a4,a4,7
80005916:	0742                	slli	a4,a4,0x10
80005918:	43d0                	lw	a2,4(a5)
8000591a:	fff906b7          	lui	a3,0xfff90
8000591e:	16fd                	addi	a3,a3,-1 # fff8ffff <__data_source_start+0x7ff886b7>
80005920:	8ef1                	and	a3,a3,a2
80005922:	8f55                	or	a4,a4,a3
80005924:	c3d8                	sw	a4,4(a5)
}
80005926:	0001                	nop
80005928:	4472                	lw	s0,28(sp)
8000592a:	6105                	addi	sp,sp,32
8000592c:	8082                	ret

8000592e <QSPI_SCKDivConfig>:
  * @param   div	 Основной делитель.
  *                  Параметр принимает любое значение из диапазона 0-255.
  * @retval  void
  */
__STATIC_INLINE void QSPI_SCKDivConfig(uint32_t div)
{
8000592e:	1101                	addi	sp,sp,-32
80005930:	ce22                	sw	s0,28(sp)
80005932:	1000                	addi	s0,sp,32
80005934:	fea42623          	sw	a0,-20(s0)
    assert_param(IS_QSPI_CDIV(div));

    WRITE_REG(QSPI->DCR_bit.CDIV, div);
80005938:	200407b7          	lui	a5,0x20040
8000593c:	fec42703          	lw	a4,-20(s0)
80005940:	0ff77713          	zext.b	a4,a4
80005944:	00e782a3          	sb	a4,5(a5) # 20040005 <STACK_SIZE+0x2003f805>
}
80005948:	0001                	nop
8000594a:	4472                	lw	s0,28(sp)
8000594c:	6105                	addi	sp,sp,32
8000594e:	8082                	ret

80005950 <QSPI_SetWordLength>:
  * @brief   Установка размера слова данных
  * @param   length длина слова, значение от 1 до 32
  * @retval  void
  */
__STATIC_INLINE void QSPI_SetWordLength(uint32_t length)
{
80005950:	1101                	addi	sp,sp,-32
80005952:	ce22                	sw	s0,28(sp)
80005954:	1000                	addi	s0,sp,32
80005956:	fea42623          	sw	a0,-20(s0)
	assert_param(IS_QSPI_WORD(length));

	WRITE_REG(QSPI->TCR_bit.LEN, length);
8000595a:	200407b7          	lui	a5,0x20040
8000595e:	fec42703          	lw	a4,-20(s0)
80005962:	03f77713          	andi	a4,a4,63
80005966:	0ff77713          	zext.b	a4,a4
8000596a:	03f77713          	andi	a4,a4,63
8000596e:	00c7d683          	lhu	a3,12(a5) # 2004000c <STACK_SIZE+0x2003f80c>
80005972:	fc06f693          	andi	a3,a3,-64
80005976:	8f55                	or	a4,a4,a3
80005978:	00e79623          	sh	a4,12(a5)
}
8000597c:	0001                	nop
8000597e:	4472                	lw	s0,28(sp)
80005980:	6105                	addi	sp,sp,32
80005982:	8082                	ret

80005984 <QSPI_SPIDataRateConfig>:
  * @brief   Установка скорости передачи данных
  * @param   dataRate скорость передачи данных типа @ref QSPI_DR_TypeDef
  * @retval  void
  */
__STATIC_INLINE void QSPI_SPIDataRateConfig(QSPI_SPI_DataRate_TypeDef dataRate)
{
80005984:	1101                	addi	sp,sp,-32
80005986:	ce22                	sw	s0,28(sp)
80005988:	1000                	addi	s0,sp,32
8000598a:	fea42623          	sw	a0,-20(s0)
	assert_param(IS_QSPI_SPI_DR(dataRate));

	WRITE_REG(QSPI->TCR_bit.DDR, dataRate);
8000598e:	200407b7          	lui	a5,0x20040
80005992:	fec42703          	lw	a4,-20(s0)
80005996:	8b05                	andi	a4,a4,1
80005998:	0ff77713          	zext.b	a4,a4
8000599c:	8b05                	andi	a4,a4,1
8000599e:	071e                	slli	a4,a4,0x7
800059a0:	00c7d683          	lhu	a3,12(a5) # 2004000c <STACK_SIZE+0x2003f80c>
800059a4:	f7f6f693          	andi	a3,a3,-129
800059a8:	8f55                	or	a4,a4,a3
800059aa:	00e79623          	sh	a4,12(a5)
}
800059ae:	0001                	nop
800059b0:	4472                	lw	s0,28(sp)
800059b2:	6105                	addi	sp,sp,32
800059b4:	8082                	ret

800059b6 <QSPI_TxCmd>:
  * @brief   Разрешение передачи
  * @param   state Флаг разрешения
  * @retval  void
  */
__STATIC_INLINE void QSPI_TxCmd(FunctionalState state)
{
800059b6:	1101                	addi	sp,sp,-32
800059b8:	ce22                	sw	s0,28(sp)
800059ba:	1000                	addi	s0,sp,32
800059bc:	fea42623          	sw	a0,-20(s0)
	assert_param(IS_FUNCTIONAL_STATE(state));

	WRITE_REG(QSPI->TCR_bit.TXE, state);
800059c0:	200407b7          	lui	a5,0x20040
800059c4:	fec42703          	lw	a4,-20(s0)
800059c8:	8b05                	andi	a4,a4,1
800059ca:	0ff77713          	zext.b	a4,a4
800059ce:	8b05                	andi	a4,a4,1
800059d0:	0722                	slli	a4,a4,0x8
800059d2:	00c7d683          	lhu	a3,12(a5) # 2004000c <STACK_SIZE+0x2003f80c>
800059d6:	eff6f693          	andi	a3,a3,-257
800059da:	8f55                	or	a4,a4,a3
800059dc:	00e79623          	sh	a4,12(a5)
}
800059e0:	0001                	nop
800059e2:	4472                	lw	s0,28(sp)
800059e4:	6105                	addi	sp,sp,32
800059e6:	8082                	ret

800059e8 <QSPI_RxCmd>:
  * @brief   Разрешение приема
  * @param   state Флаг разрешения
  * @retval  void
  */
__STATIC_INLINE void QSPI_RxCmd(FunctionalState state)
{
800059e8:	1101                	addi	sp,sp,-32
800059ea:	ce22                	sw	s0,28(sp)
800059ec:	1000                	addi	s0,sp,32
800059ee:	fea42623          	sw	a0,-20(s0)
	assert_param(IS_FUNCTIONAL_STATE(state));

	WRITE_REG(QSPI->TCR_bit.RXE, state);
800059f2:	200407b7          	lui	a5,0x20040
800059f6:	fec42703          	lw	a4,-20(s0)
800059fa:	8b05                	andi	a4,a4,1
800059fc:	0ff77713          	zext.b	a4,a4
80005a00:	8b05                	andi	a4,a4,1
80005a02:	0726                	slli	a4,a4,0x9
80005a04:	00c7d683          	lhu	a3,12(a5) # 2004000c <STACK_SIZE+0x2003f80c>
80005a08:	dff6f693          	andi	a3,a3,-513
80005a0c:	8f55                	or	a4,a4,a3
80005a0e:	00e79623          	sh	a4,12(a5)
}
80005a12:	0001                	nop
80005a14:	4472                	lw	s0,28(sp)
80005a16:	6105                	addi	sp,sp,32
80005a18:	8082                	ret

80005a1a <QSPI_SPITransactionModeConfig>:
  * @brief   Выбор количества линий данных
  * @param   mode Количество линий типа @ref QSPI_IOMode_TypeDef
  * @retval  void
  */
__STATIC_INLINE void QSPI_SPITransactionModeConfig(QSPI_SPI_IOMode_TypeDef mode)
{
80005a1a:	1101                	addi	sp,sp,-32
80005a1c:	ce22                	sw	s0,28(sp)
80005a1e:	1000                	addi	s0,sp,32
80005a20:	fea42623          	sw	a0,-20(s0)
	assert_param(IS_QSPI_SPI_IOMODE(mode));

	WRITE_REG(QSPI->TCR_bit.IOM, mode);
80005a24:	200407b7          	lui	a5,0x20040
80005a28:	fec42703          	lw	a4,-20(s0)
80005a2c:	8b0d                	andi	a4,a4,3
80005a2e:	0ff77713          	zext.b	a4,a4
80005a32:	8b0d                	andi	a4,a4,3
80005a34:	00a71613          	slli	a2,a4,0xa
80005a38:	00c7d703          	lhu	a4,12(a5) # 2004000c <STACK_SIZE+0x2003f80c>
80005a3c:	86ba                	mv	a3,a4
80005a3e:	777d                	lui	a4,0xfffff
80005a40:	3ff70713          	addi	a4,a4,1023 # fffff3ff <__data_source_start+0x7fff7ab7>
80005a44:	8f75                	and	a4,a4,a3
80005a46:	86ba                	mv	a3,a4
80005a48:	8732                	mv	a4,a2
80005a4a:	8f55                	or	a4,a4,a3
80005a4c:	00e79623          	sh	a4,12(a5)
}
80005a50:	0001                	nop
80005a52:	4472                	lw	s0,28(sp)
80005a54:	6105                	addi	sp,sp,32
80005a56:	8082                	ret

80005a58 <QSPI_InstructionConfig>:
  * @brief   Установка кода инструкции для внешнего устройства
  * @param   instruction Код инструкции, отправляемый во внешнее устройство по QuadSPI
  * @retval  void
  */
__STATIC_INLINE void QSPI_InstructionConfig(uint8_t instruction)
{
80005a58:	1101                	addi	sp,sp,-32
80005a5a:	ce22                	sw	s0,28(sp)
80005a5c:	1000                	addi	s0,sp,32
80005a5e:	87aa                	mv	a5,a0
80005a60:	fef407a3          	sb	a5,-17(s0)
	WRITE_REG(QSPI->QCC_bit.INST, instruction);
80005a64:	200407b7          	lui	a5,0x20040
80005a68:	fef44703          	lbu	a4,-17(s0)
80005a6c:	00e78c23          	sb	a4,24(a5) # 20040018 <STACK_SIZE+0x2003f818>
}
80005a70:	0001                	nop
80005a72:	4472                	lw	s0,28(sp)
80005a74:	6105                	addi	sp,sp,32
80005a76:	8082                	ret

80005a78 <QSPI_InstructionModeConfig>:
  * @brief   Установка режима фазы инструкции для QuadSPI
  * @param   mode режим передачи типа @ref QSPI_QSPI_IOMode_TypeDef
  * @retval  void
  */
__STATIC_INLINE void QSPI_InstructionModeConfig(QSPI_IOMode_TypeDef mode)
{
80005a78:	1101                	addi	sp,sp,-32
80005a7a:	ce22                	sw	s0,28(sp)
80005a7c:	1000                	addi	s0,sp,32
80005a7e:	fea42623          	sw	a0,-20(s0)
	assert_param(IS_QSPI_IOMODE(mode));

	WRITE_REG(QSPI->QCC_bit.IMOD, mode);
80005a82:	200407b7          	lui	a5,0x20040
80005a86:	fec42703          	lw	a4,-20(s0)
80005a8a:	8b0d                	andi	a4,a4,3
80005a8c:	0ff77713          	zext.b	a4,a4
80005a90:	8b0d                	andi	a4,a4,3
80005a92:	0722                	slli	a4,a4,0x8
80005a94:	4f94                	lw	a3,24(a5)
80005a96:	cff6f693          	andi	a3,a3,-769
80005a9a:	8f55                	or	a4,a4,a3
80005a9c:	cf98                	sw	a4,24(a5)
}
80005a9e:	0001                	nop
80005aa0:	4472                	lw	s0,28(sp)
80005aa2:	6105                	addi	sp,sp,32
80005aa4:	8082                	ret

80005aa6 <QSPI_AddressModeConfig>:
  * @brief   Установка режима фазы адреса для QuadSPI
  * @param   mode режим передачи типа @ref QSPI_QSPI_IOMode_TypeDef
  * @retval  void
  */
__STATIC_INLINE void QSPI_AddressModeConfig(QSPI_IOMode_TypeDef mode)
{
80005aa6:	1101                	addi	sp,sp,-32
80005aa8:	ce22                	sw	s0,28(sp)
80005aaa:	1000                	addi	s0,sp,32
80005aac:	fea42623          	sw	a0,-20(s0)
	assert_param(IS_QSPI_IOMODE(mode));

	WRITE_REG(QSPI->QCC_bit.ADMOD, mode);
80005ab0:	200407b7          	lui	a5,0x20040
80005ab4:	fec42703          	lw	a4,-20(s0)
80005ab8:	8b0d                	andi	a4,a4,3
80005aba:	0ff77713          	zext.b	a4,a4
80005abe:	8b0d                	andi	a4,a4,3
80005ac0:	072a                	slli	a4,a4,0xa
80005ac2:	4f90                	lw	a2,24(a5)
80005ac4:	76fd                	lui	a3,0xfffff
80005ac6:	3ff68693          	addi	a3,a3,1023 # fffff3ff <__data_source_start+0x7fff7ab7>
80005aca:	8ef1                	and	a3,a3,a2
80005acc:	8f55                	or	a4,a4,a3
80005ace:	cf98                	sw	a4,24(a5)
}
80005ad0:	0001                	nop
80005ad2:	4472                	lw	s0,28(sp)
80005ad4:	6105                	addi	sp,sp,32
80005ad6:	8082                	ret

80005ad8 <QSPI_AddressSizeConfig>:
  * @brief   Установка размера адреса для QuadSPI
  * @param   size размер типа @ref QSPI_QSPI_DataSize_TypeDef
  * @retval  void
  */
__STATIC_INLINE void QSPI_AddressSizeConfig(QSPI_DataSize_TypeDef size)
{
80005ad8:	1101                	addi	sp,sp,-32
80005ada:	ce22                	sw	s0,28(sp)
80005adc:	1000                	addi	s0,sp,32
80005ade:	fea42623          	sw	a0,-20(s0)
	assert_param(IS_QSPI_DATASIZE(size));

	WRITE_REG(QSPI->QCC_bit.ADSIZ, size);
80005ae2:	200407b7          	lui	a5,0x20040
80005ae6:	fec42703          	lw	a4,-20(s0)
80005aea:	8b0d                	andi	a4,a4,3
80005aec:	0ff77713          	zext.b	a4,a4
80005af0:	8b0d                	andi	a4,a4,3
80005af2:	0732                	slli	a4,a4,0xc
80005af4:	4f90                	lw	a2,24(a5)
80005af6:	76f5                	lui	a3,0xffffd
80005af8:	16fd                	addi	a3,a3,-1 # ffffcfff <__data_source_start+0x7fff56b7>
80005afa:	8ef1                	and	a3,a3,a2
80005afc:	8f55                	or	a4,a4,a3
80005afe:	cf98                	sw	a4,24(a5)
}
80005b00:	0001                	nop
80005b02:	4472                	lw	s0,28(sp)
80005b04:	6105                	addi	sp,sp,32
80005b06:	8082                	ret

80005b08 <QSPI_AdditionalModeConfig>:
  * @brief   Установка режима фазы дополнительных данных для QuadSPI
  * @param   mode режим передачи типа @ref QSPI_QSPI_IOMode_TypeDef
  * @retval  void
  */
__STATIC_INLINE void QSPI_AdditionalModeConfig(QSPI_IOMode_TypeDef mode)
{
80005b08:	1101                	addi	sp,sp,-32
80005b0a:	ce22                	sw	s0,28(sp)
80005b0c:	1000                	addi	s0,sp,32
80005b0e:	fea42623          	sw	a0,-20(s0)
	assert_param(IS_QSPI_IOMODE(mode));

	WRITE_REG(QSPI->QCC_bit.ABMOD, mode);
80005b12:	200407b7          	lui	a5,0x20040
80005b16:	fec42703          	lw	a4,-20(s0)
80005b1a:	8b0d                	andi	a4,a4,3
80005b1c:	0ff77713          	zext.b	a4,a4
80005b20:	8b0d                	andi	a4,a4,3
80005b22:	073a                	slli	a4,a4,0xe
80005b24:	4f90                	lw	a2,24(a5)
80005b26:	76d1                	lui	a3,0xffff4
80005b28:	16fd                	addi	a3,a3,-1 # ffff3fff <__data_source_start+0x7ffec6b7>
80005b2a:	8ef1                	and	a3,a3,a2
80005b2c:	8f55                	or	a4,a4,a3
80005b2e:	cf98                	sw	a4,24(a5)
}
80005b30:	0001                	nop
80005b32:	4472                	lw	s0,28(sp)
80005b34:	6105                	addi	sp,sp,32
80005b36:	8082                	ret

80005b38 <QSPI_AdditionalSizeConfig>:
  * @brief   Установка размера дополнительных данных для QuadSPI
  * @param   size размер типа @ref QSPI_QSPI_DataSize_TypeDef
  * @retval  void
  */
__STATIC_INLINE void QSPI_AdditionalSizeConfig(QSPI_DataSize_TypeDef size)
{
80005b38:	1101                	addi	sp,sp,-32
80005b3a:	ce22                	sw	s0,28(sp)
80005b3c:	1000                	addi	s0,sp,32
80005b3e:	fea42623          	sw	a0,-20(s0)
	assert_param(IS_QSPI_DATASIZE(size));

	WRITE_REG(QSPI->QCC_bit.ABSIZ, size);
80005b42:	200407b7          	lui	a5,0x20040
80005b46:	fec42703          	lw	a4,-20(s0)
80005b4a:	8b0d                	andi	a4,a4,3
80005b4c:	0ff77713          	zext.b	a4,a4
80005b50:	8b0d                	andi	a4,a4,3
80005b52:	0742                	slli	a4,a4,0x10
80005b54:	4f90                	lw	a2,24(a5)
80005b56:	fffd06b7          	lui	a3,0xfffd0
80005b5a:	16fd                	addi	a3,a3,-1 # fffcffff <__data_source_start+0x7ffc86b7>
80005b5c:	8ef1                	and	a3,a3,a2
80005b5e:	8f55                	or	a4,a4,a3
80005b60:	cf98                	sw	a4,24(a5)
}
80005b62:	0001                	nop
80005b64:	4472                	lw	s0,28(sp)
80005b66:	6105                	addi	sp,sp,32
80005b68:	8082                	ret

80005b6a <QSPI_WaitCyclesConfig>:
  * @brief   Установка количества циклов ожидания для QuadSPI
  * @param   waitCycles количество циклов ожидания принимает значения от 0 до 31
  * @retval  void
  */
__STATIC_INLINE void QSPI_WaitCyclesConfig(uint32_t waitCycles)
{
80005b6a:	1101                	addi	sp,sp,-32
80005b6c:	ce22                	sw	s0,28(sp)
80005b6e:	1000                	addi	s0,sp,32
80005b70:	fea42623          	sw	a0,-20(s0)
	assert_param(IS_QSPI_DCYCS(waitCycles));

	WRITE_REG(QSPI->QCC_bit.DCYCS, waitCycles);
80005b74:	200407b7          	lui	a5,0x20040
80005b78:	fec42703          	lw	a4,-20(s0)
80005b7c:	8b7d                	andi	a4,a4,31
80005b7e:	0ff77713          	zext.b	a4,a4
80005b82:	8b7d                	andi	a4,a4,31
80005b84:	074a                	slli	a4,a4,0x12
80005b86:	4f90                	lw	a2,24(a5)
80005b88:	ff8406b7          	lui	a3,0xff840
80005b8c:	16fd                	addi	a3,a3,-1 # ff83ffff <__data_source_start+0x7f8386b7>
80005b8e:	8ef1                	and	a3,a3,a2
80005b90:	8f55                	or	a4,a4,a3
80005b92:	cf98                	sw	a4,24(a5)
}
80005b94:	0001                	nop
80005b96:	4472                	lw	s0,28(sp)
80005b98:	6105                	addi	sp,sp,32
80005b9a:	8082                	ret

80005b9c <QSPI_DataModeConfig>:
  * @brief   Установка режима фазы данных для QuadSPI
  * @param   mode режим передачи типа @ref QSPI_QSPI_IOMode_TypeDef
  * @retval  void
  */
__STATIC_INLINE void QSPI_DataModeConfig(QSPI_IOMode_TypeDef mode)
{
80005b9c:	1101                	addi	sp,sp,-32
80005b9e:	ce22                	sw	s0,28(sp)
80005ba0:	1000                	addi	s0,sp,32
80005ba2:	fea42623          	sw	a0,-20(s0)
	assert_param(IS_QSPI_IOMODE(mode));

	WRITE_REG(QSPI->QCC_bit.DMOD, mode);
80005ba6:	200407b7          	lui	a5,0x20040
80005baa:	fec42703          	lw	a4,-20(s0)
80005bae:	8b0d                	andi	a4,a4,3
80005bb0:	0ff77713          	zext.b	a4,a4
80005bb4:	8b0d                	andi	a4,a4,3
80005bb6:	0762                	slli	a4,a4,0x18
80005bb8:	4f90                	lw	a2,24(a5)
80005bba:	fd0006b7          	lui	a3,0xfd000
80005bbe:	16fd                	addi	a3,a3,-1 # fcffffff <__data_source_start+0x7cff86b7>
80005bc0:	8ef1                	and	a3,a3,a2
80005bc2:	8f55                	or	a4,a4,a3
80005bc4:	cf98                	sw	a4,24(a5)
}
80005bc6:	0001                	nop
80005bc8:	4472                	lw	s0,28(sp)
80005bca:	6105                	addi	sp,sp,32
80005bcc:	8082                	ret

80005bce <QSPI_DataDirectionConfig>:
  * @brief   Установка направления передачи данных для QuadSPI
  * @param   dir напавление передачи данных типа @ref QSPI_QSPI_Direction_TypeDef
  * @retval  void
  */
__STATIC_INLINE void QSPI_DataDirectionConfig(QSPI_Direction_TypeDef dir)
{
80005bce:	1101                	addi	sp,sp,-32
80005bd0:	ce22                	sw	s0,28(sp)
80005bd2:	1000                	addi	s0,sp,32
80005bd4:	fea42623          	sw	a0,-20(s0)
	assert_param(IS_QSPI_DIR(dir));

	WRITE_REG(QSPI->QCC_bit.DIOD, dir);
80005bd8:	200407b7          	lui	a5,0x20040
80005bdc:	fec42703          	lw	a4,-20(s0)
80005be0:	8b0d                	andi	a4,a4,3
80005be2:	0ff77713          	zext.b	a4,a4
80005be6:	8b0d                	andi	a4,a4,3
80005be8:	076a                	slli	a4,a4,0x1a
80005bea:	4f90                	lw	a2,24(a5)
80005bec:	f40006b7          	lui	a3,0xf4000
80005bf0:	16fd                	addi	a3,a3,-1 # f3ffffff <__data_source_start+0x73ff86b7>
80005bf2:	8ef1                	and	a3,a3,a2
80005bf4:	8f55                	or	a4,a4,a3
80005bf6:	cf98                	sw	a4,24(a5)
}
80005bf8:	0001                	nop
80005bfa:	4472                	lw	s0,28(sp)
80005bfc:	6105                	addi	sp,sp,32
80005bfe:	8082                	ret

80005c00 <QSPI_DataRateConfig>:
  * @brief   Установка скорости передачи данных
  * @param   dataRate скорость передачи данных типа @ref QSPI_QSPI_DataRate_TypeDef
  * @retval  void
  */
__STATIC_INLINE void QSPI_DataRateConfig(QSPI_DataRate_TypeDef dataRate)
{
80005c00:	1101                	addi	sp,sp,-32
80005c02:	ce22                	sw	s0,28(sp)
80005c04:	1000                	addi	s0,sp,32
80005c06:	fea42623          	sw	a0,-20(s0)
	assert_param(IS_QSPI_DATARATE(dataRate));

	WRITE_REG(QSPI->QCC_bit.DDRM, dataRate);
80005c0a:	200407b7          	lui	a5,0x20040
80005c0e:	fec42703          	lw	a4,-20(s0)
80005c12:	8b05                	andi	a4,a4,1
80005c14:	0ff77713          	zext.b	a4,a4
80005c18:	077e                	slli	a4,a4,0x1f
80005c1a:	4f90                	lw	a2,24(a5)
80005c1c:	800006b7          	lui	a3,0x80000
80005c20:	fff6c693          	not	a3,a3
80005c24:	8ef1                	and	a3,a3,a2
80005c26:	8f55                	or	a4,a4,a3
80005c28:	cf98                	sw	a4,24(a5)
}
80005c2a:	0001                	nop
80005c2c:	4472                	lw	s0,28(sp)
80005c2e:	6105                	addi	sp,sp,32
80005c30:	8082                	ret

80005c32 <QSPI_DeInit>:
/**
  * @brief   Устанавливает все регистры QSPI значениями по умолчанию
  * @retval  void
  */
void QSPI_DeInit()
{
80005c32:	1141                	addi	sp,sp,-16
80005c34:	c606                	sw	ra,12(sp)
80005c36:	c422                	sw	s0,8(sp)
80005c38:	0800                	addi	s0,sp,16
	RCU_AHBRstCmd(RCU_AHBClk_QSPI, DISABLE);
80005c3a:	4581                	li	a1,0
80005c3c:	4541                	li	a0,16
80005c3e:	3141                	jal	800058be <RCU_AHBRstCmd>
    RCU_AHBRstCmd(RCU_AHBClk_QSPI, ENABLE);
80005c40:	4585                	li	a1,1
80005c42:	4541                	li	a0,16
80005c44:	39ad                	jal	800058be <RCU_AHBRstCmd>
}
80005c46:	0001                	nop
80005c48:	40b2                	lw	ra,12(sp)
80005c4a:	4422                	lw	s0,8(sp)
80005c4c:	0141                	addi	sp,sp,16
80005c4e:	8082                	ret

80005c50 <QSPI_SPI_Init>:
  * @param   InitStruct  Указатель на структуру типа @ref QSPI_SPI_Init_TypeDef,
  *                      которая содержит конфигурационную информацию.
  * @retval  Status  Статус результата инициализации
  */
void QSPI_SPI_Init(QSPI_SPI_Init_TypeDef* InitStruct)
{
80005c50:	1101                	addi	sp,sp,-32
80005c52:	ce06                	sw	ra,28(sp)
80005c54:	cc22                	sw	s0,24(sp)
80005c56:	1000                	addi	s0,sp,32
80005c58:	fea42623          	sw	a0,-20(s0)
	QSPI_ModeConfig(QSPI_Mode_SPI);
80005c5c:	4501                	li	a0,0
80005c5e:	3979                	jal	800058fc <QSPI_ModeConfig>
	QSPI_SPITransactionModeConfig(InitStruct->IOMode);
80005c60:	fec42783          	lw	a5,-20(s0)
80005c64:	439c                	lw	a5,0(a5)
80005c66:	853e                	mv	a0,a5
80005c68:	3b4d                	jal	80005a1a <QSPI_SPITransactionModeConfig>
	QSPI_SPIDataRateConfig(InitStruct->dataRate);
80005c6a:	fec42783          	lw	a5,-20(s0)
80005c6e:	43dc                	lw	a5,4(a5)
80005c70:	853e                	mv	a0,a5
80005c72:	3b09                	jal	80005984 <QSPI_SPIDataRateConfig>
	QSPI_SetWordLength(InitStruct->dataWidth);
80005c74:	fec42783          	lw	a5,-20(s0)
80005c78:	479c                	lw	a5,8(a5)
80005c7a:	853e                	mv	a0,a5
80005c7c:	39d1                	jal	80005950 <QSPI_SetWordLength>
	QSPI_TxCmd(InitStruct->TxEnable);
80005c7e:	fec42783          	lw	a5,-20(s0)
80005c82:	47dc                	lw	a5,12(a5)
80005c84:	853e                	mv	a0,a5
80005c86:	3b05                	jal	800059b6 <QSPI_TxCmd>
	QSPI_RxCmd(InitStruct->RxEnable);
80005c88:	fec42783          	lw	a5,-20(s0)
80005c8c:	4b9c                	lw	a5,16(a5)
80005c8e:	853e                	mv	a0,a5
80005c90:	3ba1                	jal	800059e8 <QSPI_RxCmd>
	QSPI_SCKDivConfig(InitStruct->SCKDiv);
80005c92:	fec42783          	lw	a5,-20(s0)
80005c96:	4bdc                	lw	a5,20(a5)
80005c98:	853e                	mv	a0,a5
80005c9a:	3951                	jal	8000592e <QSPI_SCKDivConfig>
}
80005c9c:	0001                	nop
80005c9e:	40f2                	lw	ra,28(sp)
80005ca0:	4462                	lw	s0,24(sp)
80005ca2:	6105                	addi	sp,sp,32
80005ca4:	8082                	ret

80005ca6 <QSPI_SPI_StructInit>:
  * @param   InitStruct  Указатель на структуру типа @ref QSPI_SPI_Init_TypeDef,
  *                      которую необходимо проинициализировать.
  * @retval  void
  */
void QSPI_SPI_StructInit(QSPI_SPI_Init_TypeDef* InitStruct)
{
80005ca6:	1101                	addi	sp,sp,-32
80005ca8:	ce22                	sw	s0,28(sp)
80005caa:	1000                	addi	s0,sp,32
80005cac:	fea42623          	sw	a0,-20(s0)
    InitStruct->IOMode = QSPI_SPI_IOMode_Single;
80005cb0:	fec42783          	lw	a5,-20(s0)
80005cb4:	0007a023          	sw	zero,0(a5) # 20040000 <STACK_SIZE+0x2003f800>
    InitStruct->dataRate = QSPI_SPI_DataRate_Single;
80005cb8:	fec42783          	lw	a5,-20(s0)
80005cbc:	0007a223          	sw	zero,4(a5)
    InitStruct->dataWidth = 0x1;
80005cc0:	fec42783          	lw	a5,-20(s0)
80005cc4:	4705                	li	a4,1
80005cc6:	c798                	sw	a4,8(a5)
    InitStruct->TxEnable = DISABLE;
80005cc8:	fec42783          	lw	a5,-20(s0)
80005ccc:	0007a623          	sw	zero,12(a5)
    InitStruct->RxEnable = DISABLE;
80005cd0:	fec42783          	lw	a5,-20(s0)
80005cd4:	0007a823          	sw	zero,16(a5)
    InitStruct->SCKDiv = 0x0;
80005cd8:	fec42783          	lw	a5,-20(s0)
80005cdc:	0007aa23          	sw	zero,20(a5)
}
80005ce0:	0001                	nop
80005ce2:	4472                	lw	s0,28(sp)
80005ce4:	6105                	addi	sp,sp,32
80005ce6:	8082                	ret

80005ce8 <QSPI_Init>:
  * @param   InitStruct  Указатель на структуру типа @ref QSPI_Init_TypeDef,
  *                      которая содержит конфигурационную информацию.
  * @retval  Status  Статус результата инициализации
  */
void QSPI_Init(QSPI_Init_TypeDef* InitStruct)
{
80005ce8:	1101                	addi	sp,sp,-32
80005cea:	ce06                	sw	ra,28(sp)
80005cec:	cc22                	sw	s0,24(sp)
80005cee:	1000                	addi	s0,sp,32
80005cf0:	fea42623          	sw	a0,-20(s0)
    QSPI_ModeConfig(QSPI_Mode_QSPI);
80005cf4:	4509                	li	a0,2
80005cf6:	3119                	jal	800058fc <QSPI_ModeConfig>

	QSPI_InstructionConfig(InitStruct->instruction);
80005cf8:	fec42783          	lw	a5,-20(s0)
80005cfc:	0007c783          	lbu	a5,0(a5)
80005d00:	853e                	mv	a0,a5
80005d02:	3b99                	jal	80005a58 <QSPI_InstructionConfig>
	QSPI_InstructionModeConfig(InitStruct->instructionMode);
80005d04:	fec42783          	lw	a5,-20(s0)
80005d08:	43dc                	lw	a5,4(a5)
80005d0a:	853e                	mv	a0,a5
80005d0c:	33b5                	jal	80005a78 <QSPI_InstructionModeConfig>
	QSPI_AddressModeConfig(InitStruct->addressMode);
80005d0e:	fec42783          	lw	a5,-20(s0)
80005d12:	479c                	lw	a5,8(a5)
80005d14:	853e                	mv	a0,a5
80005d16:	3b41                	jal	80005aa6 <QSPI_AddressModeConfig>
	QSPI_AddressSizeConfig(InitStruct->addressSize);
80005d18:	fec42783          	lw	a5,-20(s0)
80005d1c:	47dc                	lw	a5,12(a5)
80005d1e:	853e                	mv	a0,a5
80005d20:	3b65                	jal	80005ad8 <QSPI_AddressSizeConfig>
	QSPI_AdditionalModeConfig(InitStruct->additionalMode);
80005d22:	fec42783          	lw	a5,-20(s0)
80005d26:	4b9c                	lw	a5,16(a5)
80005d28:	853e                	mv	a0,a5
80005d2a:	3bf9                	jal	80005b08 <QSPI_AdditionalModeConfig>
	QSPI_AdditionalSizeConfig(InitStruct->additionalSize);
80005d2c:	fec42783          	lw	a5,-20(s0)
80005d30:	4bdc                	lw	a5,20(a5)
80005d32:	853e                	mv	a0,a5
80005d34:	3511                	jal	80005b38 <QSPI_AdditionalSizeConfig>
	QSPI_WaitCyclesConfig(InitStruct->waitCycles);
80005d36:	fec42783          	lw	a5,-20(s0)
80005d3a:	4f9c                	lw	a5,24(a5)
80005d3c:	853e                	mv	a0,a5
80005d3e:	3535                	jal	80005b6a <QSPI_WaitCyclesConfig>
	QSPI_DataModeConfig(InitStruct->dataMode);
80005d40:	fec42783          	lw	a5,-20(s0)
80005d44:	4fdc                	lw	a5,28(a5)
80005d46:	853e                	mv	a0,a5
80005d48:	3d91                	jal	80005b9c <QSPI_DataModeConfig>
	QSPI_DataDirectionConfig(InitStruct->dataDirection);
80005d4a:	fec42783          	lw	a5,-20(s0)
80005d4e:	539c                	lw	a5,32(a5)
80005d50:	853e                	mv	a0,a5
80005d52:	3db5                	jal	80005bce <QSPI_DataDirectionConfig>
	QSPI_DataRateConfig(InitStruct->dataRate);
80005d54:	fec42783          	lw	a5,-20(s0)
80005d58:	53dc                	lw	a5,36(a5)
80005d5a:	853e                	mv	a0,a5
80005d5c:	3555                	jal	80005c00 <QSPI_DataRateConfig>
	QSPI_SCKDivConfig(InitStruct->SCKDiv);
80005d5e:	fec42783          	lw	a5,-20(s0)
80005d62:	579c                	lw	a5,40(a5)
80005d64:	853e                	mv	a0,a5
80005d66:	36e1                	jal	8000592e <QSPI_SCKDivConfig>
}
80005d68:	0001                	nop
80005d6a:	40f2                	lw	ra,28(sp)
80005d6c:	4462                	lw	s0,24(sp)
80005d6e:	6105                	addi	sp,sp,32
80005d70:	8082                	ret

80005d72 <QSPI_StructInit>:
  * @param   InitStruct  Указатель на структуру типа @ref QSPI_Init_TypeDef,
  *                      которую необходимо проинициализировать.
  * @retval  void
  */
void QSPI_StructInit(QSPI_Init_TypeDef* InitStruct)
{
80005d72:	1101                	addi	sp,sp,-32
80005d74:	ce22                	sw	s0,28(sp)
80005d76:	1000                	addi	s0,sp,32
80005d78:	fea42623          	sw	a0,-20(s0)
	InitStruct->instruction = 0x0;
80005d7c:	fec42783          	lw	a5,-20(s0)
80005d80:	00078023          	sb	zero,0(a5)
	InitStruct->instructionMode = QSPI_Lines_No;
80005d84:	fec42783          	lw	a5,-20(s0)
80005d88:	0007a223          	sw	zero,4(a5)
	InitStruct->addressMode = QSPI_Lines_No;
80005d8c:	fec42783          	lw	a5,-20(s0)
80005d90:	0007a423          	sw	zero,8(a5)
	InitStruct->addressSize = QSPI_DataSize_8;
80005d94:	fec42783          	lw	a5,-20(s0)
80005d98:	0007a623          	sw	zero,12(a5)
	InitStruct->additionalMode = QSPI_Lines_No;
80005d9c:	fec42783          	lw	a5,-20(s0)
80005da0:	0007a823          	sw	zero,16(a5)
	InitStruct->additionalSize = QSPI_DataSize_8;
80005da4:	fec42783          	lw	a5,-20(s0)
80005da8:	0007aa23          	sw	zero,20(a5)
	InitStruct->waitCycles = 0x0;
80005dac:	fec42783          	lw	a5,-20(s0)
80005db0:	0007ac23          	sw	zero,24(a5)
	InitStruct->dataMode = QSPI_Lines_No;
80005db4:	fec42783          	lw	a5,-20(s0)
80005db8:	0007ae23          	sw	zero,28(a5)
	InitStruct->dataDirection = QSPI_Direction_Write;
80005dbc:	fec42783          	lw	a5,-20(s0)
80005dc0:	0207a023          	sw	zero,32(a5)
	InitStruct->dataRate = QSPI_DataRate_Single;
80005dc4:	fec42783          	lw	a5,-20(s0)
80005dc8:	0207a223          	sw	zero,36(a5)
	InitStruct->SCKDiv = 0x0;
80005dcc:	fec42783          	lw	a5,-20(s0)
80005dd0:	0207a423          	sw	zero,40(a5)
}
80005dd4:	0001                	nop
80005dd6:	4472                	lw	s0,28(sp)
80005dd8:	6105                	addi	sp,sp,32
80005dda:	8082                	ret

80005ddc <RCU_SysClkConfig>:
{
80005ddc:	1101                	addi	sp,sp,-32
80005dde:	ce22                	sw	s0,28(sp)
80005de0:	1000                	addi	s0,sp,32
80005de2:	fea42623          	sw	a0,-20(s0)
    WRITE_REG(RCU->SYSCLKCFG_bit.SRC, SysClk);
80005de6:	3000e7b7          	lui	a5,0x3000e
80005dea:	fec42703          	lw	a4,-20(s0)
80005dee:	8b0d                	andi	a4,a4,3
80005df0:	0ff77713          	zext.b	a4,a4
80005df4:	8b0d                	andi	a4,a4,3
80005df6:	5b94                	lw	a3,48(a5)
80005df8:	9af1                	andi	a3,a3,-4
80005dfa:	8f55                	or	a4,a4,a3
80005dfc:	db98                	sw	a4,48(a5)
}
80005dfe:	0001                	nop
80005e00:	4472                	lw	s0,28(sp)
80005e02:	6105                	addi	sp,sp,32
80005e04:	8082                	ret

80005e06 <RCU_SysClkStatus>:
{
80005e06:	1141                	addi	sp,sp,-16
80005e08:	c622                	sw	s0,12(sp)
80005e0a:	0800                	addi	s0,sp,16
    return (RCU_SysClk_TypeDef)READ_REG(RCU->CLKSTAT_bit.SRC);
80005e0c:	3000e7b7          	lui	a5,0x3000e
80005e10:	5fdc                	lw	a5,60(a5)
80005e12:	8b8d                	andi	a5,a5,3
80005e14:	0ff7f793          	zext.b	a5,a5
}
80005e18:	853e                	mv	a0,a5
80005e1a:	4432                	lw	s0,12(sp)
80005e1c:	0141                	addi	sp,sp,16
80005e1e:	8082                	ret

80005e20 <RCU_SYSPLL0_OutCmd>:
{
80005e20:	1101                	addi	sp,sp,-32
80005e22:	ce22                	sw	s0,28(sp)
80005e24:	1000                	addi	s0,sp,32
80005e26:	fea42623          	sw	a0,-20(s0)
    if(State)  SET_BIT(RCU->PLLSYSCFG0, (1 << RCU_PLLSYSCFG0_FOUTEN_Pos));
80005e2a:	fec42783          	lw	a5,-20(s0)
80005e2e:	cb91                	beqz	a5,80005e42 <RCU_SYSPLL0_OutCmd+0x22>
80005e30:	3000e7b7          	lui	a5,0x3000e
80005e34:	4bb8                	lw	a4,80(a5)
80005e36:	3000e7b7          	lui	a5,0x3000e
80005e3a:	02076713          	ori	a4,a4,32
80005e3e:	cbb8                	sw	a4,80(a5)
}
80005e40:	a809                	j	80005e52 <RCU_SYSPLL0_OutCmd+0x32>
      else   CLEAR_BIT(RCU->PLLSYSCFG0, (1 << RCU_PLLSYSCFG0_FOUTEN_Pos));
80005e42:	3000e7b7          	lui	a5,0x3000e
80005e46:	4bb8                	lw	a4,80(a5)
80005e48:	3000e7b7          	lui	a5,0x3000e
80005e4c:	fdf77713          	andi	a4,a4,-33
80005e50:	cbb8                	sw	a4,80(a5)
}
80005e52:	0001                	nop
80005e54:	4472                	lw	s0,28(sp)
80005e56:	6105                	addi	sp,sp,32
80005e58:	8082                	ret

80005e5a <RCU_SYSPLL_Cmd>:
{
80005e5a:	1101                	addi	sp,sp,-32
80005e5c:	ce22                	sw	s0,28(sp)
80005e5e:	1000                	addi	s0,sp,32
80005e60:	fea42623          	sw	a0,-20(s0)
    if(State)  MODIFY_REG(RCU->PLLSYSCFG0, RCU_PLLSYSCFG0_PLLEN_Msk,0x01);
80005e64:	fec42783          	lw	a5,-20(s0)
80005e68:	cb91                	beqz	a5,80005e7c <RCU_SYSPLL_Cmd+0x22>
80005e6a:	3000e7b7          	lui	a5,0x3000e
80005e6e:	4bb8                	lw	a4,80(a5)
80005e70:	3000e7b7          	lui	a5,0x3000e
80005e74:	00176713          	ori	a4,a4,1
80005e78:	cbb8                	sw	a4,80(a5)
}
80005e7a:	a801                	j	80005e8a <RCU_SYSPLL_Cmd+0x30>
      else   MODIFY_REG(RCU->PLLSYSCFG0, RCU_PLLSYSCFG0_PLLEN_Msk,0x00);
80005e7c:	3000e7b7          	lui	a5,0x3000e
80005e80:	4bb8                	lw	a4,80(a5)
80005e82:	3000e7b7          	lui	a5,0x3000e
80005e86:	9b79                	andi	a4,a4,-2
80005e88:	cbb8                	sw	a4,80(a5)
}
80005e8a:	0001                	nop
80005e8c:	4472                	lw	s0,28(sp)
80005e8e:	6105                	addi	sp,sp,32
80005e90:	8082                	ret

80005e92 <RCU_SYSPLL_LockStatus>:
{
80005e92:	1141                	addi	sp,sp,-16
80005e94:	c622                	sw	s0,12(sp)
80005e96:	0800                	addi	s0,sp,16
    return (FlagStatus)READ_BIT(RCU->PLLSYSSTAT, RCU_PLLSYSSTAT_LOCK_Msk);
80005e98:	3000e7b7          	lui	a5,0x3000e
80005e9c:	53bc                	lw	a5,96(a5)
80005e9e:	8b85                	andi	a5,a5,1
}
80005ea0:	853e                	mv	a0,a5
80005ea2:	4432                	lw	s0,12(sp)
80005ea4:	0141                	addi	sp,sp,16
80005ea6:	8082                	ret

80005ea8 <RCU_USBPLL_OutCmd>:
{
80005ea8:	1101                	addi	sp,sp,-32
80005eaa:	ce22                	sw	s0,28(sp)
80005eac:	1000                	addi	s0,sp,32
80005eae:	fea42623          	sw	a0,-20(s0)
    if(State)  MODIFY_REG(USB->PLLUSBCFG0, USB_PLLUSBCFG0_FOUTEN_Msk,0x01);
80005eb2:	fec42783          	lw	a5,-20(s0)
80005eb6:	c395                	beqz	a5,80005eda <RCU_USBPLL_OutCmd+0x32>
80005eb8:	20010737          	lui	a4,0x20010
80005ebc:	6785                	lui	a5,0x1
80005ebe:	97ba                	add	a5,a5,a4
80005ec0:	8007a783          	lw	a5,-2048(a5) # 800 <STACK_SIZE>
80005ec4:	f9e7f793          	andi	a5,a5,-98
80005ec8:	200106b7          	lui	a3,0x20010
80005ecc:	0017e713          	ori	a4,a5,1
80005ed0:	6785                	lui	a5,0x1
80005ed2:	97b6                	add	a5,a5,a3
80005ed4:	80e7a023          	sw	a4,-2048(a5) # 800 <STACK_SIZE>
}
80005ed8:	a839                	j	80005ef6 <RCU_USBPLL_OutCmd+0x4e>
      else   MODIFY_REG(USB->PLLUSBCFG0, USB_PLLUSBCFG0_FOUTEN_Msk,0x0);
80005eda:	20010737          	lui	a4,0x20010
80005ede:	6785                	lui	a5,0x1
80005ee0:	97ba                	add	a5,a5,a4
80005ee2:	8007a783          	lw	a5,-2048(a5) # 800 <STACK_SIZE>
80005ee6:	200106b7          	lui	a3,0x20010
80005eea:	f9f7f713          	andi	a4,a5,-97
80005eee:	6785                	lui	a5,0x1
80005ef0:	97b6                	add	a5,a5,a3
80005ef2:	80e7a023          	sw	a4,-2048(a5) # 800 <STACK_SIZE>
}
80005ef6:	0001                	nop
80005ef8:	4472                	lw	s0,28(sp)
80005efa:	6105                	addi	sp,sp,32
80005efc:	8082                	ret

80005efe <getSysClkFreq>:
  * @brief   Получение значения частоты генерации выбранного источника
  * @param   Clk  Выбор тактового сигнала
  * @retval  Val  Значение Гц
  */
static uint32_t getSysClkFreq(RCU_SysClk_TypeDef Clk)
{
80005efe:	7179                	addi	sp,sp,-48
80005f00:	d606                	sw	ra,44(sp)
80005f02:	d422                	sw	s0,40(sp)
80005f04:	1800                	addi	s0,sp,48
80005f06:	fca42e23          	sw	a0,-36(s0)
    uint32_t clk_freq = 0;
80005f0a:	fe042623          	sw	zero,-20(s0)

    switch (Clk) {
80005f0e:	fdc42703          	lw	a4,-36(s0)
80005f12:	478d                	li	a5,3
80005f14:	04f70663          	beq	a4,a5,80005f60 <getSysClkFreq+0x62>
80005f18:	fdc42703          	lw	a4,-36(s0)
80005f1c:	478d                	li	a5,3
80005f1e:	04e7e563          	bltu	a5,a4,80005f68 <getSysClkFreq+0x6a>
80005f22:	fdc42703          	lw	a4,-36(s0)
80005f26:	4789                	li	a5,2
80005f28:	02f70863          	beq	a4,a5,80005f58 <getSysClkFreq+0x5a>
80005f2c:	fdc42703          	lw	a4,-36(s0)
80005f30:	4789                	li	a5,2
80005f32:	02e7eb63          	bltu	a5,a4,80005f68 <getSysClkFreq+0x6a>
80005f36:	fdc42783          	lw	a5,-36(s0)
80005f3a:	c799                	beqz	a5,80005f48 <getSysClkFreq+0x4a>
80005f3c:	fdc42703          	lw	a4,-36(s0)
80005f40:	4785                	li	a5,1
80005f42:	00f70763          	beq	a4,a5,80005f50 <getSysClkFreq+0x52>
80005f46:	a00d                	j	80005f68 <getSysClkFreq+0x6a>
    case RCU_SysClk_HsiClk:
        clk_freq = RCU_GetHsiClkFreq();
80005f48:	2209                	jal	8000604a <RCU_GetHsiClkFreq>
80005f4a:	fea42623          	sw	a0,-20(s0)
        break;
80005f4e:	a829                	j	80005f68 <getSysClkFreq+0x6a>
    case RCU_SysClk_HseClk:
        clk_freq = RCU_GetHseClkFreq();
80005f50:	221d                	jal	80006076 <RCU_GetHseClkFreq>
80005f52:	fea42623          	sw	a0,-20(s0)
        break;
80005f56:	a809                	j	80005f68 <getSysClkFreq+0x6a>
    case RCU_SysClk_SysPLL0Clk:
        clk_freq = RCU_GetSysPLL0ClkFreq();
80005f58:	22a1                	jal	800060a0 <RCU_GetSysPLL0ClkFreq>
80005f5a:	fea42623          	sw	a0,-20(s0)
        break;
80005f5e:	a029                	j	80005f68 <getSysClkFreq+0x6a>
    case RCU_SysClk_LsiClk:
        clk_freq = RCU_GetLsiClkFreq();
80005f60:	2235                	jal	8000608c <RCU_GetLsiClkFreq>
80005f62:	fea42623          	sw	a0,-20(s0)
        break;
80005f66:	0001                	nop
    }

    return clk_freq;
80005f68:	fec42783          	lw	a5,-20(s0)
}
80005f6c:	853e                	mv	a0,a5
80005f6e:	50b2                	lw	ra,44(sp)
80005f70:	5422                	lw	s0,40(sp)
80005f72:	6145                	addi	sp,sp,48
80005f74:	8082                	ret

80005f76 <getPeriphClkFreq>:
  * @brief   Получение значения частоты генерации выбранного источника
  * @param   Clk  Выбор тактового сигнала
  * @retval  Val  Значение Гц
  */
static uint32_t getPeriphClkFreq(RCU_PeriphClk_TypeDef Clk)
{
80005f76:	7179                	addi	sp,sp,-48
80005f78:	d606                	sw	ra,44(sp)
80005f7a:	d422                	sw	s0,40(sp)
80005f7c:	1800                	addi	s0,sp,48
80005f7e:	fca42e23          	sw	a0,-36(s0)
    uint32_t clk_freq = 0;
80005f82:	fe042623          	sw	zero,-20(s0)

    switch (Clk) {
80005f86:	fdc42703          	lw	a4,-36(s0)
80005f8a:	478d                	li	a5,3
80005f8c:	04f70663          	beq	a4,a5,80005fd8 <getPeriphClkFreq+0x62>
80005f90:	fdc42703          	lw	a4,-36(s0)
80005f94:	478d                	li	a5,3
80005f96:	04e7e563          	bltu	a5,a4,80005fe0 <getPeriphClkFreq+0x6a>
80005f9a:	fdc42703          	lw	a4,-36(s0)
80005f9e:	4789                	li	a5,2
80005fa0:	02f70863          	beq	a4,a5,80005fd0 <getPeriphClkFreq+0x5a>
80005fa4:	fdc42703          	lw	a4,-36(s0)
80005fa8:	4789                	li	a5,2
80005faa:	02e7eb63          	bltu	a5,a4,80005fe0 <getPeriphClkFreq+0x6a>
80005fae:	fdc42783          	lw	a5,-36(s0)
80005fb2:	c799                	beqz	a5,80005fc0 <getPeriphClkFreq+0x4a>
80005fb4:	fdc42703          	lw	a4,-36(s0)
80005fb8:	4785                	li	a5,1
80005fba:	00f70763          	beq	a4,a5,80005fc8 <getPeriphClkFreq+0x52>
80005fbe:	a00d                	j	80005fe0 <getPeriphClkFreq+0x6a>
    case RCU_PeriphClk_HsiClk:
        clk_freq = RCU_GetHsiClkFreq();
80005fc0:	2069                	jal	8000604a <RCU_GetHsiClkFreq>
80005fc2:	fea42623          	sw	a0,-20(s0)
        break;
80005fc6:	a829                	j	80005fe0 <getPeriphClkFreq+0x6a>
    case RCU_PeriphClk_HseClk:
        clk_freq = RCU_GetHseClkFreq();
80005fc8:	207d                	jal	80006076 <RCU_GetHseClkFreq>
80005fca:	fea42623          	sw	a0,-20(s0)
        break;
80005fce:	a809                	j	80005fe0 <getPeriphClkFreq+0x6a>
    case RCU_PeriphClk_SysPLL0Clk:
        clk_freq = RCU_GetSysPLL0ClkFreq();
80005fd0:	28c1                	jal	800060a0 <RCU_GetSysPLL0ClkFreq>
80005fd2:	fea42623          	sw	a0,-20(s0)
        break;
80005fd6:	a029                	j	80005fe0 <getPeriphClkFreq+0x6a>
    case RCU_PeriphClk_SysPLL1Clk:
        clk_freq = RCU_GetSysPLL1ClkFreq();
80005fd8:	2a5d                	jal	8000618e <RCU_GetSysPLL1ClkFreq>
80005fda:	fea42623          	sw	a0,-20(s0)
        break;
80005fde:	0001                	nop
    }

    return clk_freq;
80005fe0:	fec42783          	lw	a5,-20(s0)
}
80005fe4:	853e                	mv	a0,a5
80005fe6:	50b2                	lw	ra,44(sp)
80005fe8:	5422                	lw	s0,40(sp)
80005fea:	6145                	addi	sp,sp,48
80005fec:	8082                	ret

80005fee <getIwdtClkFreq>:
  * @brief   Получение значения частоты генерации выбранного источника
  * @param   Clk  Выбор тактового сигнала
  * @retval  Val  Значение Гц
  */
static uint32_t getIwdtClkFreq(RCU_IWDTClk_TypeDef Clk)
{
80005fee:	7179                	addi	sp,sp,-48
80005ff0:	d606                	sw	ra,44(sp)
80005ff2:	d422                	sw	s0,40(sp)
80005ff4:	1800                	addi	s0,sp,48
80005ff6:	fca42e23          	sw	a0,-36(s0)
    uint32_t clk_freq = 0;
80005ffa:	fe042623          	sw	zero,-20(s0)

    switch (Clk) {
80005ffe:	fdc42703          	lw	a4,-36(s0)
80006002:	4789                	li	a5,2
80006004:	02f70863          	beq	a4,a5,80006034 <getIwdtClkFreq+0x46>
80006008:	fdc42703          	lw	a4,-36(s0)
8000600c:	4789                	li	a5,2
8000600e:	02e7e763          	bltu	a5,a4,8000603c <getIwdtClkFreq+0x4e>
80006012:	fdc42783          	lw	a5,-36(s0)
80006016:	c799                	beqz	a5,80006024 <getIwdtClkFreq+0x36>
80006018:	fdc42703          	lw	a4,-36(s0)
8000601c:	4785                	li	a5,1
8000601e:	00f70763          	beq	a4,a5,8000602c <getIwdtClkFreq+0x3e>
80006022:	a829                	j	8000603c <getIwdtClkFreq+0x4e>
    case RCU_IWDTClk_HsiClk:
        clk_freq = RCU_GetHsiClkFreq();
80006024:	201d                	jal	8000604a <RCU_GetHsiClkFreq>
80006026:	fea42623          	sw	a0,-20(s0)
        break;
8000602a:	a809                	j	8000603c <getIwdtClkFreq+0x4e>
    case RCU_IWDTClk_HseClk:
        clk_freq = RCU_GetHseClkFreq();
8000602c:	20a9                	jal	80006076 <RCU_GetHseClkFreq>
8000602e:	fea42623          	sw	a0,-20(s0)
        break;
80006032:	a029                	j	8000603c <getIwdtClkFreq+0x4e>
    case RCU_IWDTClk_LsiClk:
        clk_freq = RCU_GetLsiClkFreq();
80006034:	28a1                	jal	8000608c <RCU_GetLsiClkFreq>
80006036:	fea42623          	sw	a0,-20(s0)
        break;
8000603a:	0001                	nop
    }

    return clk_freq;
8000603c:	fec42783          	lw	a5,-20(s0)
}
80006040:	853e                	mv	a0,a5
80006042:	50b2                	lw	ra,44(sp)
80006044:	5422                	lw	s0,40(sp)
80006046:	6145                	addi	sp,sp,48
80006048:	8082                	ret

8000604a <RCU_GetHsiClkFreq>:
/**
  * @brief   Получение значения частоты тактового сигнала HSICLK
  * @retval  Val  Значение Гц
  */
uint32_t RCU_GetHsiClkFreq()
{
8000604a:	1101                	addi	sp,sp,-32
8000604c:	ce22                	sw	s0,28(sp)
8000604e:	1000                	addi	s0,sp,32
    //Константы согласно таблицы 4.2 Руководства пользователя
    static const uint32_t hsi_clk[16] = {618000, 650000,686000,725000,766000,816000,873000,938000, 1012000, 1101000, 1208000, 1339000, 1510000, 1722000, 2009000, 2417000};
    uint32_t hsi_trim;

    hsi_trim = READ_REG(PMURTC->HSI_TRIM);
80006050:	380117b7          	lui	a5,0x38011
80006054:	0c87a783          	lw	a5,200(a5) # 380110c8 <STACK_SIZE+0x380108c8>
80006058:	fef42623          	sw	a5,-20(s0)
    return hsi_clk[hsi_trim];
8000605c:	800077b7          	lui	a5,0x80007
80006060:	7f078713          	addi	a4,a5,2032 # 800077f0 <__data_source_start+0xfffffea8>
80006064:	fec42783          	lw	a5,-20(s0)
80006068:	078a                	slli	a5,a5,0x2
8000606a:	97ba                	add	a5,a5,a4
8000606c:	439c                	lw	a5,0(a5)
}
8000606e:	853e                	mv	a0,a5
80006070:	4472                	lw	s0,28(sp)
80006072:	6105                	addi	sp,sp,32
80006074:	8082                	ret

80006076 <RCU_GetHseClkFreq>:
/**
  * @brief   Получение значения частоты тактового сигнала HSECLK
  * @retval  Val  Значение Гц
  */
uint32_t RCU_GetHseClkFreq()
{
80006076:	1141                	addi	sp,sp,-16
80006078:	c622                	sw	s0,12(sp)
8000607a:	0800                	addi	s0,sp,16
    return HSECLK_VAL;
8000607c:	00f427b7          	lui	a5,0xf42
80006080:	40078793          	addi	a5,a5,1024 # f42400 <STACK_SIZE+0xf41c00>
}
80006084:	853e                	mv	a0,a5
80006086:	4432                	lw	s0,12(sp)
80006088:	0141                	addi	sp,sp,16
8000608a:	8082                	ret

8000608c <RCU_GetLsiClkFreq>:
/**
  * @brief   Получение значения частоты тактового сигнала LSICLK
  * @retval  Val  Значение Гц
  */
uint32_t RCU_GetLsiClkFreq()
{
8000608c:	1141                	addi	sp,sp,-16
8000608e:	c622                	sw	s0,12(sp)
80006090:	0800                	addi	s0,sp,16
    return (uint32_t)LSICLK_VAL;
80006092:	67a1                	lui	a5,0x8
80006094:	d0078793          	addi	a5,a5,-768 # 7d00 <STACK_SIZE+0x7500>
}
80006098:	853e                	mv	a0,a5
8000609a:	4432                	lw	s0,12(sp)
8000609c:	0141                	addi	sp,sp,16
8000609e:	8082                	ret

800060a0 <RCU_GetSysPLL0ClkFreq>:
/**
  * @brief   Получение значения частоты тактового сигнала SYSPLL0CLK
  * @retval  Val  Значение Гц
  */
uint32_t RCU_GetSysPLL0ClkFreq()
{
800060a0:	7179                	addi	sp,sp,-48
800060a2:	d622                	sw	s0,44(sp)
800060a4:	1800                	addi	s0,sp,48
    uint32_t pll_div0a, pll_div0b, pll_fbdiv, pll_refdiv, pll_refclk, pll_clkFreq;
    float pll_fracdiv;
    pll_div0a = READ_REG(RCU->PLLSYSCFG0_bit.PD0A)+1;
800060a6:	3000e7b7          	lui	a5,0x3000e
800060aa:	4bbc                	lw	a5,80(a5)
800060ac:	83b5                	srli	a5,a5,0xd
800060ae:	8b9d                	andi	a5,a5,7
800060b0:	0ff7f793          	zext.b	a5,a5
800060b4:	0785                	addi	a5,a5,1 # 3000e001 <STACK_SIZE+0x3000d801>
800060b6:	fef42423          	sw	a5,-24(s0)
    pll_div0b = READ_REG(RCU->PLLSYSCFG0_bit.PD0B)+1;
800060ba:	3000e7b7          	lui	a5,0x3000e
800060be:	4bbc                	lw	a5,80(a5)
800060c0:	83c1                	srli	a5,a5,0x10
800060c2:	03f7f793          	andi	a5,a5,63
800060c6:	0ff7f793          	zext.b	a5,a5
800060ca:	0785                	addi	a5,a5,1 # 3000e001 <STACK_SIZE+0x3000d801>
800060cc:	fef42223          	sw	a5,-28(s0)
    pll_fbdiv = READ_REG(RCU->PLLSYSCFG2_bit.FBDIV);
800060d0:	3000e7b7          	lui	a5,0x3000e
800060d4:	4fbc                	lw	a5,88(a5)
800060d6:	873e                	mv	a4,a5
800060d8:	6785                	lui	a5,0x1
800060da:	17fd                	addi	a5,a5,-1 # fff <STACK_SIZE+0x7ff>
800060dc:	8ff9                	and	a5,a5,a4
800060de:	07c2                	slli	a5,a5,0x10
800060e0:	83c1                	srli	a5,a5,0x10
800060e2:	fef42023          	sw	a5,-32(s0)
    pll_refdiv = READ_REG(RCU->PLLSYSCFG0_bit.REFDIV);
800060e6:	3000e7b7          	lui	a5,0x3000e
800060ea:	4bbc                	lw	a5,80(a5)
800060ec:	839d                	srli	a5,a5,0x7
800060ee:	03f7f793          	andi	a5,a5,63
800060f2:	0ff7f793          	zext.b	a5,a5
800060f6:	fcf42e23          	sw	a5,-36(s0)
    pll_refclk = HSECLK_VAL;
800060fa:	00f427b7          	lui	a5,0xf42
800060fe:	40078793          	addi	a5,a5,1024 # f42400 <STACK_SIZE+0xf41c00>
80006102:	fcf42c23          	sw	a5,-40(s0)
    if (RCU->PLLSYSCFG0_bit.DSMEN) pll_fracdiv = (float)(RCU->PLLSYSCFG1_bit.FRAC / (1 << 24));
80006106:	3000e7b7          	lui	a5,0x3000e
8000610a:	4bbc                	lw	a5,80(a5)
8000610c:	8391                	srli	a5,a5,0x4
8000610e:	8b85                	andi	a5,a5,1
80006110:	0ff7f793          	zext.b	a5,a5
80006114:	c78d                	beqz	a5,8000613e <RCU_GetSysPLL0ClkFreq+0x9e>
80006116:	3000e7b7          	lui	a5,0x3000e
8000611a:	4bf8                	lw	a4,84(a5)
8000611c:	010007b7          	lui	a5,0x1000
80006120:	17fd                	addi	a5,a5,-1 # ffffff <STACK_SIZE+0xfff7ff>
80006122:	8ff9                	and	a5,a5,a4
80006124:	41f7d693          	srai	a3,a5,0x1f
80006128:	01000737          	lui	a4,0x1000
8000612c:	177d                	addi	a4,a4,-1 # ffffff <STACK_SIZE+0xfff7ff>
8000612e:	8f75                	and	a4,a4,a3
80006130:	97ba                	add	a5,a5,a4
80006132:	87e1                	srai	a5,a5,0x18
80006134:	d007f7d3          	fcvt.s.w	fa5,a5
80006138:	fef42627          	fsw	fa5,-20(s0)
8000613c:	a019                	j	80006142 <RCU_GetSysPLL0ClkFreq+0xa2>
       else pll_fracdiv = 0;
8000613e:	fe042623          	sw	zero,-20(s0)

    pll_clkFreq = (uint32_t)((pll_refclk * (pll_fbdiv + pll_fracdiv)) / (pll_refdiv * pll_div0a * pll_div0b));
80006142:	fd842783          	lw	a5,-40(s0)
80006146:	d017f753          	fcvt.s.wu	fa4,a5
8000614a:	fe042783          	lw	a5,-32(s0)
8000614e:	d017f6d3          	fcvt.s.wu	fa3,a5
80006152:	fec42787          	flw	fa5,-20(s0)
80006156:	00f6f7d3          	fadd.s	fa5,fa3,fa5
8000615a:	10f77753          	fmul.s	fa4,fa4,fa5
8000615e:	fdc42703          	lw	a4,-36(s0)
80006162:	fe842783          	lw	a5,-24(s0)
80006166:	02f70733          	mul	a4,a4,a5
8000616a:	fe442783          	lw	a5,-28(s0)
8000616e:	02f707b3          	mul	a5,a4,a5
80006172:	d017f7d3          	fcvt.s.wu	fa5,a5
80006176:	18f777d3          	fdiv.s	fa5,fa4,fa5
8000617a:	c01797d3          	fcvt.wu.s	a5,fa5,rtz
8000617e:	fcf42a23          	sw	a5,-44(s0)
    return (uint32_t)(pll_clkFreq);
80006182:	fd442783          	lw	a5,-44(s0)
}
80006186:	853e                	mv	a0,a5
80006188:	5432                	lw	s0,44(sp)
8000618a:	6145                	addi	sp,sp,48
8000618c:	8082                	ret

8000618e <RCU_GetSysPLL1ClkFreq>:
/**
  * @brief   Получение значения частоты тактового сигнала SYSPLL1CLK
  * @retval  Val  Значение Гц
  */
uint32_t RCU_GetSysPLL1ClkFreq()
{
8000618e:	7179                	addi	sp,sp,-48
80006190:	d622                	sw	s0,44(sp)
80006192:	1800                	addi	s0,sp,48
    uint32_t pll_div1a, pll_div1b, pll_fbdiv, pll_refdiv, pll_refclk;
    float pll_fracdiv;
    pll_div1a = READ_REG(RCU->PLLSYSCFG0_bit.PD1A)+1;
80006194:	3000e7b7          	lui	a5,0x3000e
80006198:	4bbc                	lw	a5,80(a5)
8000619a:	83d9                	srli	a5,a5,0x16
8000619c:	8b9d                	andi	a5,a5,7
8000619e:	0ff7f793          	zext.b	a5,a5
800061a2:	0785                	addi	a5,a5,1 # 3000e001 <STACK_SIZE+0x3000d801>
800061a4:	fef42423          	sw	a5,-24(s0)
    pll_div1b = READ_REG(RCU->PLLSYSCFG0_bit.PD1B)+1;
800061a8:	3000e7b7          	lui	a5,0x3000e
800061ac:	4bbc                	lw	a5,80(a5)
800061ae:	83e5                	srli	a5,a5,0x19
800061b0:	03f7f793          	andi	a5,a5,63
800061b4:	0ff7f793          	zext.b	a5,a5
800061b8:	0785                	addi	a5,a5,1 # 3000e001 <STACK_SIZE+0x3000d801>
800061ba:	fef42223          	sw	a5,-28(s0)
    pll_fbdiv = READ_REG(RCU->PLLSYSCFG2_bit.FBDIV);
800061be:	3000e7b7          	lui	a5,0x3000e
800061c2:	4fbc                	lw	a5,88(a5)
800061c4:	873e                	mv	a4,a5
800061c6:	6785                	lui	a5,0x1
800061c8:	17fd                	addi	a5,a5,-1 # fff <STACK_SIZE+0x7ff>
800061ca:	8ff9                	and	a5,a5,a4
800061cc:	07c2                	slli	a5,a5,0x10
800061ce:	83c1                	srli	a5,a5,0x10
800061d0:	fef42023          	sw	a5,-32(s0)
    pll_refdiv = READ_REG(RCU->PLLSYSCFG0_bit.REFDIV);
800061d4:	3000e7b7          	lui	a5,0x3000e
800061d8:	4bbc                	lw	a5,80(a5)
800061da:	839d                	srli	a5,a5,0x7
800061dc:	03f7f793          	andi	a5,a5,63
800061e0:	0ff7f793          	zext.b	a5,a5
800061e4:	fcf42e23          	sw	a5,-36(s0)
    pll_refclk = HSECLK_VAL;
800061e8:	00f427b7          	lui	a5,0xf42
800061ec:	40078793          	addi	a5,a5,1024 # f42400 <STACK_SIZE+0xf41c00>
800061f0:	fcf42c23          	sw	a5,-40(s0)
    if (RCU->PLLSYSCFG0_bit.DSMEN) pll_fracdiv = (float)(RCU->PLLSYSCFG1_bit.FRAC / (1 << 24));
800061f4:	3000e7b7          	lui	a5,0x3000e
800061f8:	4bbc                	lw	a5,80(a5)
800061fa:	8391                	srli	a5,a5,0x4
800061fc:	8b85                	andi	a5,a5,1
800061fe:	0ff7f793          	zext.b	a5,a5
80006202:	c78d                	beqz	a5,8000622c <RCU_GetSysPLL1ClkFreq+0x9e>
80006204:	3000e7b7          	lui	a5,0x3000e
80006208:	4bf8                	lw	a4,84(a5)
8000620a:	010007b7          	lui	a5,0x1000
8000620e:	17fd                	addi	a5,a5,-1 # ffffff <STACK_SIZE+0xfff7ff>
80006210:	8ff9                	and	a5,a5,a4
80006212:	41f7d693          	srai	a3,a5,0x1f
80006216:	01000737          	lui	a4,0x1000
8000621a:	177d                	addi	a4,a4,-1 # ffffff <STACK_SIZE+0xfff7ff>
8000621c:	8f75                	and	a4,a4,a3
8000621e:	97ba                	add	a5,a5,a4
80006220:	87e1                	srai	a5,a5,0x18
80006222:	d007f7d3          	fcvt.s.w	fa5,a5
80006226:	fef42627          	fsw	fa5,-20(s0)
8000622a:	a019                	j	80006230 <RCU_GetSysPLL1ClkFreq+0xa2>
       else pll_fracdiv = 0;    
8000622c:	fe042623          	sw	zero,-20(s0)

    return (uint32_t)((pll_refclk * (pll_fbdiv + pll_fracdiv)) / (pll_refdiv * pll_div1a * pll_div1b));
80006230:	fd842783          	lw	a5,-40(s0)
80006234:	d017f753          	fcvt.s.wu	fa4,a5
80006238:	fe042783          	lw	a5,-32(s0)
8000623c:	d017f6d3          	fcvt.s.wu	fa3,a5
80006240:	fec42787          	flw	fa5,-20(s0)
80006244:	00f6f7d3          	fadd.s	fa5,fa3,fa5
80006248:	10f77753          	fmul.s	fa4,fa4,fa5
8000624c:	fdc42703          	lw	a4,-36(s0)
80006250:	fe842783          	lw	a5,-24(s0)
80006254:	02f70733          	mul	a4,a4,a5
80006258:	fe442783          	lw	a5,-28(s0)
8000625c:	02f707b3          	mul	a5,a4,a5
80006260:	d017f7d3          	fcvt.s.wu	fa5,a5
80006264:	18f777d3          	fdiv.s	fa5,fa4,fa5
80006268:	c01797d3          	fcvt.wu.s	a5,fa5,rtz
}
8000626c:	853e                	mv	a0,a5
8000626e:	5432                	lw	s0,44(sp)
80006270:	6145                	addi	sp,sp,48
80006272:	8082                	ret

80006274 <RCU_GetUsbPLLClkFreq>:
/**
  * @brief   Получение значения частоты тактового сигнала USBPLLCLK
  * @retval  Val  Значение Гц
  */
uint32_t RCU_GetUsbPLLClkFreq()
{
80006274:	7179                	addi	sp,sp,-48
80006276:	d622                	sw	s0,44(sp)
80006278:	1800                	addi	s0,sp,48
    uint32_t pll_div0a, pll_div0b, pll_fracdiv, pll_fbdiv, pll_refdiv, pll_refclk;

    pll_div0a = READ_REG(USB->PLLUSBCFG0_bit.PD0A)+1;
8000627a:	20010737          	lui	a4,0x20010
8000627e:	6785                	lui	a5,0x1
80006280:	97ba                	add	a5,a5,a4
80006282:	8007a783          	lw	a5,-2048(a5) # 800 <STACK_SIZE>
80006286:	83b5                	srli	a5,a5,0xd
80006288:	8b9d                	andi	a5,a5,7
8000628a:	0ff7f793          	zext.b	a5,a5
8000628e:	0785                	addi	a5,a5,1
80006290:	fef42623          	sw	a5,-20(s0)
    pll_div0b = READ_REG(USB->PLLUSBCFG0_bit.PD0B)+1;
80006294:	20010737          	lui	a4,0x20010
80006298:	6785                	lui	a5,0x1
8000629a:	97ba                	add	a5,a5,a4
8000629c:	8007a783          	lw	a5,-2048(a5) # 800 <STACK_SIZE>
800062a0:	83c1                	srli	a5,a5,0x10
800062a2:	03f7f793          	andi	a5,a5,63
800062a6:	0ff7f793          	zext.b	a5,a5
800062aa:	0785                	addi	a5,a5,1
800062ac:	fef42423          	sw	a5,-24(s0)
    pll_fracdiv = READ_REG(USB->PLLUSBCFG1_bit.FRAC);
800062b0:	20010737          	lui	a4,0x20010
800062b4:	6785                	lui	a5,0x1
800062b6:	97ba                	add	a5,a5,a4
800062b8:	8047a703          	lw	a4,-2044(a5) # 804 <STACK_SIZE+0x4>
800062bc:	010007b7          	lui	a5,0x1000
800062c0:	17fd                	addi	a5,a5,-1 # ffffff <STACK_SIZE+0xfff7ff>
800062c2:	8ff9                	and	a5,a5,a4
800062c4:	fef42223          	sw	a5,-28(s0)
    pll_fbdiv = READ_REG(USB->PLLUSBCFG2_bit.FBDIV);
800062c8:	20010737          	lui	a4,0x20010
800062cc:	6785                	lui	a5,0x1
800062ce:	97ba                	add	a5,a5,a4
800062d0:	8087a783          	lw	a5,-2040(a5) # 808 <STACK_SIZE+0x8>
800062d4:	873e                	mv	a4,a5
800062d6:	6785                	lui	a5,0x1
800062d8:	17fd                	addi	a5,a5,-1 # fff <STACK_SIZE+0x7ff>
800062da:	8ff9                	and	a5,a5,a4
800062dc:	07c2                	slli	a5,a5,0x10
800062de:	83c1                	srli	a5,a5,0x10
800062e0:	fef42023          	sw	a5,-32(s0)
    pll_refdiv = READ_REG(USB->PLLUSBCFG0_bit.REFDIV);
800062e4:	20010737          	lui	a4,0x20010
800062e8:	6785                	lui	a5,0x1
800062ea:	97ba                	add	a5,a5,a4
800062ec:	8007a783          	lw	a5,-2048(a5) # 800 <STACK_SIZE>
800062f0:	839d                	srli	a5,a5,0x7
800062f2:	03f7f793          	andi	a5,a5,63
800062f6:	0ff7f793          	zext.b	a5,a5
800062fa:	fcf42e23          	sw	a5,-36(s0)
    pll_refclk = HSECLK_VAL;
800062fe:	00f427b7          	lui	a5,0xf42
80006302:	40078793          	addi	a5,a5,1024 # f42400 <STACK_SIZE+0xf41c00>
80006306:	fcf42c23          	sw	a5,-40(s0)

    return (uint32_t)((pll_refclk * pll_fbdiv) / (pll_refdiv * pll_div0a * pll_div0b));
8000630a:	fd842703          	lw	a4,-40(s0)
8000630e:	fe042783          	lw	a5,-32(s0)
80006312:	02f70733          	mul	a4,a4,a5
80006316:	fdc42683          	lw	a3,-36(s0)
8000631a:	fec42783          	lw	a5,-20(s0)
8000631e:	02f686b3          	mul	a3,a3,a5
80006322:	fe842783          	lw	a5,-24(s0)
80006326:	02f687b3          	mul	a5,a3,a5
8000632a:	02f757b3          	divu	a5,a4,a5
}
8000632e:	853e                	mv	a0,a5
80006330:	5432                	lw	s0,44(sp)
80006332:	6145                	addi	sp,sp,48
80006334:	8082                	ret

80006336 <RCU_GetSysClkFreq>:
/**
  * @brief   Получение значения частоты SYSCLK
  * @retval  Val  Значение Гц
  */
uint32_t RCU_GetSysClkFreq()
{
80006336:	1101                	addi	sp,sp,-32
80006338:	ce06                	sw	ra,28(sp)
8000633a:	cc22                	sw	s0,24(sp)
8000633c:	1000                	addi	s0,sp,32
    RCU_SysClk_TypeDef sys_clk;

    sys_clk = RCU_SysClkStatus();
8000633e:	34e1                	jal	80005e06 <RCU_SysClkStatus>
80006340:	fea42623          	sw	a0,-20(s0)

    return getSysClkFreq(sys_clk);
80006344:	fec42503          	lw	a0,-20(s0)
80006348:	3e5d                	jal	80005efe <getSysClkFreq>
8000634a:	87aa                	mv	a5,a0
}
8000634c:	853e                	mv	a0,a5
8000634e:	40f2                	lw	ra,28(sp)
80006350:	4462                	lw	s0,24(sp)
80006352:	6105                	addi	sp,sp,32
80006354:	8082                	ret

80006356 <RCU_GetUARTClkFreq>:
  * @brief   Получение значения частоты UARTCLK
  * @param   UARTx_Num  Порядковый номер блока UART
  * @retval  Val  Значение Гц
  */
uint32_t RCU_GetUARTClkFreq(UART_Num_TypeDef UARTx_Num)
{
80006356:	7179                	addi	sp,sp,-48
80006358:	d606                	sw	ra,44(sp)
8000635a:	d422                	sw	s0,40(sp)
8000635c:	1800                	addi	s0,sp,48
8000635e:	fca42e23          	sw	a0,-36(s0)
    RCU_PeriphClk_TypeDef uart_clk;
    uint32_t div_val;

    uart_clk = (RCU_PeriphClk_TypeDef)READ_REG(RCU->UARTCLKCFG[UARTx_Num].UARTCLKCFG_bit.CLKSEL);
80006362:	3000e737          	lui	a4,0x3000e
80006366:	fdc42783          	lw	a5,-36(s0)
8000636a:	07f1                	addi	a5,a5,28
8000636c:	078a                	slli	a5,a5,0x2
8000636e:	97ba                	add	a5,a5,a4
80006370:	439c                	lw	a5,0(a5)
80006372:	83c1                	srli	a5,a5,0x10
80006374:	8b8d                	andi	a5,a5,3
80006376:	0ff7f793          	zext.b	a5,a5
8000637a:	fef42423          	sw	a5,-24(s0)
    if (READ_REG(RCU->UARTCLKCFG[UARTx_Num].UARTCLKCFG_bit.DIVEN))
8000637e:	3000e737          	lui	a4,0x3000e
80006382:	fdc42783          	lw	a5,-36(s0)
80006386:	07f1                	addi	a5,a5,28
80006388:	078a                	slli	a5,a5,0x2
8000638a:	97ba                	add	a5,a5,a4
8000638c:	439c                	lw	a5,0(a5)
8000638e:	83d1                	srli	a5,a5,0x14
80006390:	8b85                	andi	a5,a5,1
80006392:	0ff7f793          	zext.b	a5,a5
80006396:	c39d                	beqz	a5,800063bc <RCU_GetUARTClkFreq+0x66>
        div_val = 2 * (READ_REG(RCU->UARTCLKCFG[UARTx_Num].UARTCLKCFG_bit.DIVN) + 1);
80006398:	3000e737          	lui	a4,0x3000e
8000639c:	fdc42783          	lw	a5,-36(s0)
800063a0:	07f1                	addi	a5,a5,28
800063a2:	078a                	slli	a5,a5,0x2
800063a4:	97ba                	add	a5,a5,a4
800063a6:	439c                	lw	a5,0(a5)
800063a8:	83e1                	srli	a5,a5,0x18
800063aa:	03f7f793          	andi	a5,a5,63
800063ae:	0ff7f793          	zext.b	a5,a5
800063b2:	0785                	addi	a5,a5,1
800063b4:	0786                	slli	a5,a5,0x1
800063b6:	fef42623          	sw	a5,-20(s0)
800063ba:	a021                	j	800063c2 <RCU_GetUARTClkFreq+0x6c>
    else
        div_val = 1;
800063bc:	4785                	li	a5,1
800063be:	fef42623          	sw	a5,-20(s0)

    return getPeriphClkFreq(uart_clk) / div_val;
800063c2:	fe842503          	lw	a0,-24(s0)
800063c6:	3e45                	jal	80005f76 <getPeriphClkFreq>
800063c8:	872a                	mv	a4,a0
800063ca:	fec42783          	lw	a5,-20(s0)
800063ce:	02f757b3          	divu	a5,a4,a5
}
800063d2:	853e                	mv	a0,a5
800063d4:	50b2                	lw	ra,44(sp)
800063d6:	5422                	lw	s0,40(sp)
800063d8:	6145                	addi	sp,sp,48
800063da:	8082                	ret

800063dc <RCU_GetSPIClkFreq>:
  * @brief   Получение значения частоты SPICLK
  * @param   SPIx_Num  Порядковый номер блока SPI
  * @retval  Val  Значение Гц
  */
uint32_t RCU_GetSPIClkFreq(SPI_Num_TypeDef SPIx_Num)
{
800063dc:	7179                	addi	sp,sp,-48
800063de:	d606                	sw	ra,44(sp)
800063e0:	d422                	sw	s0,40(sp)
800063e2:	1800                	addi	s0,sp,48
800063e4:	fca42e23          	sw	a0,-36(s0)
    RCU_PeriphClk_TypeDef spi_clk;
    uint32_t div_val;

    spi_clk = (RCU_PeriphClk_TypeDef)READ_REG(RCU->SPICLKCFG[SPIx_Num].SPICLKCFG_bit.CLKSEL);
800063e8:	3000e737          	lui	a4,0x3000e
800063ec:	fdc42783          	lw	a5,-36(s0)
800063f0:	02478793          	addi	a5,a5,36
800063f4:	078a                	slli	a5,a5,0x2
800063f6:	97ba                	add	a5,a5,a4
800063f8:	43dc                	lw	a5,4(a5)
800063fa:	83c1                	srli	a5,a5,0x10
800063fc:	8b8d                	andi	a5,a5,3
800063fe:	0ff7f793          	zext.b	a5,a5
80006402:	fef42423          	sw	a5,-24(s0)
    if (READ_REG(RCU->SPICLKCFG[SPIx_Num].SPICLKCFG_bit.DIVEN))
80006406:	3000e737          	lui	a4,0x3000e
8000640a:	fdc42783          	lw	a5,-36(s0)
8000640e:	02478793          	addi	a5,a5,36
80006412:	078a                	slli	a5,a5,0x2
80006414:	97ba                	add	a5,a5,a4
80006416:	43dc                	lw	a5,4(a5)
80006418:	83d1                	srli	a5,a5,0x14
8000641a:	8b85                	andi	a5,a5,1
8000641c:	0ff7f793          	zext.b	a5,a5
80006420:	c785                	beqz	a5,80006448 <RCU_GetSPIClkFreq+0x6c>
        div_val = 2 * (READ_REG(RCU->SPICLKCFG[SPIx_Num].SPICLKCFG_bit.DIVN) + 1);
80006422:	3000e737          	lui	a4,0x3000e
80006426:	fdc42783          	lw	a5,-36(s0)
8000642a:	02478793          	addi	a5,a5,36
8000642e:	078a                	slli	a5,a5,0x2
80006430:	97ba                	add	a5,a5,a4
80006432:	43dc                	lw	a5,4(a5)
80006434:	83e1                	srli	a5,a5,0x18
80006436:	03f7f793          	andi	a5,a5,63
8000643a:	0ff7f793          	zext.b	a5,a5
8000643e:	0785                	addi	a5,a5,1
80006440:	0786                	slli	a5,a5,0x1
80006442:	fef42623          	sw	a5,-20(s0)
80006446:	a021                	j	8000644e <RCU_GetSPIClkFreq+0x72>
    else
        div_val = 1;
80006448:	4785                	li	a5,1
8000644a:	fef42623          	sw	a5,-20(s0)

    return getPeriphClkFreq(spi_clk) / div_val;
8000644e:	fe842503          	lw	a0,-24(s0)
80006452:	3615                	jal	80005f76 <getPeriphClkFreq>
80006454:	872a                	mv	a4,a0
80006456:	fec42783          	lw	a5,-20(s0)
8000645a:	02f757b3          	divu	a5,a4,a5
}
8000645e:	853e                	mv	a0,a5
80006460:	50b2                	lw	ra,44(sp)
80006462:	5422                	lw	s0,40(sp)
80006464:	6145                	addi	sp,sp,48
80006466:	8082                	ret

80006468 <RCU_GetADCSARClkFreq>:
/**
  * @brief   Получение значения частоты ADCSARCLK
  * @retval  Val  Значение Гц
  */
uint32_t RCU_GetADCSARClkFreq()
{
80006468:	1101                	addi	sp,sp,-32
8000646a:	ce06                	sw	ra,28(sp)
8000646c:	cc22                	sw	s0,24(sp)
8000646e:	1000                	addi	s0,sp,32
    RCU_PeriphClk_TypeDef adc_clk;
    uint32_t div_val;

    adc_clk = (RCU_PeriphClk_TypeDef)READ_REG(RCU->ADCSARCLKCFG_bit.CLKSEL);
80006470:	3000e7b7          	lui	a5,0x3000e
80006474:	0b07a783          	lw	a5,176(a5) # 3000e0b0 <STACK_SIZE+0x3000d8b0>
80006478:	83c1                	srli	a5,a5,0x10
8000647a:	8b8d                	andi	a5,a5,3
8000647c:	0ff7f793          	zext.b	a5,a5
80006480:	fef42423          	sw	a5,-24(s0)
    if (READ_REG(RCU->ADCSARCLKCFG_bit.DIVEN))
80006484:	3000e7b7          	lui	a5,0x3000e
80006488:	0b07a783          	lw	a5,176(a5) # 3000e0b0 <STACK_SIZE+0x3000d8b0>
8000648c:	83d1                	srli	a5,a5,0x14
8000648e:	8b85                	andi	a5,a5,1
80006490:	0ff7f793          	zext.b	a5,a5
80006494:	cf99                	beqz	a5,800064b2 <RCU_GetADCSARClkFreq+0x4a>
        div_val = 2 * (READ_REG(RCU->ADCSARCLKCFG_bit.DIVN) + 1);
80006496:	3000e7b7          	lui	a5,0x3000e
8000649a:	0b07a783          	lw	a5,176(a5) # 3000e0b0 <STACK_SIZE+0x3000d8b0>
8000649e:	83e1                	srli	a5,a5,0x18
800064a0:	03f7f793          	andi	a5,a5,63
800064a4:	0ff7f793          	zext.b	a5,a5
800064a8:	0785                	addi	a5,a5,1
800064aa:	0786                	slli	a5,a5,0x1
800064ac:	fef42623          	sw	a5,-20(s0)
800064b0:	a021                	j	800064b8 <RCU_GetADCSARClkFreq+0x50>
    else
        div_val = 1;
800064b2:	4785                	li	a5,1
800064b4:	fef42623          	sw	a5,-20(s0)

    return getPeriphClkFreq(adc_clk) / div_val;
800064b8:	fe842503          	lw	a0,-24(s0)
800064bc:	3c6d                	jal	80005f76 <getPeriphClkFreq>
800064be:	872a                	mv	a4,a0
800064c0:	fec42783          	lw	a5,-20(s0)
800064c4:	02f757b3          	divu	a5,a4,a5
}
800064c8:	853e                	mv	a0,a5
800064ca:	40f2                	lw	ra,28(sp)
800064cc:	4462                	lw	s0,24(sp)
800064ce:	6105                	addi	sp,sp,32
800064d0:	8082                	ret

800064d2 <RCU_GetADCSDClkFreq>:
/**
  * @brief   Получение значения частоты ADCSDCLK
  * @retval  Val  Значение Гц
  */
uint32_t RCU_GetADCSDClkFreq()
{
800064d2:	1101                	addi	sp,sp,-32
800064d4:	ce06                	sw	ra,28(sp)
800064d6:	cc22                	sw	s0,24(sp)
800064d8:	1000                	addi	s0,sp,32
    RCU_PeriphClk_TypeDef adc_clk;
    uint32_t div_val;

    adc_clk = (RCU_PeriphClk_TypeDef)READ_REG(RCU->ADCSDCLKCFG_bit.CLKSEL);
800064da:	3000e7b7          	lui	a5,0x3000e
800064de:	0b47a783          	lw	a5,180(a5) # 3000e0b4 <STACK_SIZE+0x3000d8b4>
800064e2:	83c1                	srli	a5,a5,0x10
800064e4:	8b8d                	andi	a5,a5,3
800064e6:	0ff7f793          	zext.b	a5,a5
800064ea:	fef42423          	sw	a5,-24(s0)
    if (READ_REG(RCU->ADCSDCLKCFG_bit.DIVEN))
800064ee:	3000e7b7          	lui	a5,0x3000e
800064f2:	0b47a783          	lw	a5,180(a5) # 3000e0b4 <STACK_SIZE+0x3000d8b4>
800064f6:	83d1                	srli	a5,a5,0x14
800064f8:	8b85                	andi	a5,a5,1
800064fa:	0ff7f793          	zext.b	a5,a5
800064fe:	cf99                	beqz	a5,8000651c <RCU_GetADCSDClkFreq+0x4a>
        div_val = 2 * (READ_REG(RCU->ADCSDCLKCFG_bit.DIVN) + 1);
80006500:	3000e7b7          	lui	a5,0x3000e
80006504:	0b47a783          	lw	a5,180(a5) # 3000e0b4 <STACK_SIZE+0x3000d8b4>
80006508:	83e1                	srli	a5,a5,0x18
8000650a:	03f7f793          	andi	a5,a5,63
8000650e:	0ff7f793          	zext.b	a5,a5
80006512:	0785                	addi	a5,a5,1
80006514:	0786                	slli	a5,a5,0x1
80006516:	fef42623          	sw	a5,-20(s0)
8000651a:	a021                	j	80006522 <RCU_GetADCSDClkFreq+0x50>
    else
        div_val = 1;
8000651c:	4785                	li	a5,1
8000651e:	fef42623          	sw	a5,-20(s0)

    return getPeriphClkFreq(adc_clk) / div_val;
80006522:	fe842503          	lw	a0,-24(s0)
80006526:	3c81                	jal	80005f76 <getPeriphClkFreq>
80006528:	872a                	mv	a4,a0
8000652a:	fec42783          	lw	a5,-20(s0)
8000652e:	02f757b3          	divu	a5,a4,a5
}
80006532:	853e                	mv	a0,a5
80006534:	40f2                	lw	ra,28(sp)
80006536:	4462                	lw	s0,24(sp)
80006538:	6105                	addi	sp,sp,32
8000653a:	8082                	ret

8000653c <RCU_GetWDTClkFreq>:
/**
  * @brief   Получение значения частоты WDTCLK
  * @retval  Val  Значение Гц
  */
uint32_t RCU_GetWDTClkFreq()
{
8000653c:	1101                	addi	sp,sp,-32
8000653e:	ce06                	sw	ra,28(sp)
80006540:	cc22                	sw	s0,24(sp)
80006542:	1000                	addi	s0,sp,32
    RCU_PeriphClk_TypeDef wdt_clk;
    uint32_t div_val;

    wdt_clk = (RCU_PeriphClk_TypeDef)READ_REG(RCU->WDOGCLKCFG_bit.CLKSEL);
80006544:	3000e7b7          	lui	a5,0x3000e
80006548:	0b87a783          	lw	a5,184(a5) # 3000e0b8 <STACK_SIZE+0x3000d8b8>
8000654c:	83c1                	srli	a5,a5,0x10
8000654e:	8b8d                	andi	a5,a5,3
80006550:	0ff7f793          	zext.b	a5,a5
80006554:	fef42423          	sw	a5,-24(s0)
    if (READ_REG(RCU->WDOGCLKCFG_bit.DIVEN))
80006558:	3000e7b7          	lui	a5,0x3000e
8000655c:	0b87a783          	lw	a5,184(a5) # 3000e0b8 <STACK_SIZE+0x3000d8b8>
80006560:	83d1                	srli	a5,a5,0x14
80006562:	8b85                	andi	a5,a5,1
80006564:	0ff7f793          	zext.b	a5,a5
80006568:	cf99                	beqz	a5,80006586 <RCU_GetWDTClkFreq+0x4a>
        div_val = 2 * (READ_REG(RCU->WDOGCLKCFG_bit.DIVN) + 1);
8000656a:	3000e7b7          	lui	a5,0x3000e
8000656e:	0b87a783          	lw	a5,184(a5) # 3000e0b8 <STACK_SIZE+0x3000d8b8>
80006572:	83e1                	srli	a5,a5,0x18
80006574:	03f7f793          	andi	a5,a5,63
80006578:	0ff7f793          	zext.b	a5,a5
8000657c:	0785                	addi	a5,a5,1
8000657e:	0786                	slli	a5,a5,0x1
80006580:	fef42623          	sw	a5,-20(s0)
80006584:	a021                	j	8000658c <RCU_GetWDTClkFreq+0x50>
    else
        div_val = 1;
80006586:	4785                	li	a5,1
80006588:	fef42623          	sw	a5,-20(s0)

    return getPeriphClkFreq(wdt_clk) / div_val;
8000658c:	fe842503          	lw	a0,-24(s0)
80006590:	32dd                	jal	80005f76 <getPeriphClkFreq>
80006592:	872a                	mv	a4,a0
80006594:	fec42783          	lw	a5,-20(s0)
80006598:	02f757b3          	divu	a5,a4,a5
}
8000659c:	853e                	mv	a0,a5
8000659e:	40f2                	lw	ra,28(sp)
800065a0:	4462                	lw	s0,24(sp)
800065a2:	6105                	addi	sp,sp,32
800065a4:	8082                	ret

800065a6 <RCU_GetIWDTClkFreq>:
/**
  * @brief   Получение значения частоты IWDTCLK
  * @retval  Val  Значение Гц
  */
uint32_t RCU_GetIWDTClkFreq()
{
800065a6:	1101                	addi	sp,sp,-32
800065a8:	ce06                	sw	ra,28(sp)
800065aa:	cc22                	sw	s0,24(sp)
800065ac:	1000                	addi	s0,sp,32
    RCU_IWDTClk_TypeDef iwdt_clk;

    iwdt_clk = (RCU_IWDTClk_TypeDef)READ_REG(PMURTC->IWDG_CFG_bit.CLKSRC);
800065ae:	380117b7          	lui	a5,0x38011
800065b2:	0ac7a783          	lw	a5,172(a5) # 380110ac <STACK_SIZE+0x380108ac>
800065b6:	8b8d                	andi	a5,a5,3
800065b8:	0ff7f793          	zext.b	a5,a5
800065bc:	fef42623          	sw	a5,-20(s0)

    return getIwdtClkFreq(iwdt_clk);
800065c0:	fec42503          	lw	a0,-20(s0)
800065c4:	342d                	jal	80005fee <getIwdtClkFreq>
800065c6:	87aa                	mv	a5,a0
}
800065c8:	853e                	mv	a0,a5
800065ca:	40f2                	lw	ra,28(sp)
800065cc:	4462                	lw	s0,24(sp)
800065ce:	6105                	addi	sp,sp,32
800065d0:	8082                	ret

800065d2 <RCU_GetClkOutFreq>:
/**
  * @brief   Получение значения частоты CLKOUT
  * @retval  Val  Значение Гц
  */
uint32_t RCU_GetClkOutFreq()
{
800065d2:	1101                	addi	sp,sp,-32
800065d4:	ce06                	sw	ra,28(sp)
800065d6:	cc22                	sw	s0,24(sp)
800065d8:	1000                	addi	s0,sp,32
    RCU_PeriphClk_TypeDef clkout;
    uint32_t div_val;

    clkout = (RCU_SysClk_TypeDef)READ_REG(RCU->CLKOUTCFG_bit.CLKSEL);
800065da:	3000e7b7          	lui	a5,0x3000e
800065de:	0bc7a783          	lw	a5,188(a5) # 3000e0bc <STACK_SIZE+0x3000d8bc>
800065e2:	8391                	srli	a5,a5,0x4
800065e4:	8b8d                	andi	a5,a5,3
800065e6:	0ff7f793          	zext.b	a5,a5
800065ea:	fef42423          	sw	a5,-24(s0)
    if (READ_REG(RCU->CLKOUTCFG_bit.DIVEN))
800065ee:	3000e7b7          	lui	a5,0x3000e
800065f2:	0bc7a783          	lw	a5,188(a5) # 3000e0bc <STACK_SIZE+0x3000d8bc>
800065f6:	83b1                	srli	a5,a5,0xc
800065f8:	8b85                	andi	a5,a5,1
800065fa:	0ff7f793          	zext.b	a5,a5
800065fe:	cf81                	beqz	a5,80006616 <RCU_GetClkOutFreq+0x44>
        div_val = 2 * (READ_REG(RCU->CLKOUTCFG_bit.DIVN) + 1);
80006600:	3000e7b7          	lui	a5,0x3000e
80006604:	0be7d783          	lhu	a5,190(a5) # 3000e0be <STACK_SIZE+0x3000d8be>
80006608:	07c2                	slli	a5,a5,0x10
8000660a:	83c1                	srli	a5,a5,0x10
8000660c:	0785                	addi	a5,a5,1
8000660e:	0786                	slli	a5,a5,0x1
80006610:	fef42623          	sw	a5,-20(s0)
80006614:	a021                	j	8000661c <RCU_GetClkOutFreq+0x4a>
    else
        div_val = 1;
80006616:	4785                	li	a5,1
80006618:	fef42623          	sw	a5,-20(s0)

    return getSysClkFreq(clkout) / div_val;
8000661c:	fe842503          	lw	a0,-24(s0)
80006620:	38f9                	jal	80005efe <getSysClkFreq>
80006622:	872a                	mv	a4,a0
80006624:	fec42783          	lw	a5,-20(s0)
80006628:	02f757b3          	divu	a5,a4,a5
}
8000662c:	853e                	mv	a0,a5
8000662e:	40f2                	lw	ra,28(sp)
80006630:	4462                	lw	s0,24(sp)
80006632:	6105                	addi	sp,sp,32
80006634:	8082                	ret

80006636 <RCU_SYSPLL0_Init>:
  * @param      InitStruct  Указатель на структуру типа @ref RCU_PLL_Init_TypeDef,
  *                         которая содержит конфигурационную информацию
  * @retval     Status
  */
OperationStatus RCU_SYSPLL0_Init(RCU_PLL_Init_TypeDef* InitStruct)
{
80006636:	7179                	addi	sp,sp,-48
80006638:	d606                	sw	ra,44(sp)
8000663a:	d422                	sw	s0,40(sp)
8000663c:	1800                	addi	s0,sp,48
8000663e:	fca42e23          	sw	a0,-36(s0)
    uint32_t timeout = RCU_PLLCLK_LOCK_TIMEOUT;
80006642:	6789                	lui	a5,0x2
80006644:	71078793          	addi	a5,a5,1808 # 2710 <STACK_SIZE+0x1f10>
80006648:	fef42623          	sw	a5,-20(s0)
    OperationStatus status = OK;
8000664c:	fe042423          	sw	zero,-24(s0)
    assert_param(IS_RCU_PLL_DIV0A(InitStruct->Div0A));
    assert_param(IS_RCU_PLL_DIV0B(InitStruct->Div0B));
    assert_param(IS_RCU_PLL_DIV1A(InitStruct->Div1A));
    assert_param(IS_RCU_PLL_DIV1B(InitStruct->Div1B));

    CLEAR_BIT(RCU->PLLSYSCFG0, RCU_PLLSYSCFG0_BYP_Msk | RCU_PLLSYSCFG0_PLLEN_Msk);
80006650:	3000e7b7          	lui	a5,0x3000e
80006654:	4bb8                	lw	a4,80(a5)
80006656:	3000e7b7          	lui	a5,0x3000e
8000665a:	9b61                	andi	a4,a4,-8
8000665c:	cbb8                	sw	a4,80(a5)
    MODIFY_REG(RCU->PLLSYSCFG0, (RCU_PLLSYSCFG0_REFDIV_Msk | RCU_PLLSYSCFG0_PD0A_Msk | RCU_PLLSYSCFG0_PD0B_Msk),
8000665e:	3000e7b7          	lui	a5,0x3000e
80006662:	4bb8                	lw	a4,80(a5)
80006664:	ffc007b7          	lui	a5,0xffc00
80006668:	07f78793          	addi	a5,a5,127 # ffc0007f <__data_source_start+0x7fbf8737>
8000666c:	00f776b3          	and	a3,a4,a5
80006670:	fdc42783          	lw	a5,-36(s0)
80006674:	43dc                	lw	a5,4(a5)
80006676:	00779713          	slli	a4,a5,0x7
8000667a:	fdc42783          	lw	a5,-36(s0)
8000667e:	4b9c                	lw	a5,16(a5)
80006680:	07b6                	slli	a5,a5,0xd
80006682:	8f5d                	or	a4,a4,a5
80006684:	fdc42783          	lw	a5,-36(s0)
80006688:	4bdc                	lw	a5,20(a5)
8000668a:	07c2                	slli	a5,a5,0x10
8000668c:	8f5d                	or	a4,a4,a5
8000668e:	3000e7b7          	lui	a5,0x3000e
80006692:	8f55                	or	a4,a4,a3
80006694:	cbb8                	sw	a4,80(a5)
               (InitStruct->RefDiv << RCU_PLLSYSCFG0_REFDIV_Pos |
                InitStruct->Div0A << RCU_PLLSYSCFG0_PD0A_Pos |
                InitStruct->Div0B << RCU_PLLSYSCFG0_PD0B_Pos));
    MODIFY_REG(RCU->PLLSYSCFG2, (RCU_PLLSYSCFG2_FBDIV_Msk),
80006696:	3000e7b7          	lui	a5,0x3000e
8000669a:	4fb8                	lw	a4,88(a5)
8000669c:	77fd                	lui	a5,0xfffff
8000669e:	00f776b3          	and	a3,a4,a5
800066a2:	fdc42783          	lw	a5,-36(s0)
800066a6:	4798                	lw	a4,8(a5)
800066a8:	3000e7b7          	lui	a5,0x3000e
800066ac:	8f55                	or	a4,a4,a3
800066ae:	cfb8                	sw	a4,88(a5)
               (InitStruct->FbDiv << RCU_PLLSYSCFG2_FBDIV_Pos));

    RCU_SYSPLL0_OutCmd(ENABLE);
800066b0:	4505                	li	a0,1
800066b2:	f6eff0ef          	jal	ra,80005e20 <RCU_SYSPLL0_OutCmd>
    while (timeout) {
800066b6:	a811                	j	800066ca <RCU_SYSPLL0_Init+0x94>
        if (RCU_SYSPLL_LockStatus()) {
800066b8:	fdaff0ef          	jal	ra,80005e92 <RCU_SYSPLL_LockStatus>
800066bc:	87aa                	mv	a5,a0
800066be:	eb91                	bnez	a5,800066d2 <RCU_SYSPLL0_Init+0x9c>
            break;
        } else {
            timeout--;
800066c0:	fec42783          	lw	a5,-20(s0)
800066c4:	17fd                	addi	a5,a5,-1 # 3000dfff <STACK_SIZE+0x3000d7ff>
800066c6:	fef42623          	sw	a5,-20(s0)
    while (timeout) {
800066ca:	fec42783          	lw	a5,-20(s0)
800066ce:	f7ed                	bnez	a5,800066b8 <RCU_SYSPLL0_Init+0x82>
800066d0:	a011                	j	800066d4 <RCU_SYSPLL0_Init+0x9e>
            break;
800066d2:	0001                	nop
        }
    }
    if (!timeout) {
800066d4:	fec42783          	lw	a5,-20(s0)
800066d8:	e781                	bnez	a5,800066e0 <RCU_SYSPLL0_Init+0xaa>
        status = ERROR;
800066da:	4785                	li	a5,1
800066dc:	fef42423          	sw	a5,-24(s0)
    }

    return status;
800066e0:	fe842783          	lw	a5,-24(s0)
}
800066e4:	853e                	mv	a0,a5
800066e6:	50b2                	lw	ra,44(sp)
800066e8:	5422                	lw	s0,40(sp)
800066ea:	6145                	addi	sp,sp,48
800066ec:	8082                	ret

800066ee <RCU_USBPLL_Init>:
  * @param      InitStruct  Указатель на структуру типа @ref RCU_PLL_Init_TypeDef,
  *                         которая содержит конфигурационную информацию
  * @retval     Status
  */
OperationStatus RCU_USBPLL_Init(RCU_PLL_Init_TypeDef* InitStruct)
{
800066ee:	7179                	addi	sp,sp,-48
800066f0:	d606                	sw	ra,44(sp)
800066f2:	d422                	sw	s0,40(sp)
800066f4:	1800                	addi	s0,sp,48
800066f6:	fca42e23          	sw	a0,-36(s0)
    uint32_t timeout = RCU_PLLCLK_LOCK_TIMEOUT;
800066fa:	6789                	lui	a5,0x2
800066fc:	71078793          	addi	a5,a5,1808 # 2710 <STACK_SIZE+0x1f10>
80006700:	fef42623          	sw	a5,-20(s0)
    OperationStatus status = OK;
80006704:	fe042423          	sw	zero,-24(s0)
    assert_param(IS_RCU_PLL_DIV0A(InitStruct->Div0A));
    assert_param(IS_RCU_PLL_DIV0B(InitStruct->Div0B));
    assert_param(IS_RCU_PLL_DIV1A(InitStruct->Div1A));
    assert_param(IS_RCU_PLL_DIV1B(InitStruct->Div1B));

    CLEAR_BIT(USB->PLLUSBCFG0, USB_PLLUSBCFG0_BYP_Msk | USB_PLLUSBCFG0_PLLEN_Msk);
80006708:	20010737          	lui	a4,0x20010
8000670c:	6785                	lui	a5,0x1
8000670e:	97ba                	add	a5,a5,a4
80006710:	8007a783          	lw	a5,-2048(a5) # 800 <STACK_SIZE>
80006714:	200106b7          	lui	a3,0x20010
80006718:	ff87f713          	andi	a4,a5,-8
8000671c:	6785                	lui	a5,0x1
8000671e:	97b6                	add	a5,a5,a3
80006720:	80e7a023          	sw	a4,-2048(a5) # 800 <STACK_SIZE>
    MODIFY_REG(USB->PLLUSBCFG0, (USB_PLLUSBCFG0_REFDIV_Msk | USB_PLLUSBCFG0_PD0A_Msk | USB_PLLUSBCFG0_PD0B_Msk),
80006724:	20010737          	lui	a4,0x20010
80006728:	6785                	lui	a5,0x1
8000672a:	97ba                	add	a5,a5,a4
8000672c:	8007a703          	lw	a4,-2048(a5) # 800 <STACK_SIZE>
80006730:	ffc007b7          	lui	a5,0xffc00
80006734:	07f78793          	addi	a5,a5,127 # ffc0007f <__data_source_start+0x7fbf8737>
80006738:	8f7d                	and	a4,a4,a5
8000673a:	fdc42783          	lw	a5,-36(s0)
8000673e:	43dc                	lw	a5,4(a5)
80006740:	00779693          	slli	a3,a5,0x7
80006744:	fdc42783          	lw	a5,-36(s0)
80006748:	4b9c                	lw	a5,16(a5)
8000674a:	07b6                	slli	a5,a5,0xd
8000674c:	8edd                	or	a3,a3,a5
8000674e:	fdc42783          	lw	a5,-36(s0)
80006752:	4bdc                	lw	a5,20(a5)
80006754:	07c2                	slli	a5,a5,0x10
80006756:	8fd5                	or	a5,a5,a3
80006758:	200106b7          	lui	a3,0x20010
8000675c:	8f5d                	or	a4,a4,a5
8000675e:	6785                	lui	a5,0x1
80006760:	97b6                	add	a5,a5,a3
80006762:	80e7a023          	sw	a4,-2048(a5) # 800 <STACK_SIZE>
               (InitStruct->RefDiv << USB_PLLUSBCFG0_REFDIV_Pos |
                InitStruct->Div0A << USB_PLLUSBCFG0_PD0A_Pos |
                InitStruct->Div0B << USB_PLLUSBCFG0_PD0B_Pos));
    MODIFY_REG(USB->PLLUSBCFG2, (USB_PLLUSBCFG2_FBDIV_Msk),
80006766:	20010737          	lui	a4,0x20010
8000676a:	6785                	lui	a5,0x1
8000676c:	97ba                	add	a5,a5,a4
8000676e:	8087a703          	lw	a4,-2040(a5) # 808 <STACK_SIZE+0x8>
80006772:	77fd                	lui	a5,0xfffff
80006774:	8f7d                	and	a4,a4,a5
80006776:	fdc42783          	lw	a5,-36(s0)
8000677a:	479c                	lw	a5,8(a5)
8000677c:	200106b7          	lui	a3,0x20010
80006780:	8f5d                	or	a4,a4,a5
80006782:	6785                	lui	a5,0x1
80006784:	97b6                	add	a5,a5,a3
80006786:	80e7a423          	sw	a4,-2040(a5) # 808 <STACK_SIZE+0x8>
               (InitStruct->FbDiv << USB_PLLUSBCFG2_FBDIV_Pos));

    RCU_SYSPLL0_OutCmd(ENABLE);
8000678a:	4505                	li	a0,1
8000678c:	e94ff0ef          	jal	ra,80005e20 <RCU_SYSPLL0_OutCmd>
    while (timeout) {
80006790:	a811                	j	800067a4 <RCU_USBPLL_Init+0xb6>
        if (RCU_SYSPLL_LockStatus()) {
80006792:	f00ff0ef          	jal	ra,80005e92 <RCU_SYSPLL_LockStatus>
80006796:	87aa                	mv	a5,a0
80006798:	eb91                	bnez	a5,800067ac <RCU_USBPLL_Init+0xbe>
            break;
        } else {
            timeout--;
8000679a:	fec42783          	lw	a5,-20(s0)
8000679e:	17fd                	addi	a5,a5,-1
800067a0:	fef42623          	sw	a5,-20(s0)
    while (timeout) {
800067a4:	fec42783          	lw	a5,-20(s0)
800067a8:	f7ed                	bnez	a5,80006792 <RCU_USBPLL_Init+0xa4>
800067aa:	a011                	j	800067ae <RCU_USBPLL_Init+0xc0>
            break;
800067ac:	0001                	nop
        }
    }
    if (!timeout) {
800067ae:	fec42783          	lw	a5,-20(s0)
800067b2:	e781                	bnez	a5,800067ba <RCU_USBPLL_Init+0xcc>
        status = ERROR;
800067b4:	4785                	li	a5,1
800067b6:	fef42423          	sw	a5,-24(s0)
    }

    return status;
800067ba:	fe842783          	lw	a5,-24(s0)
}
800067be:	853e                	mv	a0,a5
800067c0:	50b2                	lw	ra,44(sp)
800067c2:	5422                	lw	s0,40(sp)
800067c4:	6145                	addi	sp,sp,48
800067c6:	8082                	ret

800067c8 <RCU_PLL_StructInit>:
  * @param   InitStruct  Указатель на структуру типа @ref RCU_PLL_Init_TypeDef,
  *                      которую необходимо проинициализировать
  * @retval  void
  */
void RCU_PLL_StructInit(RCU_PLL_Init_TypeDef* InitStruct)
{
800067c8:	1101                	addi	sp,sp,-32
800067ca:	ce22                	sw	s0,28(sp)
800067cc:	1000                	addi	s0,sp,32
800067ce:	fea42623          	sw	a0,-20(s0)
    InitStruct->FbDiv = 16;
800067d2:	fec42783          	lw	a5,-20(s0)
800067d6:	4741                	li	a4,16
800067d8:	c798                	sw	a4,8(a5)
    InitStruct->RefDiv = 1;
800067da:	fec42783          	lw	a5,-20(s0)
800067de:	4705                	li	a4,1
800067e0:	c3d8                	sw	a4,4(a5)
    InitStruct->Div0A = 1;
800067e2:	fec42783          	lw	a5,-20(s0)
800067e6:	4705                	li	a4,1
800067e8:	cb98                	sw	a4,16(a5)
    InitStruct->Div0B = 1;
800067ea:	fec42783          	lw	a5,-20(s0)
800067ee:	4705                	li	a4,1
800067f0:	cbd8                	sw	a4,20(a5)
    InitStruct->Div1A = 1;
800067f2:	fec42783          	lw	a5,-20(s0)
800067f6:	4705                	li	a4,1
800067f8:	cf98                	sw	a4,24(a5)
    InitStruct->Div1B = 1;
800067fa:	fec42783          	lw	a5,-20(s0)
800067fe:	4705                	li	a4,1
80006800:	cfd8                	sw	a4,28(a5)
}
80006802:	0001                	nop
80006804:	4472                	lw	s0,28(sp)
80006806:	6105                	addi	sp,sp,32
80006808:	8082                	ret

8000680a <RCU_SYSPLL_DeInit>:
/**
  * @brief   Устанавливает все регистры SYSPLL значениями по умолчанию
  * @retval  void
  */
void RCU_SYSPLL_DeInit()
{
8000680a:	1141                	addi	sp,sp,-16
8000680c:	c606                	sw	ra,12(sp)
8000680e:	c422                	sw	s0,8(sp)
80006810:	0800                	addi	s0,sp,16
    RCU_SYSPLL_Cmd(DISABLE);
80006812:	4501                	li	a0,0
80006814:	e46ff0ef          	jal	ra,80005e5a <RCU_SYSPLL_Cmd>
    WRITE_REG(RCU->PLLSYSCFG0, RCU_PLLSYSCFG0_RST_VAL);
80006818:	3000e7b7          	lui	a5,0x3000e
8000681c:	0407a823          	sw	zero,80(a5) # 3000e050 <STACK_SIZE+0x3000d850>
}
80006820:	0001                	nop
80006822:	40b2                	lw	ra,12(sp)
80006824:	4422                	lw	s0,8(sp)
80006826:	0141                	addi	sp,sp,16
80006828:	8082                	ret

8000682a <RCU_USBPLL_DeInit>:
/**
  * @brief   Устанавливает все регистры USBPLL значениями по умолчанию
  * @retval  void
  */
void RCU_USBPLL_DeInit()
{
8000682a:	1141                	addi	sp,sp,-16
8000682c:	c606                	sw	ra,12(sp)
8000682e:	c422                	sw	s0,8(sp)
80006830:	0800                	addi	s0,sp,16
    RCU_USBPLL_OutCmd(DISABLE);
80006832:	4501                	li	a0,0
80006834:	e74ff0ef          	jal	ra,80005ea8 <RCU_USBPLL_OutCmd>
    WRITE_REG(USB->PLLUSBCFG0, RCU_PLLSYSCFG0_RST_VAL);
80006838:	20010737          	lui	a4,0x20010
8000683c:	6785                	lui	a5,0x1
8000683e:	97ba                	add	a5,a5,a4
80006840:	8007a023          	sw	zero,-2048(a5) # 800 <STACK_SIZE>
}
80006844:	0001                	nop
80006846:	40b2                	lw	ra,12(sp)
80006848:	4422                	lw	s0,8(sp)
8000684a:	0141                	addi	sp,sp,16
8000684c:	8082                	ret

8000684e <RCU_SysClkChangeCmd>:
  * @brief   Переключение источника для системного тактового сигнала
  * @param   SysClk  Выбор источника
  * @retval  void
  */
OperationStatus RCU_SysClkChangeCmd(RCU_SysClk_TypeDef SysClk)
{
8000684e:	7179                	addi	sp,sp,-48
80006850:	d606                	sw	ra,44(sp)
80006852:	d422                	sw	s0,40(sp)
80006854:	1800                	addi	s0,sp,48
80006856:	fca42e23          	sw	a0,-36(s0)
    uint32_t timeout = RCU_SYSCLK_CHANGE_TIMEOUT;
8000685a:	6789                	lui	a5,0x2
8000685c:	71078793          	addi	a5,a5,1808 # 2710 <STACK_SIZE+0x1f10>
80006860:	fef42623          	sw	a5,-20(s0)
    OperationStatus status = OK;
80006864:	fe042423          	sw	zero,-24(s0)

    assert_param(IS_RCU_SYS_CLK(SysClk));

    RCU_SysClkConfig(SysClk);
80006868:	fdc42503          	lw	a0,-36(s0)
8000686c:	d70ff0ef          	jal	ra,80005ddc <RCU_SysClkConfig>

    while (timeout) {
80006870:	a829                	j	8000688a <RCU_SysClkChangeCmd+0x3c>
        if ((RCU_SysClkStatus() != SysClk)) {
80006872:	d94ff0ef          	jal	ra,80005e06 <RCU_SysClkStatus>
80006876:	872a                	mv	a4,a0
80006878:	fdc42783          	lw	a5,-36(s0)
8000687c:	00e78b63          	beq	a5,a4,80006892 <RCU_SysClkChangeCmd+0x44>
            timeout--;
80006880:	fec42783          	lw	a5,-20(s0)
80006884:	17fd                	addi	a5,a5,-1
80006886:	fef42623          	sw	a5,-20(s0)
    while (timeout) {
8000688a:	fec42783          	lw	a5,-20(s0)
8000688e:	f3f5                	bnez	a5,80006872 <RCU_SysClkChangeCmd+0x24>
80006890:	a011                	j	80006894 <RCU_SysClkChangeCmd+0x46>
        } else {
            break;
80006892:	0001                	nop
        }
    }

    if (!timeout) {
80006894:	fec42783          	lw	a5,-20(s0)
80006898:	e781                	bnez	a5,800068a0 <RCU_SysClkChangeCmd+0x52>
        status = ERROR;
8000689a:	4785                	li	a5,1
8000689c:	fef42423          	sw	a5,-24(s0)
    }

    return status;
800068a0:	fe842783          	lw	a5,-24(s0)
}
800068a4:	853e                	mv	a0,a5
800068a6:	50b2                	lw	ra,44(sp)
800068a8:	5422                	lw	s0,40(sp)
800068aa:	6145                	addi	sp,sp,48
800068ac:	8082                	ret

800068ae <RCU_SPIRstCmd>:
{
800068ae:	1101                	addi	sp,sp,-32
800068b0:	ce22                	sw	s0,28(sp)
800068b2:	1000                	addi	s0,sp,32
800068b4:	fea42623          	sw	a0,-20(s0)
800068b8:	feb42423          	sw	a1,-24(s0)
    WRITE_REG(RCU->SPICLKCFG[SPIx_Num].SPICLKCFG_bit.RSTDIS, State);
800068bc:	3000e6b7          	lui	a3,0x3000e
800068c0:	fe842783          	lw	a5,-24(s0)
800068c4:	8b85                	andi	a5,a5,1
800068c6:	0ff7f713          	zext.b	a4,a5
800068ca:	fec42783          	lw	a5,-20(s0)
800068ce:	02478793          	addi	a5,a5,36
800068d2:	078a                	slli	a5,a5,0x2
800068d4:	97b6                	add	a5,a5,a3
800068d6:	8b05                	andi	a4,a4,1
800068d8:	0722                	slli	a4,a4,0x8
800068da:	43d4                	lw	a3,4(a5)
800068dc:	eff6f693          	andi	a3,a3,-257
800068e0:	8f55                	or	a4,a4,a3
800068e2:	c3d8                	sw	a4,4(a5)
}
800068e4:	0001                	nop
800068e6:	4472                	lw	s0,28(sp)
800068e8:	6105                	addi	sp,sp,32
800068ea:	8082                	ret

800068ec <SPI_DataWidthConfig>:
  * @param   SPIx  Выбор модуля SPI, где x=0|1
  * @param   DataWidth  Значение разрядности слова
  * @retval  void
  */
__STATIC_INLINE void SPI_DataWidthConfig(SPI_TypeDef* SPIx, SPI_DataWidth_TypeDef DataWidth)
{
800068ec:	1101                	addi	sp,sp,-32
800068ee:	ce22                	sw	s0,28(sp)
800068f0:	1000                	addi	s0,sp,32
800068f2:	fea42623          	sw	a0,-20(s0)
800068f6:	feb42423          	sw	a1,-24(s0)
    assert_param(IS_SPI_PERIPH(SPIx));
    assert_param(IS_SPI_DATA_WIDTH(DataWidth));

    WRITE_REG(SPIx->CR0_bit.DSS, DataWidth);
800068fa:	fe842783          	lw	a5,-24(s0)
800068fe:	8bbd                	andi	a5,a5,15
80006900:	0ff7f713          	zext.b	a4,a5
80006904:	fec42783          	lw	a5,-20(s0)
80006908:	8b3d                	andi	a4,a4,15
8000690a:	0007d683          	lhu	a3,0(a5)
8000690e:	9ac1                	andi	a3,a3,-16
80006910:	8f55                	or	a4,a4,a3
80006912:	00e79023          	sh	a4,0(a5)
}
80006916:	0001                	nop
80006918:	4472                	lw	s0,28(sp)
8000691a:	6105                	addi	sp,sp,32
8000691c:	8082                	ret

8000691e <SPI_ModeConfig>:
  * @param   SPIx  Выбор модуля SPI, где x=0|1
  * @param   Mode  Выбор режима
  * @retval  void
  */
__STATIC_INLINE void SPI_ModeConfig(SPI_TypeDef* SPIx, SPI_Mode_TypeDef Mode)
{
8000691e:	1101                	addi	sp,sp,-32
80006920:	ce22                	sw	s0,28(sp)
80006922:	1000                	addi	s0,sp,32
80006924:	fea42623          	sw	a0,-20(s0)
80006928:	feb42423          	sw	a1,-24(s0)
    assert_param(IS_SPI_PERIPH(SPIx));
    assert_param(IS_SPI_MODE(Mode));

    WRITE_REG(SPIx->CR1_bit.MS, Mode);
8000692c:	fe842783          	lw	a5,-24(s0)
80006930:	8b85                	andi	a5,a5,1
80006932:	0ff7f713          	zext.b	a4,a5
80006936:	fec42783          	lw	a5,-20(s0)
8000693a:	8b05                	andi	a4,a4,1
8000693c:	070a                	slli	a4,a4,0x2
8000693e:	0047d683          	lhu	a3,4(a5)
80006942:	9aed                	andi	a3,a3,-5
80006944:	8f55                	or	a4,a4,a3
80006946:	00e79223          	sh	a4,4(a5)
}
8000694a:	0001                	nop
8000694c:	4472                	lw	s0,28(sp)
8000694e:	6105                	addi	sp,sp,32
80006950:	8082                	ret

80006952 <SPI_FrameFormatConfig>:
  * @param   SPIx  Выбор модуля SPI, где x=0|1
  * @param   FrameFormat  Выбор формата
  * @retval  void
  */
__STATIC_INLINE void SPI_FrameFormatConfig(SPI_TypeDef* SPIx, SPI_FrameFormat_TypeDef FrameFormat)
{
80006952:	1101                	addi	sp,sp,-32
80006954:	ce22                	sw	s0,28(sp)
80006956:	1000                	addi	s0,sp,32
80006958:	fea42623          	sw	a0,-20(s0)
8000695c:	feb42423          	sw	a1,-24(s0)
    assert_param(IS_SPI_PERIPH(SPIx));
    assert_param(IS_SPI_FRAME_FORMAT(FrameFormat));

    WRITE_REG(SPIx->CR0_bit.FRF, FrameFormat);
80006960:	fe842783          	lw	a5,-24(s0)
80006964:	8b8d                	andi	a5,a5,3
80006966:	0ff7f713          	zext.b	a4,a5
8000696a:	fec42783          	lw	a5,-20(s0)
8000696e:	8b0d                	andi	a4,a4,3
80006970:	0712                	slli	a4,a4,0x4
80006972:	0007d683          	lhu	a3,0(a5)
80006976:	fcf6f693          	andi	a3,a3,-49
8000697a:	8f55                	or	a4,a4,a3
8000697c:	00e79023          	sh	a4,0(a5)
}
80006980:	0001                	nop
80006982:	4472                	lw	s0,28(sp)
80006984:	6105                	addi	sp,sp,32
80006986:	8082                	ret

80006988 <SPI_SCKDivConfig>:
                          Параметр может принимать любые четные значения из диапазона: 2-254.

  * @retval  void
  */
__STATIC_INLINE void SPI_SCKDivConfig(SPI_TypeDef* SPIx, uint32_t SCKDiv, uint32_t SCKDivExtra)
{
80006988:	1101                	addi	sp,sp,-32
8000698a:	ce22                	sw	s0,28(sp)
8000698c:	1000                	addi	s0,sp,32
8000698e:	fea42623          	sw	a0,-20(s0)
80006992:	feb42423          	sw	a1,-24(s0)
80006996:	fec42223          	sw	a2,-28(s0)
    assert_param(IS_SPI_PERIPH(SPIx));
    assert_param(IS_SPI_SCK_DIV(SCKDiv));
    assert_param(IS_SPI_SCK_DIV_EXTRA(SCKDivExtra));

    WRITE_REG(SPIx->CR0_bit.SCR, SCKDiv);
8000699a:	fe842783          	lw	a5,-24(s0)
8000699e:	0ff7f713          	zext.b	a4,a5
800069a2:	fec42783          	lw	a5,-20(s0)
800069a6:	00e780a3          	sb	a4,1(a5)
    WRITE_REG(SPIx->CPSR, SCKDivExtra);
800069aa:	fec42783          	lw	a5,-20(s0)
800069ae:	fe442703          	lw	a4,-28(s0)
800069b2:	cb98                	sw	a4,16(a5)
}
800069b4:	0001                	nop
800069b6:	4472                	lw	s0,28(sp)
800069b8:	6105                	addi	sp,sp,32
800069ba:	8082                	ret

800069bc <SPI_DeInit>:
  * @brief   Устанавливает все регистры SPI значениями по умолчанию
  * @param   SPIx  Выбор модуля SPI, где x=0|1
  * @retval  void
  */
void SPI_DeInit(SPI_TypeDef* SPIx)
{
800069bc:	7179                	addi	sp,sp,-48
800069be:	d606                	sw	ra,44(sp)
800069c0:	d422                	sw	s0,40(sp)
800069c2:	1800                	addi	s0,sp,48
800069c4:	fca42e23          	sw	a0,-36(s0)
    SPI_Num_TypeDef SPIx_Num;
    assert_param(IS_SPI_PERIPH(SPIx));

    if (SPIx == SPI0) {
800069c8:	fdc42703          	lw	a4,-36(s0)
800069cc:	200507b7          	lui	a5,0x20050
800069d0:	00f71563          	bne	a4,a5,800069da <SPI_DeInit+0x1e>
        SPIx_Num = SPI0_Num;
800069d4:	fe042623          	sw	zero,-20(s0)
800069d8:	a811                	j	800069ec <SPI_DeInit+0x30>
    } else if (SPIx == SPI1) {
800069da:	fdc42703          	lw	a4,-36(s0)
800069de:	200607b7          	lui	a5,0x20060
800069e2:	00f71563          	bne	a4,a5,800069ec <SPI_DeInit+0x30>
        SPIx_Num = SPI1_Num;
800069e6:	4785                	li	a5,1
800069e8:	fef42623          	sw	a5,-20(s0)
    }

    RCU_SPIRstCmd(SPIx_Num, DISABLE);
800069ec:	4581                	li	a1,0
800069ee:	fec42503          	lw	a0,-20(s0)
800069f2:	3d75                	jal	800068ae <RCU_SPIRstCmd>
    RCU_SPIRstCmd(SPIx_Num, ENABLE);
800069f4:	4585                	li	a1,1
800069f6:	fec42503          	lw	a0,-20(s0)
800069fa:	3d55                	jal	800068ae <RCU_SPIRstCmd>
}
800069fc:	0001                	nop
800069fe:	50b2                	lw	ra,44(sp)
80006a00:	5422                	lw	s0,40(sp)
80006a02:	6145                	addi	sp,sp,48
80006a04:	8082                	ret

80006a06 <SPI_Init>:
  * @param   InitStruct  Указатель на структуру типа @ref SPI_Init_TypeDef,
  *                      которая содержит конфигурационную информацию.
  * @retval  Status  Статус результата инициализации
  */
void SPI_Init(SPI_TypeDef* SPIx, SPI_Init_TypeDef* InitStruct)
{
80006a06:	1101                	addi	sp,sp,-32
80006a08:	ce06                	sw	ra,28(sp)
80006a0a:	cc22                	sw	s0,24(sp)
80006a0c:	1000                	addi	s0,sp,32
80006a0e:	fea42623          	sw	a0,-20(s0)
80006a12:	feb42423          	sw	a1,-24(s0)
    assert_param(IS_SPI_PERIPH(SPIx));

    SPI_SCKDivConfig(SPIx, InitStruct->SCKDiv, InitStruct->SCKDivExtra);
80006a16:	fe842783          	lw	a5,-24(s0)
80006a1a:	47d8                	lw	a4,12(a5)
80006a1c:	fe842783          	lw	a5,-24(s0)
80006a20:	4b9c                	lw	a5,16(a5)
80006a22:	863e                	mv	a2,a5
80006a24:	85ba                	mv	a1,a4
80006a26:	fec42503          	lw	a0,-20(s0)
80006a2a:	3fb9                	jal	80006988 <SPI_SCKDivConfig>
    SPI_DataWidthConfig(SPIx, InitStruct->DataWidth);
80006a2c:	fe842783          	lw	a5,-24(s0)
80006a30:	479c                	lw	a5,8(a5)
80006a32:	85be                	mv	a1,a5
80006a34:	fec42503          	lw	a0,-20(s0)
80006a38:	3d55                	jal	800068ec <SPI_DataWidthConfig>
    SPI_FrameFormatConfig(SPIx, InitStruct->FrameFormat);
80006a3a:	fe842783          	lw	a5,-24(s0)
80006a3e:	43dc                	lw	a5,4(a5)
80006a40:	85be                	mv	a1,a5
80006a42:	fec42503          	lw	a0,-20(s0)
80006a46:	3731                	jal	80006952 <SPI_FrameFormatConfig>
    SPI_ModeConfig(SPIx, InitStruct->Mode);
80006a48:	fe842783          	lw	a5,-24(s0)
80006a4c:	439c                	lw	a5,0(a5)
80006a4e:	85be                	mv	a1,a5
80006a50:	fec42503          	lw	a0,-20(s0)
80006a54:	35e9                	jal	8000691e <SPI_ModeConfig>
}
80006a56:	0001                	nop
80006a58:	40f2                	lw	ra,28(sp)
80006a5a:	4462                	lw	s0,24(sp)
80006a5c:	6105                	addi	sp,sp,32
80006a5e:	8082                	ret

80006a60 <SPI_StructInit>:
  * @param   InitStruct  Указатель на структуру типа @ref SPI_Init_TypeDef,
  *                      которую необходимо проинициализировать.
  * @retval  void
  */
void SPI_StructInit(SPI_Init_TypeDef* InitStruct)
{
80006a60:	1101                	addi	sp,sp,-32
80006a62:	ce22                	sw	s0,28(sp)
80006a64:	1000                	addi	s0,sp,32
80006a66:	fea42623          	sw	a0,-20(s0)
    InitStruct->SCKDiv = 0;
80006a6a:	fec42783          	lw	a5,-20(s0)
80006a6e:	0007a623          	sw	zero,12(a5) # 2006000c <STACK_SIZE+0x2005f80c>
    InitStruct->SCKDivExtra = 2;
80006a72:	fec42783          	lw	a5,-20(s0)
80006a76:	4709                	li	a4,2
80006a78:	cb98                	sw	a4,16(a5)
    InitStruct->DataWidth = SPI_DataWidth_8;
80006a7a:	fec42783          	lw	a5,-20(s0)
80006a7e:	471d                	li	a4,7
80006a80:	c798                	sw	a4,8(a5)
    InitStruct->FrameFormat = SPI_FrameFormat_SPI;
80006a82:	fec42783          	lw	a5,-20(s0)
80006a86:	0007a223          	sw	zero,4(a5)
    InitStruct->Mode = SPI_Mode_Master;
80006a8a:	fec42783          	lw	a5,-20(s0)
80006a8e:	0007a023          	sw	zero,0(a5)
}
80006a92:	0001                	nop
80006a94:	4472                	lw	s0,28(sp)
80006a96:	6105                	addi	sp,sp,32
80006a98:	8082                	ret

80006a9a <RCU_APBClkCmd>:
{
80006a9a:	1101                	addi	sp,sp,-32
80006a9c:	ce22                	sw	s0,28(sp)
80006a9e:	1000                	addi	s0,sp,32
80006aa0:	fea42623          	sw	a0,-20(s0)
80006aa4:	feb42423          	sw	a1,-24(s0)
    MODIFY_REG(RCU->CGCFGAPB, APBClk, State ? APBClk : 0);
80006aa8:	3000e7b7          	lui	a5,0x3000e
80006aac:	4798                	lw	a4,8(a5)
80006aae:	fec42783          	lw	a5,-20(s0)
80006ab2:	fff7c793          	not	a5,a5
80006ab6:	00f776b3          	and	a3,a4,a5
80006aba:	fe842783          	lw	a5,-24(s0)
80006abe:	c781                	beqz	a5,80006ac6 <RCU_APBClkCmd+0x2c>
80006ac0:	fec42783          	lw	a5,-20(s0)
80006ac4:	a011                	j	80006ac8 <RCU_APBClkCmd+0x2e>
80006ac6:	4781                	li	a5,0
80006ac8:	3000e737          	lui	a4,0x3000e
80006acc:	8fd5                	or	a5,a5,a3
80006ace:	c71c                	sw	a5,8(a4)
}
80006ad0:	0001                	nop
80006ad2:	4472                	lw	s0,28(sp)
80006ad4:	6105                	addi	sp,sp,32
80006ad6:	8082                	ret

80006ad8 <RCU_APBRstCmd>:
{
80006ad8:	1101                	addi	sp,sp,-32
80006ada:	ce22                	sw	s0,28(sp)
80006adc:	1000                	addi	s0,sp,32
80006ade:	fea42623          	sw	a0,-20(s0)
80006ae2:	feb42423          	sw	a1,-24(s0)
    MODIFY_REG(RCU->RSTDISAPB, APBRst, State ? APBRst : 0);
80006ae6:	3000e7b7          	lui	a5,0x3000e
80006aea:	4f98                	lw	a4,24(a5)
80006aec:	fec42783          	lw	a5,-20(s0)
80006af0:	fff7c793          	not	a5,a5
80006af4:	00f776b3          	and	a3,a4,a5
80006af8:	fe842783          	lw	a5,-24(s0)
80006afc:	c781                	beqz	a5,80006b04 <RCU_APBRstCmd+0x2c>
80006afe:	fec42783          	lw	a5,-20(s0)
80006b02:	a011                	j	80006b06 <RCU_APBRstCmd+0x2e>
80006b04:	4781                	li	a5,0
80006b06:	3000e737          	lui	a4,0x3000e
80006b0a:	8fd5                	or	a5,a5,a3
80006b0c:	cf1c                	sw	a5,24(a4)
}
80006b0e:	0001                	nop
80006b10:	4472                	lw	s0,28(sp)
80006b12:	6105                	addi	sp,sp,32
80006b14:	8082                	ret

80006b16 <TRNG_StartCmd>:
  * @brief   Запуск ИГСЧ
  * @param   state Состояние запуска ИГСЧ
  * @retval  void
  */
__STATIC_INLINE void TRNG_StartCmd(FunctionalState state)
{
80006b16:	1101                	addi	sp,sp,-32
80006b18:	ce22                	sw	s0,28(sp)
80006b1a:	1000                	addi	s0,sp,32
80006b1c:	fea42623          	sw	a0,-20(s0)
	assert_param(IS_FUNCTIONAL_STATE(state));

	MODIFY_REG(TRNG->CR, TRNG_CR_START_Msk, state << TRNG_CR_START_Pos);
80006b20:	300047b7          	lui	a5,0x30004
80006b24:	439c                	lw	a5,0(a5)
80006b26:	ffe7f693          	andi	a3,a5,-2
80006b2a:	300047b7          	lui	a5,0x30004
80006b2e:	fec42703          	lw	a4,-20(s0)
80006b32:	8f55                	or	a4,a4,a3
80006b34:	c398                	sw	a4,0(a5)
}
80006b36:	0001                	nop
80006b38:	4472                	lw	s0,28(sp)
80006b3a:	6105                	addi	sp,sp,32
80006b3c:	8082                	ret

80006b3e <TRNG_PseudorandomGeneratorCmd>:
  * @brief   Выбор между ИГСЧ и псевдослучайным генератором
  * @param   state Выбор режима 0 - ИГСЧ асинхронный независимый генератор, 1 - псевдослучайный генератор
  * @retval  void
  */
__STATIC_INLINE void TRNG_PseudorandomGeneratorCmd(FunctionalState state)
{
80006b3e:	1101                	addi	sp,sp,-32
80006b40:	ce22                	sw	s0,28(sp)
80006b42:	1000                	addi	s0,sp,32
80006b44:	fea42623          	sw	a0,-20(s0)
	assert_param(IS_FUNCTIONAL_STATE(state));

	MODIFY_REG(TRNG->CR, TRNG_CR_LFSR_Msk, state << TRNG_CR_LFSR_Pos);
80006b48:	300047b7          	lui	a5,0x30004
80006b4c:	439c                	lw	a5,0(a5)
80006b4e:	ffd7f693          	andi	a3,a5,-3
80006b52:	fec42783          	lw	a5,-20(s0)
80006b56:	00179713          	slli	a4,a5,0x1
80006b5a:	300047b7          	lui	a5,0x30004
80006b5e:	8f55                	or	a4,a4,a3
80006b60:	c398                	sw	a4,0(a5)
}
80006b62:	0001                	nop
80006b64:	4472                	lw	s0,28(sp)
80006b66:	6105                	addi	sp,sp,32
80006b68:	8082                	ret

80006b6a <TRNG_BypassHandlerCmd>:
  * @brief   Пропуск функции обработки
  * @param   state Флаг использования функции обработки 0 - использование функции обработки, 1 - пропуск функции обработки
  * @retval  void
  */
__STATIC_INLINE void TRNG_BypassHandlerCmd(FunctionalState state)
{
80006b6a:	1101                	addi	sp,sp,-32
80006b6c:	ce22                	sw	s0,28(sp)
80006b6e:	1000                	addi	s0,sp,32
80006b70:	fea42623          	sw	a0,-20(s0)
	assert_param(IS_FUNCTIONAL_STATE(state));

	MODIFY_REG(TRNG->CR, TRNG_CR_CONDBYPASS_Msk, state << TRNG_CR_CONDBYPASS_Pos);
80006b74:	300047b7          	lui	a5,0x30004
80006b78:	439c                	lw	a5,0(a5)
80006b7a:	ff77f693          	andi	a3,a5,-9
80006b7e:	fec42783          	lw	a5,-20(s0)
80006b82:	00379713          	slli	a4,a5,0x3
80006b86:	300047b7          	lui	a5,0x30004
80006b8a:	8f55                	or	a4,a4,a3
80006b8c:	c398                	sw	a4,0(a5)
}
80006b8e:	0001                	nop
80006b90:	4472                	lw	s0,28(sp)
80006b92:	6105                	addi	sp,sp,32
80006b94:	8082                	ret

80006b96 <TRNG_SwResetCmd>:
  * 		 Этот бит не очищается автоматически!
  * @param   state Флаг включения сброса
  * @retval  void
  */
__STATIC_INLINE void TRNG_SwResetCmd(FunctionalState state)
{
80006b96:	1101                	addi	sp,sp,-32
80006b98:	ce22                	sw	s0,28(sp)
80006b9a:	1000                	addi	s0,sp,32
80006b9c:	fea42623          	sw	a0,-20(s0)
	assert_param(IS_FUNCTIONAL_STATE(state));

	MODIFY_REG(TRNG->CR, TRNG_CR_SOFTRST_Msk, state << TRNG_CR_SOFTRST_Pos);
80006ba0:	300047b7          	lui	a5,0x30004
80006ba4:	439c                	lw	a5,0(a5)
80006ba6:	eff7f693          	andi	a3,a5,-257
80006baa:	fec42783          	lw	a5,-20(s0)
80006bae:	00879713          	slli	a4,a5,0x8
80006bb2:	300047b7          	lui	a5,0x30004
80006bb6:	8f55                	or	a4,a4,a3
80006bb8:	c398                	sw	a4,0(a5)
}
80006bba:	0001                	nop
80006bbc:	4472                	lw	s0,28(sp)
80006bbe:	6105                	addi	sp,sp,32
80006bc0:	8082                	ret

80006bc2 <TRNG_ForceGeneratorCmd>:
  * @brief   Принудительный запуск генераторов, когда FIFO заполнен
  * @param   state Флаг принудительного запуска генераторов
  * @retval  void
  */
__STATIC_INLINE void TRNG_ForceGeneratorCmd(FunctionalState state)
{
80006bc2:	1101                	addi	sp,sp,-32
80006bc4:	ce22                	sw	s0,28(sp)
80006bc6:	1000                	addi	s0,sp,32
80006bc8:	fea42623          	sw	a0,-20(s0)
	assert_param(IS_FUNCTIONAL_STATE(state));

	MODIFY_REG(TRNG->CR, TRNG_CR_FORCEROS_Msk, state << TRNG_CR_FORCEROS_Pos);
80006bcc:	300047b7          	lui	a5,0x30004
80006bd0:	4398                	lw	a4,0(a5)
80006bd2:	77fd                	lui	a5,0xfffff
80006bd4:	7ff78793          	addi	a5,a5,2047 # fffff7ff <__data_source_start+0x7fff7eb7>
80006bd8:	00f776b3          	and	a3,a4,a5
80006bdc:	fec42783          	lw	a5,-20(s0)
80006be0:	00b79713          	slli	a4,a5,0xb
80006be4:	300047b7          	lui	a5,0x30004
80006be8:	8f55                	or	a4,a4,a3
80006bea:	c398                	sw	a4,0(a5)
}
80006bec:	0001                	nop
80006bee:	4472                	lw	s0,28(sp)
80006bf0:	6105                	addi	sp,sp,32
80006bf2:	8082                	ret

80006bf4 <TRNG_SetBlockAmountForHandler>:
  * @param   countBlock Количество блоков для функции обработки
  * 		 Нулевое значение не допускается
  * @retval  void
  */
__STATIC_INLINE void TRNG_SetBlockAmountForHandler(uint32_t countBlock)
{
80006bf4:	1101                	addi	sp,sp,-32
80006bf6:	ce22                	sw	s0,28(sp)
80006bf8:	1000                	addi	s0,sp,32
80006bfa:	fea42623          	sw	a0,-20(s0)
	assert_param(IS_TRNG_COUNTBLOCK(countBlock));

	MODIFY_REG(TRNG->CR, TRNG_CR_COUNTBLOCK_Msk, countBlock << TRNG_CR_COUNTBLOCK_Pos);
80006bfe:	300047b7          	lui	a5,0x30004
80006c02:	4398                	lw	a4,0(a5)
80006c04:	fff107b7          	lui	a5,0xfff10
80006c08:	17fd                	addi	a5,a5,-1 # fff0ffff <__data_source_start+0x7ff086b7>
80006c0a:	00f776b3          	and	a3,a4,a5
80006c0e:	fec42783          	lw	a5,-20(s0)
80006c12:	01079713          	slli	a4,a5,0x10
80006c16:	300047b7          	lui	a5,0x30004
80006c1a:	8f55                	or	a4,a4,a3
80006c1c:	c398                	sw	a4,0(a5)
}
80006c1e:	0001                	nop
80006c20:	4472                	lw	s0,28(sp)
80006c22:	6105                	addi	sp,sp,32
80006c24:	8082                	ret

80006c26 <TRNG_FIFOfillOnStartCmd>:
  * @brief   Разрешение записи выборок в FIFO во время запуска
  * @param   state Флаг разрешения записи
  * @retval  void
  */
__STATIC_INLINE void TRNG_FIFOfillOnStartCmd(FunctionalState state)
{
80006c26:	1101                	addi	sp,sp,-32
80006c28:	ce22                	sw	s0,28(sp)
80006c2a:	1000                	addi	s0,sp,32
80006c2c:	fea42623          	sw	a0,-20(s0)
	assert_param(IS_FUNCTIONAL_STATE(state));

	MODIFY_REG(TRNG->CR, TRNG_CR_FIFOFILLST_Msk, state << TRNG_CR_FIFOFILLST_Pos);
80006c30:	300047b7          	lui	a5,0x30004
80006c34:	4398                	lw	a4,0(a5)
80006c36:	fff007b7          	lui	a5,0xfff00
80006c3a:	17fd                	addi	a5,a5,-1 # ffefffff <__data_source_start+0x7fef86b7>
80006c3c:	00f776b3          	and	a3,a4,a5
80006c40:	fec42783          	lw	a5,-20(s0)
80006c44:	01479713          	slli	a4,a5,0x14
80006c48:	300047b7          	lui	a5,0x30004
80006c4c:	8f55                	or	a4,a4,a3
80006c4e:	c398                	sw	a4,0(a5)
}
80006c50:	0001                	nop
80006c52:	4472                	lw	s0,28(sp)
80006c54:	6105                	addi	sp,sp,32
80006c56:	8082                	ret

80006c58 <TRNG_BlendMethodConfig>:
  * @brief   Выбор метода смешивания
  * @param   method метод смешнивания
  * @retval  void
  */
__STATIC_INLINE void TRNG_BlendMethodConfig(TRNG_BLENDMETHOD_TypeDef method)
{
80006c58:	1101                	addi	sp,sp,-32
80006c5a:	ce22                	sw	s0,28(sp)
80006c5c:	1000                	addi	s0,sp,32
80006c5e:	fea42623          	sw	a0,-20(s0)
	assert_param(IS_TRNG_BLENDMETHOD(method));

	MODIFY_REG(TRNG->CR, TRNG_CR_BLENDMETHOD_Msk, method << TRNG_CR_BLENDMETHOD_Pos);
80006c62:	300047b7          	lui	a5,0x30004
80006c66:	4398                	lw	a4,0(a5)
80006c68:	400007b7          	lui	a5,0x40000
80006c6c:	17fd                	addi	a5,a5,-1 # 3fffffff <STACK_SIZE+0x3ffff7ff>
80006c6e:	00f776b3          	and	a3,a4,a5
80006c72:	fec42783          	lw	a5,-20(s0)
80006c76:	01e79713          	slli	a4,a5,0x1e
80006c7a:	300047b7          	lui	a5,0x30004
80006c7e:	8f55                	or	a4,a4,a3
80006c80:	c398                	sw	a4,0(a5)
}
80006c82:	0001                	nop
80006c84:	4472                	lw	s0,28(sp)
80006c86:	6105                	addi	sp,sp,32
80006c88:	8082                	ret

80006c8a <TRNG_GetFIFOlength>:
/**
  * @brief   Получение количества доступных 32-битных слов в буфере FIFO
  * @retval  length количество доступных 32-битных слов в буфере FIFO
  */
__STATIC_INLINE uint32_t TRNG_GetFIFOlength()
{
80006c8a:	1141                	addi	sp,sp,-16
80006c8c:	c622                	sw	s0,12(sp)
80006c8e:	0800                	addi	s0,sp,16
	return (uint32_t) READ_REG(TRNG->FIFOLEV);
80006c90:	300047b7          	lui	a5,0x30004
80006c94:	43dc                	lw	a5,4(a5)
}
80006c96:	853e                	mv	a0,a5
80006c98:	4432                	lw	s0,12(sp)
80006c9a:	0141                	addi	sp,sp,16
80006c9c:	8082                	ret

80006c9e <TRNG_GetFIFOValue>:
/**
  * @brief   Получение значение в FIFO буфере
  * @retval  Val значение ячейки в FIFO
  */
__STATIC_INLINE uint32_t TRNG_GetFIFOValue()
{
80006c9e:	1141                	addi	sp,sp,-16
80006ca0:	c622                	sw	s0,12(sp)
80006ca2:	0800                	addi	s0,sp,16
	return (uint32_t) READ_REG(TRNG->FIFO[0].FIFO);
80006ca4:	300047b7          	lui	a5,0x30004
80006ca8:	0807a783          	lw	a5,128(a5) # 30004080 <STACK_SIZE+0x30003880>
}
80006cac:	853e                	mv	a0,a5
80006cae:	4432                	lw	s0,12(sp)
80006cb0:	0141                	addi	sp,sp,16
80006cb2:	8082                	ret

80006cb4 <TRNG_DeInit>:
/**
  * @brief   Устанавливает все регистры TRNG значениями по умолчанию
  * @retval  void
  */
void TRNG_DeInit()
{
80006cb4:	1141                	addi	sp,sp,-16
80006cb6:	c606                	sw	ra,12(sp)
80006cb8:	c422                	sw	s0,8(sp)
80006cba:	0800                	addi	s0,sp,16
	TRNG_SwResetCmd(ENABLE);
80006cbc:	4505                	li	a0,1
80006cbe:	3de1                	jal	80006b96 <TRNG_SwResetCmd>

    RCU_APBRstCmd(RCU_APBRst_TRNG, DISABLE);
80006cc0:	4581                	li	a1,0
80006cc2:	4541                	li	a0,16
80006cc4:	3d11                	jal	80006ad8 <RCU_APBRstCmd>
    RCU_APBRstCmd(RCU_APBRst_TRNG, ENABLE);
80006cc6:	4585                	li	a1,1
80006cc8:	4541                	li	a0,16
80006cca:	3539                	jal	80006ad8 <RCU_APBRstCmd>

    TRNG_SwResetCmd(DISABLE);
80006ccc:	4501                	li	a0,0
80006cce:	35e1                	jal	80006b96 <TRNG_SwResetCmd>
}
80006cd0:	0001                	nop
80006cd2:	40b2                	lw	ra,12(sp)
80006cd4:	4422                	lw	s0,8(sp)
80006cd6:	0141                	addi	sp,sp,16
80006cd8:	8082                	ret

80006cda <TRNG_Init>:
  * @param   InitStruct  Указатель на структуру типа @ref TRNG_Init_TypeDef,
  *                      которая содержит конфигурационную информацию
  * @retval  void
  */
void TRNG_Init(TRNG_Init_TypeDef* InitStruct)
{
80006cda:	1101                	addi	sp,sp,-32
80006cdc:	ce06                	sw	ra,28(sp)
80006cde:	cc22                	sw	s0,24(sp)
80006ce0:	1000                	addi	s0,sp,32
80006ce2:	fea42623          	sw	a0,-20(s0)
	TRNG_PseudorandomGeneratorCmd(InitStruct->PseudoRandomEnable);
80006ce6:	fec42783          	lw	a5,-20(s0)
80006cea:	439c                	lw	a5,0(a5)
80006cec:	853e                	mv	a0,a5
80006cee:	3d81                	jal	80006b3e <TRNG_PseudorandomGeneratorCmd>
//	TRNG_TestSourceCmd(InitStruct->TestSourceEnable);
	TRNG_BypassHandlerCmd(InitStruct->BypassHandler);
80006cf0:	fec42783          	lw	a5,-20(s0)
80006cf4:	43dc                	lw	a5,4(a5)
80006cf6:	853e                	mv	a0,a5
80006cf8:	3d8d                	jal	80006b6a <TRNG_BypassHandlerCmd>
//	TRNG_ITTestFailCmd(InitStruct->ITOnAnyTestFail);
//	TRNG_ITFIFOfullCmd(InitStruct->ITOnFIFOfull);
	TRNG_ForceGeneratorCmd(InitStruct->ForceGenerator);
80006cfa:	fec42783          	lw	a5,-20(s0)
80006cfe:	479c                	lw	a5,8(a5)
80006d00:	853e                	mv	a0,a5
80006d02:	35c1                	jal	80006bc2 <TRNG_ForceGeneratorCmd>
//	TRNG_IgnoreHardwareTestsCmd(InitStruct->IgnoreHardwareTests);
	TRNG_SetBlockAmountForHandler(InitStruct->AmountBlocksForHandler);
80006d04:	fec42783          	lw	a5,-20(s0)
80006d08:	47dc                	lw	a5,12(a5)
80006d0a:	853e                	mv	a0,a5
80006d0c:	35e5                	jal	80006bf4 <TRNG_SetBlockAmountForHandler>
	TRNG_FIFOfillOnStartCmd(InitStruct->FIFOfillOnStart);
80006d0e:	fec42783          	lw	a5,-20(s0)
80006d12:	4b9c                	lw	a5,16(a5)
80006d14:	853e                	mv	a0,a5
80006d16:	3f01                	jal	80006c26 <TRNG_FIFOfillOnStartCmd>
//	TRNG_RepeatTestDisableCmd(InitStruct->RepeatTestDisable);
//	TRNG_ProportionTestDisableCmd(InitStruct->ProportionTestDisable);
//	TRNG_AutoCorrelationTestDisableConfig(InitStruct->AutocorrelationTestDisable);
//	TRNG_CorrelationTestDisableConfig(InitStruct->CorrelationTestDisable);
	TRNG_BlendMethodConfig(InitStruct->BlendMethod);
80006d18:	fec42783          	lw	a5,-20(s0)
80006d1c:	4bdc                	lw	a5,20(a5)
80006d1e:	853e                	mv	a0,a5
80006d20:	3f25                	jal	80006c58 <TRNG_BlendMethodConfig>
	TRNG_SwResetCmd(DISABLE);
80006d22:	4501                	li	a0,0
80006d24:	3d8d                	jal	80006b96 <TRNG_SwResetCmd>
}
80006d26:	0001                	nop
80006d28:	40f2                	lw	ra,28(sp)
80006d2a:	4462                	lw	s0,24(sp)
80006d2c:	6105                	addi	sp,sp,32
80006d2e:	8082                	ret

80006d30 <TRNG_StructInit>:
  * @param   InitStruct  Указатель на структуру типа @ref TRNG_Init_TypeDef,
  *                      которую необходимо проинициализировать
  * @retval  void
  */
void TRNG_StructInit(TRNG_Init_TypeDef* InitStruct)
{
80006d30:	1101                	addi	sp,sp,-32
80006d32:	ce22                	sw	s0,28(sp)
80006d34:	1000                	addi	s0,sp,32
80006d36:	fea42623          	sw	a0,-20(s0)
	InitStruct->PseudoRandomEnable = DISABLE;
80006d3a:	fec42783          	lw	a5,-20(s0)
80006d3e:	0007a023          	sw	zero,0(a5)
//	InitStruct->TestSourceEnable = DISABLE;
	InitStruct->BypassHandler = DISABLE;
80006d42:	fec42783          	lw	a5,-20(s0)
80006d46:	0007a223          	sw	zero,4(a5)
//	InitStruct->ITOnAnyTestFail = DISABLE;
//	InitStruct->ITOnFIFOfull = DISABLE;
	InitStruct->ForceGenerator = DISABLE;
80006d4a:	fec42783          	lw	a5,-20(s0)
80006d4e:	0007a423          	sw	zero,8(a5)
//	InitStruct->IgnoreHardwareTests = DISABLE;
	InitStruct->AmountBlocksForHandler = 0x0;
80006d52:	fec42783          	lw	a5,-20(s0)
80006d56:	0007a623          	sw	zero,12(a5)
	InitStruct->FIFOfillOnStart = DISABLE;
80006d5a:	fec42783          	lw	a5,-20(s0)
80006d5e:	0007a823          	sw	zero,16(a5)
//	InitStruct->RepeatTestDisable = DISABLE;
//	InitStruct->ProportionTestDisable = DISABLE;
//	InitStruct->AutocorrelationTestDisable = TRNG_AUTOCORRELATIONDISABLE_Nothing;
//	InitStruct->CorrelationTestDisable = TRNG_CORRELATIONDISABLE_Nothing;
	InitStruct->BlendMethod = TRNG_BLENDMETHOD_Concatenation;
80006d62:	fec42783          	lw	a5,-20(s0)
80006d66:	0007aa23          	sw	zero,20(a5)
	InitStruct->WarmPeriod = 0x00000200;
80006d6a:	fec42783          	lw	a5,-20(s0)
80006d6e:	20000713          	li	a4,512
80006d72:	cf98                	sw	a4,24(a5)
	InitStruct->CoolPeriod = 0x00000000;
80006d74:	fec42783          	lw	a5,-20(s0)
80006d78:	0007ae23          	sw	zero,28(a5)
	InitStruct->SamplePeriod = 0x0000001E;
80006d7c:	fec42783          	lw	a5,-20(s0)
80006d80:	4779                	li	a4,30
80006d82:	d398                	sw	a4,32(a5)
}
80006d84:	0001                	nop
80006d86:	4472                	lw	s0,28(sp)
80006d88:	6105                	addi	sp,sp,32
80006d8a:	8082                	ret

80006d8c <TRNG_GenerateKey>:
  * @param   key Ссылка на память, куда будет сохранен ключ размерности keyLength
  * @param   keyLength Размерность ключа в 32-битных словах
  * @retval  void
  */
void TRNG_GenerateKey(uint32_t *key, uint32_t keyLength)
{
80006d8c:	715d                	addi	sp,sp,-80
80006d8e:	c686                	sw	ra,76(sp)
80006d90:	c4a2                	sw	s0,72(sp)
80006d92:	c2a6                	sw	s1,68(sp)
80006d94:	0880                	addi	s0,sp,80
80006d96:	faa42e23          	sw	a0,-68(s0)
80006d9a:	fab42c23          	sw	a1,-72(s0)
	TRNG_DeInit();
80006d9e:	3f19                	jal	80006cb4 <TRNG_DeInit>
	RCU_APBClkCmd(RCU_APBClk_TRNG, ENABLE);
80006da0:	4585                	li	a1,1
80006da2:	4541                	li	a0,16
80006da4:	39dd                	jal	80006a9a <RCU_APBClkCmd>
	RCU_APBRstCmd(RCU_APBRst_TRNG, ENABLE);
80006da6:	4585                	li	a1,1
80006da8:	4541                	li	a0,16
80006daa:	333d                	jal	80006ad8 <RCU_APBRstCmd>
	TRNG_SwResetCmd(ENABLE);
80006dac:	4505                	li	a0,1
80006dae:	33e5                	jal	80006b96 <TRNG_SwResetCmd>
	TRNG_Init_TypeDef trngInit;
	TRNG_StructInit(&trngInit);
80006db0:	fcc40793          	addi	a5,s0,-52
80006db4:	853e                	mv	a0,a5
80006db6:	3fad                	jal	80006d30 <TRNG_StructInit>

	// Start filling FIFO with noise source, with conditioning, all start-up tests and wait until interrupt triggers
	trngInit.WarmPeriod       = 0x00000200; //
80006db8:	20000793          	li	a5,512
80006dbc:	fef42223          	sw	a5,-28(s0)
	trngInit.SamplePeriod     = 0x00000020;
80006dc0:	02000793          	li	a5,32
80006dc4:	fef42623          	sw	a5,-20(s0)
	trngInit.CoolPeriod       = 0x00000000;
80006dc8:	fe042423          	sw	zero,-24(s0)
	trngInit.AmountBlocksForHandler = 0x4;
80006dcc:	4791                	li	a5,4
80006dce:	fcf42c23          	sw	a5,-40(s0)
	trngInit.BypassHandler    = DISABLE;
80006dd2:	fc042823          	sw	zero,-48(s0)

	TRNG_Init(&trngInit);
80006dd6:	fcc40793          	addi	a5,s0,-52
80006dda:	853e                	mv	a0,a5
80006ddc:	3dfd                	jal	80006cda <TRNG_Init>

	TRNG_StartCmd(ENABLE);
80006dde:	4505                	li	a0,1
80006de0:	3b1d                	jal	80006b16 <TRNG_StartCmd>

	while (TRNG_GetFIFOlength() != keyLength) {}
80006de2:	0001                	nop
80006de4:	355d                	jal	80006c8a <TRNG_GetFIFOlength>
80006de6:	872a                	mv	a4,a0
80006de8:	fb842783          	lw	a5,-72(s0)
80006dec:	fee79ce3          	bne	a5,a4,80006de4 <TRNG_GenerateKey+0x58>

	TRNG_StartCmd(DISABLE);
80006df0:	4501                	li	a0,0
80006df2:	3315                	jal	80006b16 <TRNG_StartCmd>

	while (keyLength--)
80006df4:	a811                	j	80006e08 <TRNG_GenerateKey+0x7c>
	{
		*key++ = TRNG_GetFIFOValue();
80006df6:	fbc42483          	lw	s1,-68(s0)
80006dfa:	00448793          	addi	a5,s1,4
80006dfe:	faf42e23          	sw	a5,-68(s0)
80006e02:	3d71                	jal	80006c9e <TRNG_GetFIFOValue>
80006e04:	87aa                	mv	a5,a0
80006e06:	c09c                	sw	a5,0(s1)
	while (keyLength--)
80006e08:	fb842783          	lw	a5,-72(s0)
80006e0c:	fff78713          	addi	a4,a5,-1
80006e10:	fae42c23          	sw	a4,-72(s0)
80006e14:	f3ed                	bnez	a5,80006df6 <TRNG_GenerateKey+0x6a>
	}

	TRNG_SwResetCmd(ENABLE);
80006e16:	4505                	li	a0,1
80006e18:	3bbd                	jal	80006b96 <TRNG_SwResetCmd>
}
80006e1a:	0001                	nop
80006e1c:	40b6                	lw	ra,76(sp)
80006e1e:	4426                	lw	s0,72(sp)
80006e20:	4496                	lw	s1,68(sp)
80006e22:	6161                	addi	sp,sp,80
80006e24:	8082                	ret

80006e26 <RCU_UARTRstCmd>:
{
80006e26:	1101                	addi	sp,sp,-32
80006e28:	ce22                	sw	s0,28(sp)
80006e2a:	1000                	addi	s0,sp,32
80006e2c:	fea42623          	sw	a0,-20(s0)
80006e30:	feb42423          	sw	a1,-24(s0)
    WRITE_REG(RCU->UARTCLKCFG[UARTx_Num].UARTCLKCFG_bit.RSTDIS, State);
80006e34:	3000e6b7          	lui	a3,0x3000e
80006e38:	fe842783          	lw	a5,-24(s0)
80006e3c:	8b85                	andi	a5,a5,1
80006e3e:	0ff7f713          	zext.b	a4,a5
80006e42:	fec42783          	lw	a5,-20(s0)
80006e46:	07f1                	addi	a5,a5,28
80006e48:	078a                	slli	a5,a5,0x2
80006e4a:	97b6                	add	a5,a5,a3
80006e4c:	8b05                	andi	a4,a4,1
80006e4e:	0722                	slli	a4,a4,0x8
80006e50:	4394                	lw	a3,0(a5)
80006e52:	eff6f693          	andi	a3,a3,-257
80006e56:	8f55                	or	a4,a4,a3
80006e58:	c398                	sw	a4,0(a5)
}
80006e5a:	0001                	nop
80006e5c:	4472                	lw	s0,28(sp)
80006e5e:	6105                	addi	sp,sp,32
80006e60:	8082                	ret

80006e62 <UART_DataWidthConfig>:
  * @param   UARTx  Выбор модуля UART, где x=0|1|2|3|4
  * @param   DataWidth  Значение разрядности слова
  * @retval  void
  */
__STATIC_INLINE void UART_DataWidthConfig(UART_TypeDef* UARTx, UART_DataWidth_TypeDef DataWidth)
{
80006e62:	1101                	addi	sp,sp,-32
80006e64:	ce22                	sw	s0,28(sp)
80006e66:	1000                	addi	s0,sp,32
80006e68:	fea42623          	sw	a0,-20(s0)
80006e6c:	feb42423          	sw	a1,-24(s0)
    assert_param(IS_UART_PERIPH(UARTx));
    assert_param(IS_UART_DATA_WIDTH(DataWidth));

    WRITE_REG(UARTx->LCRH_bit.WLEN, DataWidth);
80006e70:	fe842783          	lw	a5,-24(s0)
80006e74:	8b8d                	andi	a5,a5,3
80006e76:	0ff7f713          	zext.b	a4,a5
80006e7a:	fec42783          	lw	a5,-20(s0)
80006e7e:	8b0d                	andi	a4,a4,3
80006e80:	0716                	slli	a4,a4,0x5
80006e82:	02c7c683          	lbu	a3,44(a5)
80006e86:	f9f6f693          	andi	a3,a3,-97
80006e8a:	8f55                	or	a4,a4,a3
80006e8c:	02e78623          	sb	a4,44(a5)
}
80006e90:	0001                	nop
80006e92:	4472                	lw	s0,28(sp)
80006e94:	6105                	addi	sp,sp,32
80006e96:	8082                	ret

80006e98 <UART_StopBitConfig>:
  * @param   UARTx  Выбор модуля UART, где x=0|1|2|3|4
  * @param   StopBit  Количество стоп-бит
  * @retval  void
  */
__STATIC_INLINE void UART_StopBitConfig(UART_TypeDef* UARTx, UART_StopBit_TypeDef StopBit)
{
80006e98:	1101                	addi	sp,sp,-32
80006e9a:	ce22                	sw	s0,28(sp)
80006e9c:	1000                	addi	s0,sp,32
80006e9e:	fea42623          	sw	a0,-20(s0)
80006ea2:	feb42423          	sw	a1,-24(s0)
    assert_param(IS_UART_PERIPH(UARTx));
    assert_param(IS_UART_STOP_BIT(StopBit));

    WRITE_REG(UARTx->LCRH_bit.STP2, StopBit);
80006ea6:	fe842783          	lw	a5,-24(s0)
80006eaa:	8b85                	andi	a5,a5,1
80006eac:	0ff7f713          	zext.b	a4,a5
80006eb0:	fec42783          	lw	a5,-20(s0)
80006eb4:	8b05                	andi	a4,a4,1
80006eb6:	070e                	slli	a4,a4,0x3
80006eb8:	02c7c683          	lbu	a3,44(a5)
80006ebc:	9add                	andi	a3,a3,-9
80006ebe:	8f55                	or	a4,a4,a3
80006ec0:	02e78623          	sb	a4,44(a5)
}
80006ec4:	0001                	nop
80006ec6:	4472                	lw	s0,28(sp)
80006ec8:	6105                	addi	sp,sp,32
80006eca:	8082                	ret

80006ecc <UART_ParityBitConfig>:
  * @param   UARTx  Выбор модуля UART, где x=0|1|2|3|4
  * @param   ParityBit  Режим
  * @retval  void
  */
__STATIC_INLINE void UART_ParityBitConfig(UART_TypeDef* UARTx, UART_ParityBit_TypeDef ParityBit)
{
80006ecc:	1101                	addi	sp,sp,-32
80006ece:	ce22                	sw	s0,28(sp)
80006ed0:	1000                	addi	s0,sp,32
80006ed2:	fea42623          	sw	a0,-20(s0)
80006ed6:	feb42423          	sw	a1,-24(s0)
    assert_param(IS_UART_PERIPH(UARTx));
    assert_param(IS_UART_PARITY_BIT(ParityBit));

    MODIFY_REG(UARTx->LCRH, UART_LCRH_PEN_Msk | UART_LCRH_SPS_Msk | UART_LCRH_EPS_Msk, ParityBit);
80006eda:	fec42783          	lw	a5,-20(s0)
80006ede:	57dc                	lw	a5,44(a5)
80006ee0:	f797f713          	andi	a4,a5,-135
80006ee4:	fe842783          	lw	a5,-24(s0)
80006ee8:	8f5d                	or	a4,a4,a5
80006eea:	fec42783          	lw	a5,-20(s0)
80006eee:	d7d8                	sw	a4,44(a5)
}
80006ef0:	0001                	nop
80006ef2:	4472                	lw	s0,28(sp)
80006ef4:	6105                	addi	sp,sp,32
80006ef6:	8082                	ret

80006ef8 <UART_BaudDivConfig>:
  *                   Параметр принимает любое значение из диапазона 0-63. В случае, если IntDiv
  *                   равен 65535, значение FracDiv может быть только 0.
  * @retval  void
  */
__STATIC_INLINE void UART_BaudDivConfig(UART_TypeDef* UARTx, uint32_t IntDiv, uint32_t FracDiv)
{
80006ef8:	1101                	addi	sp,sp,-32
80006efa:	ce22                	sw	s0,28(sp)
80006efc:	1000                	addi	s0,sp,32
80006efe:	fea42623          	sw	a0,-20(s0)
80006f02:	feb42423          	sw	a1,-24(s0)
80006f06:	fec42223          	sw	a2,-28(s0)
    assert_param(IS_UART_PERIPH(UARTx));
    assert_param(IS_UART_INT_DIV(IntDiv));
    assert_param(IS_UART_FRAC_DIV(FracDiv));

    WRITE_REG(UARTx->IBRD, IntDiv);
80006f0a:	fec42783          	lw	a5,-20(s0)
80006f0e:	fe842703          	lw	a4,-24(s0)
80006f12:	d3d8                	sw	a4,36(a5)
    WRITE_REG(UARTx->FBRD, FracDiv);
80006f14:	fec42783          	lw	a5,-20(s0)
80006f18:	fe442703          	lw	a4,-28(s0)
80006f1c:	d798                	sw	a4,40(a5)
}
80006f1e:	0001                	nop
80006f20:	4472                	lw	s0,28(sp)
80006f22:	6105                	addi	sp,sp,32
80006f24:	8082                	ret

80006f26 <UART_FIFOCmd>:
  * @param   UARTx  Выбор модуля UART, где x=0|1|2|3|4
  * @param   State  Выбор состояния
  * @retval  void
  */
__STATIC_INLINE void UART_FIFOCmd(UART_TypeDef* UARTx, FunctionalState State)
{
80006f26:	1101                	addi	sp,sp,-32
80006f28:	ce22                	sw	s0,28(sp)
80006f2a:	1000                	addi	s0,sp,32
80006f2c:	fea42623          	sw	a0,-20(s0)
80006f30:	feb42423          	sw	a1,-24(s0)
    assert_param(IS_UART_PERIPH(UARTx));
    assert_param(IS_FUNCTIONAL_STATE(State));

    WRITE_REG(UARTx->LCRH_bit.FEN, State);
80006f34:	fe842783          	lw	a5,-24(s0)
80006f38:	8b85                	andi	a5,a5,1
80006f3a:	0ff7f713          	zext.b	a4,a5
80006f3e:	fec42783          	lw	a5,-20(s0)
80006f42:	8b05                	andi	a4,a4,1
80006f44:	0712                	slli	a4,a4,0x4
80006f46:	02c7c683          	lbu	a3,44(a5)
80006f4a:	9abd                	andi	a3,a3,-17
80006f4c:	8f55                	or	a4,a4,a3
80006f4e:	02e78623          	sb	a4,44(a5)
}
80006f52:	0001                	nop
80006f54:	4472                	lw	s0,28(sp)
80006f56:	6105                	addi	sp,sp,32
80006f58:	8082                	ret

80006f5a <UART_RxCmd>:
  * @param   UARTx  Выбор модуля UART, где x=0|1|2|3|4
  * @param   State  Выбор состояния
  * @retval  void
  */
__STATIC_INLINE void UART_RxCmd(UART_TypeDef* UARTx, FunctionalState State)
{
80006f5a:	1101                	addi	sp,sp,-32
80006f5c:	ce22                	sw	s0,28(sp)
80006f5e:	1000                	addi	s0,sp,32
80006f60:	fea42623          	sw	a0,-20(s0)
80006f64:	feb42423          	sw	a1,-24(s0)
    assert_param(IS_UART_PERIPH(UARTx));
    assert_param(IS_FUNCTIONAL_STATE(State));

    WRITE_REG(UARTx->CR_bit.RXE, State);
80006f68:	fe842783          	lw	a5,-24(s0)
80006f6c:	8b85                	andi	a5,a5,1
80006f6e:	0ff7f713          	zext.b	a4,a5
80006f72:	fec42783          	lw	a5,-20(s0)
80006f76:	8b05                	andi	a4,a4,1
80006f78:	0726                	slli	a4,a4,0x9
80006f7a:	0307d683          	lhu	a3,48(a5)
80006f7e:	dff6f693          	andi	a3,a3,-513
80006f82:	8f55                	or	a4,a4,a3
80006f84:	02e79823          	sh	a4,48(a5)
}
80006f88:	0001                	nop
80006f8a:	4472                	lw	s0,28(sp)
80006f8c:	6105                	addi	sp,sp,32
80006f8e:	8082                	ret

80006f90 <UART_TxCmd>:
  * @param   UARTx  Выбор модуля UART, где x=0|1|2|3|4
  * @param   State  Выбор состояния
  * @retval  void
  */
__STATIC_INLINE void UART_TxCmd(UART_TypeDef* UARTx, FunctionalState State)
{
80006f90:	1101                	addi	sp,sp,-32
80006f92:	ce22                	sw	s0,28(sp)
80006f94:	1000                	addi	s0,sp,32
80006f96:	fea42623          	sw	a0,-20(s0)
80006f9a:	feb42423          	sw	a1,-24(s0)
    assert_param(IS_UART_PERIPH(UARTx));
    assert_param(IS_FUNCTIONAL_STATE(State));

    WRITE_REG(UARTx->CR_bit.TXE, State);
80006f9e:	fe842783          	lw	a5,-24(s0)
80006fa2:	8b85                	andi	a5,a5,1
80006fa4:	0ff7f713          	zext.b	a4,a5
80006fa8:	fec42783          	lw	a5,-20(s0)
80006fac:	8b05                	andi	a4,a4,1
80006fae:	0722                	slli	a4,a4,0x8
80006fb0:	0307d683          	lhu	a3,48(a5)
80006fb4:	eff6f693          	andi	a3,a3,-257
80006fb8:	8f55                	or	a4,a4,a3
80006fba:	02e79823          	sh	a4,48(a5)
}
80006fbe:	0001                	nop
80006fc0:	4472                	lw	s0,28(sp)
80006fc2:	6105                	addi	sp,sp,32
80006fc4:	8082                	ret

80006fc6 <UART_AutoBaudConfig>:
  * @param   UARTx  Выбор модуля UART, где x=0|1|2|3|4
  * @param   State  Выбор состояния
  * @retval  void
  */
void UART_AutoBaudConfig(UART_TypeDef* UARTx, uint32_t BaudRate)
{
80006fc6:	7179                	addi	sp,sp,-48
80006fc8:	d606                	sw	ra,44(sp)
80006fca:	d422                	sw	s0,40(sp)
80006fcc:	1800                	addi	s0,sp,48
80006fce:	fca42e23          	sw	a0,-36(s0)
80006fd2:	fcb42c23          	sw	a1,-40(s0)
    UART_Num_TypeDef UARTx_Num;
    uint32_t uart_clk_freq, int_div, frac_div;

    assert_param(IS_UART_PERIPH(UARTx));

    if (UARTx == UART0) {
80006fd6:	fdc42703          	lw	a4,-36(s0)
80006fda:	300067b7          	lui	a5,0x30006
80006fde:	00f71563          	bne	a4,a5,80006fe8 <UART_AutoBaudConfig+0x22>
        UARTx_Num = UART0_Num;
80006fe2:	fe042623          	sw	zero,-20(s0)
80006fe6:	a091                	j	8000702a <UART_AutoBaudConfig+0x64>
    } else if (UARTx == UART1) {
80006fe8:	fdc42703          	lw	a4,-36(s0)
80006fec:	300077b7          	lui	a5,0x30007
80006ff0:	00f71663          	bne	a4,a5,80006ffc <UART_AutoBaudConfig+0x36>
        UARTx_Num = UART1_Num;
80006ff4:	4785                	li	a5,1
80006ff6:	fef42623          	sw	a5,-20(s0)
80006ffa:	a805                	j	8000702a <UART_AutoBaudConfig+0x64>
    } else if (UARTx == UART2) {
80006ffc:	fdc42703          	lw	a4,-36(s0)
80007000:	300087b7          	lui	a5,0x30008
80007004:	00f71663          	bne	a4,a5,80007010 <UART_AutoBaudConfig+0x4a>
        UARTx_Num = UART2_Num;
80007008:	4789                	li	a5,2
8000700a:	fef42623          	sw	a5,-20(s0)
8000700e:	a831                	j	8000702a <UART_AutoBaudConfig+0x64>
    } else if (UARTx == UART3) {
80007010:	fdc42703          	lw	a4,-36(s0)
80007014:	300097b7          	lui	a5,0x30009
80007018:	00f71663          	bne	a4,a5,80007024 <UART_AutoBaudConfig+0x5e>
        UARTx_Num = UART3_Num;        
8000701c:	478d                	li	a5,3
8000701e:	fef42623          	sw	a5,-20(s0)
80007022:	a021                	j	8000702a <UART_AutoBaudConfig+0x64>
    } else /*if (UARTx == UART4)*/ {
        UARTx_Num = UART4_Num;
80007024:	4791                	li	a5,4
80007026:	fef42623          	sw	a5,-20(s0)
    }

    uart_clk_freq = RCU_GetUARTClkFreq(UARTx_Num);
8000702a:	fec42503          	lw	a0,-20(s0)
8000702e:	b28ff0ef          	jal	ra,80006356 <RCU_GetUARTClkFreq>
80007032:	fea42423          	sw	a0,-24(s0)
    int_div = uart_clk_freq / (16 * BaudRate);
80007036:	fd842783          	lw	a5,-40(s0)
8000703a:	0792                	slli	a5,a5,0x4
8000703c:	fe842703          	lw	a4,-24(s0)
80007040:	02f757b3          	divu	a5,a4,a5
80007044:	fef42223          	sw	a5,-28(s0)
    frac_div = (uint32_t)((uart_clk_freq / (16.0f * BaudRate) - int_div) * 64.0f + 0.5f);
80007048:	fe842783          	lw	a5,-24(s0)
8000704c:	d017f753          	fcvt.s.wu	fa4,a5
80007050:	fd842783          	lw	a5,-40(s0)
80007054:	d017f6d3          	fcvt.s.wu	fa3,a5
80007058:	800087b7          	lui	a5,0x80008
8000705c:	8307a787          	flw	fa5,-2000(a5) # 80007830 <__data_source_start+0xfffffee8>
80007060:	10f6f7d3          	fmul.s	fa5,fa3,fa5
80007064:	18f77753          	fdiv.s	fa4,fa4,fa5
80007068:	fe442783          	lw	a5,-28(s0)
8000706c:	d017f7d3          	fcvt.s.wu	fa5,a5
80007070:	08f77753          	fsub.s	fa4,fa4,fa5
80007074:	800087b7          	lui	a5,0x80008
80007078:	8347a787          	flw	fa5,-1996(a5) # 80007834 <__data_source_start+0xfffffeec>
8000707c:	10f77753          	fmul.s	fa4,fa4,fa5
80007080:	800087b7          	lui	a5,0x80008
80007084:	8387a787          	flw	fa5,-1992(a5) # 80007838 <__data_source_start+0xfffffef0>
80007088:	00f777d3          	fadd.s	fa5,fa4,fa5
8000708c:	c01797d3          	fcvt.wu.s	a5,fa5,rtz
80007090:	fef42023          	sw	a5,-32(s0)
    UART_BaudDivConfig(UARTx, int_div, frac_div);
80007094:	fe042603          	lw	a2,-32(s0)
80007098:	fe442583          	lw	a1,-28(s0)
8000709c:	fdc42503          	lw	a0,-36(s0)
800070a0:	3da1                	jal	80006ef8 <UART_BaudDivConfig>
}
800070a2:	0001                	nop
800070a4:	50b2                	lw	ra,44(sp)
800070a6:	5422                	lw	s0,40(sp)
800070a8:	6145                	addi	sp,sp,48
800070aa:	8082                	ret

800070ac <UART_DeInit>:
  * @brief   Устанавливает все регистры UART значениями по умолчанию
  * @param   UARTx   Выбор модуля UART, где x=0|1|2|3|4
  * @retval  void
  */
void UART_DeInit(UART_TypeDef* UARTx)
{
800070ac:	7179                	addi	sp,sp,-48
800070ae:	d606                	sw	ra,44(sp)
800070b0:	d422                	sw	s0,40(sp)
800070b2:	1800                	addi	s0,sp,48
800070b4:	fca42e23          	sw	a0,-36(s0)
    UART_Num_TypeDef UARTx_Num;

    assert_param(IS_UART_PERIPH(UARTx));

    if (UARTx == UART0) {
800070b8:	fdc42703          	lw	a4,-36(s0)
800070bc:	300067b7          	lui	a5,0x30006
800070c0:	00f71563          	bne	a4,a5,800070ca <UART_DeInit+0x1e>
        UARTx_Num = UART0_Num;
800070c4:	fe042623          	sw	zero,-20(s0)
800070c8:	a091                	j	8000710c <UART_DeInit+0x60>
    } else if (UARTx == UART1) {
800070ca:	fdc42703          	lw	a4,-36(s0)
800070ce:	300077b7          	lui	a5,0x30007
800070d2:	00f71663          	bne	a4,a5,800070de <UART_DeInit+0x32>
        UARTx_Num = UART1_Num;
800070d6:	4785                	li	a5,1
800070d8:	fef42623          	sw	a5,-20(s0)
800070dc:	a805                	j	8000710c <UART_DeInit+0x60>
    } else if (UARTx == UART2) {
800070de:	fdc42703          	lw	a4,-36(s0)
800070e2:	300087b7          	lui	a5,0x30008
800070e6:	00f71663          	bne	a4,a5,800070f2 <UART_DeInit+0x46>
        UARTx_Num = UART2_Num;
800070ea:	4789                	li	a5,2
800070ec:	fef42623          	sw	a5,-20(s0)
800070f0:	a831                	j	8000710c <UART_DeInit+0x60>
    } else if (UARTx == UART3) {
800070f2:	fdc42703          	lw	a4,-36(s0)
800070f6:	300097b7          	lui	a5,0x30009
800070fa:	00f71663          	bne	a4,a5,80007106 <UART_DeInit+0x5a>
        UARTx_Num = UART3_Num;        
800070fe:	478d                	li	a5,3
80007100:	fef42623          	sw	a5,-20(s0)
80007104:	a021                	j	8000710c <UART_DeInit+0x60>
    } else /*if (UARTx == UART4)*/ {
        UARTx_Num = UART4_Num;
80007106:	4791                	li	a5,4
80007108:	fef42623          	sw	a5,-20(s0)
    }

    RCU_UARTRstCmd(UARTx_Num, DISABLE);
8000710c:	4581                	li	a1,0
8000710e:	fec42503          	lw	a0,-20(s0)
80007112:	3b11                	jal	80006e26 <RCU_UARTRstCmd>
    RCU_UARTRstCmd(UARTx_Num, ENABLE);
80007114:	4585                	li	a1,1
80007116:	fec42503          	lw	a0,-20(s0)
8000711a:	3331                	jal	80006e26 <RCU_UARTRstCmd>
}
8000711c:	0001                	nop
8000711e:	50b2                	lw	ra,44(sp)
80007120:	5422                	lw	s0,40(sp)
80007122:	6145                	addi	sp,sp,48
80007124:	8082                	ret

80007126 <UART_Init>:
  * @param   InitStruct  Указатель на структуру типа @ref UART_Init_TypeDef,
  *                      которая содержит конфигурационную информацию.
  * @retval  Status  Статус результата инициализации
  */
void UART_Init(UART_TypeDef* UARTx, UART_Init_TypeDef* InitStruct)
{
80007126:	1101                	addi	sp,sp,-32
80007128:	ce06                	sw	ra,28(sp)
8000712a:	cc22                	sw	s0,24(sp)
8000712c:	1000                	addi	s0,sp,32
8000712e:	fea42623          	sw	a0,-20(s0)
80007132:	feb42423          	sw	a1,-24(s0)
    UART_AutoBaudConfig(UARTx, InitStruct->BaudRate);
80007136:	fe842783          	lw	a5,-24(s0)
8000713a:	47dc                	lw	a5,12(a5)
8000713c:	85be                	mv	a1,a5
8000713e:	fec42503          	lw	a0,-20(s0)
80007142:	3551                	jal	80006fc6 <UART_AutoBaudConfig>
    UART_DataWidthConfig(UARTx, InitStruct->DataWidth);
80007144:	fe842783          	lw	a5,-24(s0)
80007148:	479c                	lw	a5,8(a5)
8000714a:	85be                	mv	a1,a5
8000714c:	fec42503          	lw	a0,-20(s0)
80007150:	3b09                	jal	80006e62 <UART_DataWidthConfig>
    UART_StopBitConfig(UARTx, InitStruct->StopBit);
80007152:	fe842783          	lw	a5,-24(s0)
80007156:	439c                	lw	a5,0(a5)
80007158:	85be                	mv	a1,a5
8000715a:	fec42503          	lw	a0,-20(s0)
8000715e:	3b2d                	jal	80006e98 <UART_StopBitConfig>
    UART_ParityBitConfig(UARTx, InitStruct->ParityBit);
80007160:	fe842783          	lw	a5,-24(s0)
80007164:	43dc                	lw	a5,4(a5)
80007166:	85be                	mv	a1,a5
80007168:	fec42503          	lw	a0,-20(s0)
8000716c:	3385                	jal	80006ecc <UART_ParityBitConfig>
    UART_FIFOCmd(UARTx, InitStruct->FIFO);
8000716e:	fe842783          	lw	a5,-24(s0)
80007172:	4b9c                	lw	a5,16(a5)
80007174:	85be                	mv	a1,a5
80007176:	fec42503          	lw	a0,-20(s0)
8000717a:	3375                	jal	80006f26 <UART_FIFOCmd>
    UART_TxCmd(UARTx, InitStruct->Tx);
8000717c:	fe842783          	lw	a5,-24(s0)
80007180:	4f9c                	lw	a5,24(a5)
80007182:	85be                	mv	a1,a5
80007184:	fec42503          	lw	a0,-20(s0)
80007188:	3521                	jal	80006f90 <UART_TxCmd>
    UART_RxCmd(UARTx, InitStruct->Rx);
8000718a:	fe842783          	lw	a5,-24(s0)
8000718e:	4bdc                	lw	a5,20(a5)
80007190:	85be                	mv	a1,a5
80007192:	fec42503          	lw	a0,-20(s0)
80007196:	33d1                	jal	80006f5a <UART_RxCmd>
}
80007198:	0001                	nop
8000719a:	40f2                	lw	ra,28(sp)
8000719c:	4462                	lw	s0,24(sp)
8000719e:	6105                	addi	sp,sp,32
800071a0:	8082                	ret

800071a2 <UART_StructInit>:
  * @param   InitStruct  Указатель на структуру типа @ref UART_Init_TypeDef,
  *                      которую необходимо проинициализировать.
  * @retval  void
  */
void UART_StructInit(UART_Init_TypeDef* InitStruct)
{
800071a2:	1101                	addi	sp,sp,-32
800071a4:	ce22                	sw	s0,28(sp)
800071a6:	1000                	addi	s0,sp,32
800071a8:	fea42623          	sw	a0,-20(s0)
    InitStruct->BaudRate = 9600;
800071ac:	fec42783          	lw	a5,-20(s0)
800071b0:	6709                	lui	a4,0x2
800071b2:	58070713          	addi	a4,a4,1408 # 2580 <STACK_SIZE+0x1d80>
800071b6:	c7d8                	sw	a4,12(a5)
    InitStruct->DataWidth = UART_DataWidth_8;
800071b8:	fec42783          	lw	a5,-20(s0)
800071bc:	470d                	li	a4,3
800071be:	c798                	sw	a4,8(a5)
    InitStruct->FIFO = DISABLE;
800071c0:	fec42783          	lw	a5,-20(s0)
800071c4:	0007a823          	sw	zero,16(a5) # 30009010 <STACK_SIZE+0x30008810>
    InitStruct->ParityBit = UART_ParityBit_Disable;
800071c8:	fec42783          	lw	a5,-20(s0)
800071cc:	0007a223          	sw	zero,4(a5)
    InitStruct->StopBit = UART_StopBit_1;
800071d0:	fec42783          	lw	a5,-20(s0)
800071d4:	0007a023          	sw	zero,0(a5)
    InitStruct->Rx = DISABLE;
800071d8:	fec42783          	lw	a5,-20(s0)
800071dc:	0007aa23          	sw	zero,20(a5)
    InitStruct->Tx = DISABLE;
800071e0:	fec42783          	lw	a5,-20(s0)
800071e4:	0007ac23          	sw	zero,24(a5)
}
800071e8:	0001                	nop
800071ea:	4472                	lw	s0,28(sp)
800071ec:	6105                	addi	sp,sp,32
800071ee:	8082                	ret

800071f0 <memcpy>:
800071f0:	832a                	mv	t1,a0
800071f2:	ca09                	beqz	a2,80007204 <memcpy+0x14>
800071f4:	00058383          	lb	t2,0(a1)
800071f8:	00730023          	sb	t2,0(t1)
800071fc:	167d                	addi	a2,a2,-1 # 3000ffff <STACK_SIZE+0x3000f7ff>
800071fe:	0305                	addi	t1,t1,1
80007200:	0585                	addi	a1,a1,1
80007202:	fa6d                	bnez	a2,800071f4 <memcpy+0x4>
80007204:	8082                	ret

80007206 <memset>:
80007206:	832a                	mv	t1,a0
80007208:	c611                	beqz	a2,80007214 <memset+0xe>
8000720a:	00b30023          	sb	a1,0(t1)
8000720e:	167d                	addi	a2,a2,-1
80007210:	0305                	addi	t1,t1,1
80007212:	fe65                	bnez	a2,8000720a <memset+0x4>
80007214:	8082                	ret

80007216 <__udivdi3>:
80007216:	8832                	mv	a6,a2
80007218:	88aa                	mv	a7,a0
8000721a:	872e                	mv	a4,a1
8000721c:	eec5                	bnez	a3,800072d4 <__udivdi3+0xbe>
8000721e:	10c5f363          	bgeu	a1,a2,80007324 <__udivdi3+0x10e>
80007222:	67c1                	lui	a5,0x10
80007224:	1af66063          	bltu	a2,a5,800073c4 <__udivdi3+0x1ae>
80007228:	010007b7          	lui	a5,0x1000
8000722c:	00f637b3          	sltu	a5,a2,a5
80007230:	40f007b3          	neg	a5,a5
80007234:	9be1                	andi	a5,a5,-8
80007236:	07e1                	addi	a5,a5,24 # 1000018 <STACK_SIZE+0xfff818>
80007238:	00f65333          	srl	t1,a2,a5
8000723c:	00000697          	auipc	a3,0x0
80007240:	60068693          	addi	a3,a3,1536 # 8000783c <__clz_tab>
80007244:	969a                	add	a3,a3,t1
80007246:	0006c683          	lbu	a3,0(a3)
8000724a:	02000313          	li	t1,32
8000724e:	97b6                	add	a5,a5,a3
80007250:	40f306b3          	sub	a3,t1,a5
80007254:	00f30b63          	beq	t1,a5,8000726a <__udivdi3+0x54>
80007258:	00d59733          	sll	a4,a1,a3
8000725c:	00f557b3          	srl	a5,a0,a5
80007260:	00d61833          	sll	a6,a2,a3
80007264:	8f5d                	or	a4,a4,a5
80007266:	00d518b3          	sll	a7,a0,a3
8000726a:	01085613          	srli	a2,a6,0x10
8000726e:	02c75533          	divu	a0,a4,a2
80007272:	01081693          	slli	a3,a6,0x10
80007276:	82c1                	srli	a3,a3,0x10
80007278:	0108d793          	srli	a5,a7,0x10
8000727c:	02c77733          	remu	a4,a4,a2
80007280:	02a685b3          	mul	a1,a3,a0
80007284:	0742                	slli	a4,a4,0x10
80007286:	8fd9                	or	a5,a5,a4
80007288:	00b7fa63          	bgeu	a5,a1,8000729c <__udivdi3+0x86>
8000728c:	97c2                	add	a5,a5,a6
8000728e:	fff50713          	addi	a4,a0,-1 # 28000fff <STACK_SIZE+0x280007ff>
80007292:	0107e463          	bltu	a5,a6,8000729a <__udivdi3+0x84>
80007296:	32b7e163          	bltu	a5,a1,800075b8 <__udivdi3+0x3a2>
8000729a:	853a                	mv	a0,a4
8000729c:	8f8d                	sub	a5,a5,a1
8000729e:	02c7d733          	divu	a4,a5,a2
800072a2:	08c2                	slli	a7,a7,0x10
800072a4:	0108d893          	srli	a7,a7,0x10
800072a8:	02c7f7b3          	remu	a5,a5,a2
800072ac:	02e686b3          	mul	a3,a3,a4
800072b0:	07c2                	slli	a5,a5,0x10
800072b2:	00f8e8b3          	or	a7,a7,a5
800072b6:	00d8fb63          	bgeu	a7,a3,800072cc <__udivdi3+0xb6>
800072ba:	98c2                	add	a7,a7,a6
800072bc:	fff70793          	addi	a5,a4,-1
800072c0:	0108e563          	bltu	a7,a6,800072ca <__udivdi3+0xb4>
800072c4:	1779                	addi	a4,a4,-2
800072c6:	00d8e363          	bltu	a7,a3,800072cc <__udivdi3+0xb6>
800072ca:	873e                	mv	a4,a5
800072cc:	0542                	slli	a0,a0,0x10
800072ce:	8d59                	or	a0,a0,a4
800072d0:	4581                	li	a1,0
800072d2:	8082                	ret
800072d4:	00d5f563          	bgeu	a1,a3,800072de <__udivdi3+0xc8>
800072d8:	4581                	li	a1,0
800072da:	4501                	li	a0,0
800072dc:	8082                	ret
800072de:	67c1                	lui	a5,0x10
800072e0:	18f6ea63          	bltu	a3,a5,80007474 <__udivdi3+0x25e>
800072e4:	010007b7          	lui	a5,0x1000
800072e8:	00f6b7b3          	sltu	a5,a3,a5
800072ec:	40f007b3          	neg	a5,a5
800072f0:	9be1                	andi	a5,a5,-8
800072f2:	07e1                	addi	a5,a5,24 # 1000018 <STACK_SIZE+0xfff818>
800072f4:	00f6d833          	srl	a6,a3,a5
800072f8:	00000717          	auipc	a4,0x0
800072fc:	54470713          	addi	a4,a4,1348 # 8000783c <__clz_tab>
80007300:	9742                	add	a4,a4,a6
80007302:	00074703          	lbu	a4,0(a4)
80007306:	02000893          	li	a7,32
8000730a:	973e                	add	a4,a4,a5
8000730c:	40e88833          	sub	a6,a7,a4
80007310:	18e89763          	bne	a7,a4,8000749e <__udivdi3+0x288>
80007314:	28b6e463          	bltu	a3,a1,8000759c <__udivdi3+0x386>
80007318:	00c53533          	sltu	a0,a0,a2
8000731c:	00154513          	xori	a0,a0,1
80007320:	4581                	li	a1,0
80007322:	8082                	ret
80007324:	c655                	beqz	a2,800073d0 <__udivdi3+0x1ba>
80007326:	67c1                	lui	a5,0x10
80007328:	26f67263          	bgeu	a2,a5,8000758c <__udivdi3+0x376>
8000732c:	10063713          	sltiu	a4,a2,256
80007330:	00174713          	xori	a4,a4,1
80007334:	070e                	slli	a4,a4,0x3
80007336:	00e656b3          	srl	a3,a2,a4
8000733a:	00000797          	auipc	a5,0x0
8000733e:	50278793          	addi	a5,a5,1282 # 8000783c <__clz_tab>
80007342:	97b6                	add	a5,a5,a3
80007344:	0007c783          	lbu	a5,0(a5)
80007348:	02000693          	li	a3,32
8000734c:	97ba                	add	a5,a5,a4
8000734e:	40f68eb3          	sub	t4,a3,a5
80007352:	08f69f63          	bne	a3,a5,800073f0 <__udivdi3+0x1da>
80007356:	40c587b3          	sub	a5,a1,a2
8000735a:	01065693          	srli	a3,a2,0x10
8000735e:	0642                	slli	a2,a2,0x10
80007360:	8241                	srli	a2,a2,0x10
80007362:	4585                	li	a1,1
80007364:	02d7d533          	divu	a0,a5,a3
80007368:	0108d713          	srli	a4,a7,0x10
8000736c:	02d7f7b3          	remu	a5,a5,a3
80007370:	02c50333          	mul	t1,a0,a2
80007374:	07c2                	slli	a5,a5,0x10
80007376:	8fd9                	or	a5,a5,a4
80007378:	0067fa63          	bgeu	a5,t1,8000738c <__udivdi3+0x176>
8000737c:	97c2                	add	a5,a5,a6
8000737e:	fff50713          	addi	a4,a0,-1
80007382:	0107e463          	bltu	a5,a6,8000738a <__udivdi3+0x174>
80007386:	2267e663          	bltu	a5,t1,800075b2 <__udivdi3+0x39c>
8000738a:	853a                	mv	a0,a4
8000738c:	406787b3          	sub	a5,a5,t1
80007390:	02d7d733          	divu	a4,a5,a3
80007394:	08c2                	slli	a7,a7,0x10
80007396:	0108d893          	srli	a7,a7,0x10
8000739a:	02d7f7b3          	remu	a5,a5,a3
8000739e:	02c70633          	mul	a2,a4,a2
800073a2:	07c2                	slli	a5,a5,0x10
800073a4:	00f8e8b3          	or	a7,a7,a5
800073a8:	00c8fb63          	bgeu	a7,a2,800073be <__udivdi3+0x1a8>
800073ac:	98c2                	add	a7,a7,a6
800073ae:	fff70793          	addi	a5,a4,-1
800073b2:	0108e563          	bltu	a7,a6,800073bc <__udivdi3+0x1a6>
800073b6:	1779                	addi	a4,a4,-2
800073b8:	00c8e363          	bltu	a7,a2,800073be <__udivdi3+0x1a8>
800073bc:	873e                	mv	a4,a5
800073be:	0542                	slli	a0,a0,0x10
800073c0:	8d59                	or	a0,a0,a4
800073c2:	8082                	ret
800073c4:	10063793          	sltiu	a5,a2,256
800073c8:	0017c793          	xori	a5,a5,1
800073cc:	078e                	slli	a5,a5,0x3
800073ce:	b5ad                	j	80007238 <__udivdi3+0x22>
800073d0:	4681                	li	a3,0
800073d2:	00000797          	auipc	a5,0x0
800073d6:	46a78793          	addi	a5,a5,1130 # 8000783c <__clz_tab>
800073da:	97b6                	add	a5,a5,a3
800073dc:	0007c783          	lbu	a5,0(a5)
800073e0:	4701                	li	a4,0
800073e2:	02000693          	li	a3,32
800073e6:	97ba                	add	a5,a5,a4
800073e8:	40f68eb3          	sub	t4,a3,a5
800073ec:	f6f685e3          	beq	a3,a5,80007356 <__udivdi3+0x140>
800073f0:	01d61833          	sll	a6,a2,t4
800073f4:	00f5d333          	srl	t1,a1,a5
800073f8:	01085693          	srli	a3,a6,0x10
800073fc:	02d35e33          	divu	t3,t1,a3
80007400:	01081613          	slli	a2,a6,0x10
80007404:	01d595b3          	sll	a1,a1,t4
80007408:	8241                	srli	a2,a2,0x10
8000740a:	00f557b3          	srl	a5,a0,a5
8000740e:	8fcd                	or	a5,a5,a1
80007410:	0107d713          	srli	a4,a5,0x10
80007414:	01d518b3          	sll	a7,a0,t4
80007418:	02d37333          	remu	t1,t1,a3
8000741c:	03c605b3          	mul	a1,a2,t3
80007420:	0342                	slli	t1,t1,0x10
80007422:	00676733          	or	a4,a4,t1
80007426:	00b77b63          	bgeu	a4,a1,8000743c <__udivdi3+0x226>
8000742a:	9742                	add	a4,a4,a6
8000742c:	fffe0513          	addi	a0,t3,-1
80007430:	17076d63          	bltu	a4,a6,800075aa <__udivdi3+0x394>
80007434:	16b77b63          	bgeu	a4,a1,800075aa <__udivdi3+0x394>
80007438:	1e79                	addi	t3,t3,-2
8000743a:	9742                	add	a4,a4,a6
8000743c:	8f0d                	sub	a4,a4,a1
8000743e:	02d75533          	divu	a0,a4,a3
80007442:	07c2                	slli	a5,a5,0x10
80007444:	83c1                	srli	a5,a5,0x10
80007446:	02d77733          	remu	a4,a4,a3
8000744a:	02a60333          	mul	t1,a2,a0
8000744e:	0742                	slli	a4,a4,0x10
80007450:	8fd9                	or	a5,a5,a4
80007452:	0067fb63          	bgeu	a5,t1,80007468 <__udivdi3+0x252>
80007456:	97c2                	add	a5,a5,a6
80007458:	fff50713          	addi	a4,a0,-1
8000745c:	1507e363          	bltu	a5,a6,800075a2 <__udivdi3+0x38c>
80007460:	1467f163          	bgeu	a5,t1,800075a2 <__udivdi3+0x38c>
80007464:	1579                	addi	a0,a0,-2
80007466:	97c2                	add	a5,a5,a6
80007468:	010e1593          	slli	a1,t3,0x10
8000746c:	406787b3          	sub	a5,a5,t1
80007470:	8dc9                	or	a1,a1,a0
80007472:	bdcd                	j	80007364 <__udivdi3+0x14e>
80007474:	1006b793          	sltiu	a5,a3,256
80007478:	0017c793          	xori	a5,a5,1
8000747c:	078e                	slli	a5,a5,0x3
8000747e:	00f6d833          	srl	a6,a3,a5
80007482:	00000717          	auipc	a4,0x0
80007486:	3ba70713          	addi	a4,a4,954 # 8000783c <__clz_tab>
8000748a:	9742                	add	a4,a4,a6
8000748c:	00074703          	lbu	a4,0(a4)
80007490:	02000893          	li	a7,32
80007494:	973e                	add	a4,a4,a5
80007496:	40e88833          	sub	a6,a7,a4
8000749a:	e6e88de3          	beq	a7,a4,80007314 <__udivdi3+0xfe>
8000749e:	00e65e33          	srl	t3,a2,a4
800074a2:	010696b3          	sll	a3,a3,a6
800074a6:	00de6e33          	or	t3,t3,a3
800074aa:	00e5d8b3          	srl	a7,a1,a4
800074ae:	010e5e93          	srli	t4,t3,0x10
800074b2:	03d8d7b3          	divu	a5,a7,t4
800074b6:	010e1313          	slli	t1,t3,0x10
800074ba:	010595b3          	sll	a1,a1,a6
800074be:	01035313          	srli	t1,t1,0x10
800074c2:	00e55733          	srl	a4,a0,a4
800074c6:	8f4d                	or	a4,a4,a1
800074c8:	01075693          	srli	a3,a4,0x10
800074cc:	01061633          	sll	a2,a2,a6
800074d0:	03d8f8b3          	remu	a7,a7,t4
800074d4:	02f305b3          	mul	a1,t1,a5
800074d8:	08c2                	slli	a7,a7,0x10
800074da:	0116e6b3          	or	a3,a3,a7
800074de:	00b6fb63          	bgeu	a3,a1,800074f4 <__udivdi3+0x2de>
800074e2:	96f2                	add	a3,a3,t3
800074e4:	fff78893          	addi	a7,a5,-1
800074e8:	0dc6e363          	bltu	a3,t3,800075ae <__udivdi3+0x398>
800074ec:	0cb6f163          	bgeu	a3,a1,800075ae <__udivdi3+0x398>
800074f0:	17f9                	addi	a5,a5,-2
800074f2:	96f2                	add	a3,a3,t3
800074f4:	8e8d                	sub	a3,a3,a1
800074f6:	03d6d5b3          	divu	a1,a3,t4
800074fa:	0742                	slli	a4,a4,0x10
800074fc:	8341                	srli	a4,a4,0x10
800074fe:	03d6f6b3          	remu	a3,a3,t4
80007502:	02b308b3          	mul	a7,t1,a1
80007506:	06c2                	slli	a3,a3,0x10
80007508:	8f55                	or	a4,a4,a3
8000750a:	01177b63          	bgeu	a4,a7,80007520 <__udivdi3+0x30a>
8000750e:	9772                	add	a4,a4,t3
80007510:	fff58693          	addi	a3,a1,-1
80007514:	09c76963          	bltu	a4,t3,800075a6 <__udivdi3+0x390>
80007518:	09177763          	bgeu	a4,a7,800075a6 <__udivdi3+0x390>
8000751c:	15f9                	addi	a1,a1,-2
8000751e:	9772                	add	a4,a4,t3
80007520:	07c2                	slli	a5,a5,0x10
80007522:	6ec1                	lui	t4,0x10
80007524:	8fcd                	or	a5,a5,a1
80007526:	fffe8693          	addi	a3,t4,-1 # ffff <STACK_SIZE+0xf7ff>
8000752a:	00d7f5b3          	and	a1,a5,a3
8000752e:	0107d313          	srli	t1,a5,0x10
80007532:	8ef1                	and	a3,a3,a2
80007534:	8241                	srli	a2,a2,0x10
80007536:	02d58e33          	mul	t3,a1,a3
8000753a:	41170733          	sub	a4,a4,a7
8000753e:	02d306b3          	mul	a3,t1,a3
80007542:	010e5893          	srli	a7,t3,0x10
80007546:	02c585b3          	mul	a1,a1,a2
8000754a:	95b6                	add	a1,a1,a3
8000754c:	95c6                	add	a1,a1,a7
8000754e:	02c30333          	mul	t1,t1,a2
80007552:	00d5f363          	bgeu	a1,a3,80007558 <__udivdi3+0x342>
80007556:	9376                	add	t1,t1,t4
80007558:	0105d693          	srli	a3,a1,0x10
8000755c:	969a                	add	a3,a3,t1
8000755e:	02d76363          	bltu	a4,a3,80007584 <__udivdi3+0x36e>
80007562:	00d70563          	beq	a4,a3,8000756c <__udivdi3+0x356>
80007566:	853e                	mv	a0,a5
80007568:	4581                	li	a1,0
8000756a:	8082                	ret
8000756c:	66c1                	lui	a3,0x10
8000756e:	16fd                	addi	a3,a3,-1 # ffff <STACK_SIZE+0xf7ff>
80007570:	00d5f733          	and	a4,a1,a3
80007574:	0742                	slli	a4,a4,0x10
80007576:	00de7e33          	and	t3,t3,a3
8000757a:	01051533          	sll	a0,a0,a6
8000757e:	9772                	add	a4,a4,t3
80007580:	fee573e3          	bgeu	a0,a4,80007566 <__udivdi3+0x350>
80007584:	fff78513          	addi	a0,a5,-1
80007588:	4581                	li	a1,0
8000758a:	8082                	ret
8000758c:	010007b7          	lui	a5,0x1000
80007590:	02f67763          	bgeu	a2,a5,800075be <__udivdi3+0x3a8>
80007594:	01065693          	srli	a3,a2,0x10
80007598:	4741                	li	a4,16
8000759a:	b345                	j	8000733a <__udivdi3+0x124>
8000759c:	4581                	li	a1,0
8000759e:	4505                	li	a0,1
800075a0:	8082                	ret
800075a2:	853a                	mv	a0,a4
800075a4:	b5d1                	j	80007468 <__udivdi3+0x252>
800075a6:	85b6                	mv	a1,a3
800075a8:	bfa5                	j	80007520 <__udivdi3+0x30a>
800075aa:	8e2a                	mv	t3,a0
800075ac:	bd41                	j	8000743c <__udivdi3+0x226>
800075ae:	87c6                	mv	a5,a7
800075b0:	b791                	j	800074f4 <__udivdi3+0x2de>
800075b2:	1579                	addi	a0,a0,-2
800075b4:	97c2                	add	a5,a5,a6
800075b6:	bbd9                	j	8000738c <__udivdi3+0x176>
800075b8:	1579                	addi	a0,a0,-2
800075ba:	97c2                	add	a5,a5,a6
800075bc:	b1c5                	j	8000729c <__udivdi3+0x86>
800075be:	01865693          	srli	a3,a2,0x18
800075c2:	4761                	li	a4,24
800075c4:	bb9d                	j	8000733a <__udivdi3+0x124>
